ARM GAS  C:\Users\Tim\AppData\Local\Temp\ccUJ8Q3Z.s 			page 1


   1              		.cpu cortex-m0
   2              		.fpu softvfp
   3              		.eabi_attribute 20, 1
   4              		.eabi_attribute 21, 1
   5              		.eabi_attribute 23, 3
   6              		.eabi_attribute 24, 1
   7              		.eabi_attribute 25, 1
   8              		.eabi_attribute 26, 1
   9              		.eabi_attribute 30, 1
  10              		.eabi_attribute 34, 0
  11              		.eabi_attribute 18, 4
  12              		.code	16
  13              		.file	"cal.c"
  14              		.text
  15              	.Ltext0:
  16              		.cfi_sections	.debug_frame
  17              		.section	.text.SendData,"ax",%progbits
  18              		.align	2
  19              		.code	16
  20              		.thumb_func
  21              		.type	SendData, %function
  22              	SendData:
  23              	.LFB36:
  24              		.file 1 "..\\source\\cal.c"
   1:..\source/cal.c **** /* ========================================
   2:..\source/cal.c ****  *
   3:..\source/cal.c ****  * Copyright YOUR COMPANY, THE YEAR
   4:..\source/cal.c ****  * All Rights Reserved
   5:..\source/cal.c ****  * UNPUBLISHED, LICENSED SOFTWARE.
   6:..\source/cal.c ****  *
   7:..\source/cal.c ****  * CONFIDENTIAL AND PROPRIETARY INFORMATION
   8:..\source/cal.c ****  * WHICH IS THE PROPERTY OF your company.
   9:..\source/cal.c ****  *
  10:..\source/cal.c ****  * ========================================
  11:..\source/cal.c **** */
  12:..\source/cal.c **** 
  13:..\source/cal.c **** #include "cal.h"
  14:..\source/cal.c **** #include "motor.h"
  15:..\source/cal.c **** #include "i2c.h"
  16:..\source/cal.c **** 
  17:..\source/cal.c **** /* An explanation for how calibration can work:
  18:..\source/cal.c ****         1. Calibration data will be stored in a file on the Raspberry Pi
  19:..\source/cal.c ****             Note: That eliminates the need for any type of NVRAM or additional peripheral hardware
  20:..\source/cal.c ****         2. A calibration program will be run from the Raspberry Pi.  It will communicate with the P
  21:..\source/cal.c ****            boards over the I2C bus using the control register to invoke calibration and another add
  22:..\source/cal.c ****             (2 bytes) to read each value from the Psoc.
  23:..\source/cal.c ****             Note: There will be a known number of entries (150) in the calibration array
  24:..\source/cal.c ****         3. To start calibration, the calibration program will set the calibration bit in the contro
  25:..\source/cal.c ****            register
  26:..\source/cal.c ****         4. The Psoc will then set the calibration bit in the status register and start calibration
  27:..\source/cal.c ****              a. Psoc with run the motor from full forward to stop
  28:..\source/cal.c ****              b. Measure motor speed and calculate an average count/sec and capture min/max pwm valu
  29:..\source/cal.c ****              c. Store the pwm min/max values for each count/sec calulation
  30:..\source/cal.c ****              d. Calculate an average pwm from the min/max values
  31:..\source/cal.c ****              e. Interpolate between each sampled count/sec to fill out the PWM array
  32:..\source/cal.c ****         5. The calibration program will poll the calibration bit in the status register waiting for
  33:..\source/cal.c ****            be cleared
ARM GAS  C:\Users\Tim\AppData\Local\Temp\ccUJ8Q3Z.s 			page 2


  34:..\source/cal.c ****         6. The Psoc will clear the calibration bit in the status register when calibration is compl
  35:..\source/cal.c ****             Note: It may be better to write the first calibration value into the calibration regist
  36:..\source/cal.c ****                   clearing the calibration bit in the status register
  37:..\source/cal.c ****         7. Now, how to handshake and transfer the data?
  38:..\source/cal.c ****             a. After clearing the calibration bit of the status register, the Psoc will write a val
  39:..\source/cal.c ****                 calibration array to the I2C calibration register and poll waiting for the value to
  40:..\source/cal.c ****                 cleared by the calibration program
  41:..\source/cal.c ****             b. The calibration program will poll the calibration register waiting for its value to 
  42:..\source/cal.c ****                 non-zero.  After reading the calibration value, the calibration program will clear 
  43:..\source/cal.c ****                 calibration register
  44:..\source/cal.c ****             c. Steps a. and b. will repeat until all the values have been written
  45:..\source/cal.c ****             d. After Psoc writes the last calibration value to the calibration register, it will wr
  46:..\source/cal.c ****                 value 0xFFFF signifying the end of the transmission.
  47:..\source/cal.c ****  */
  48:..\source/cal.c **** 
  49:..\source/cal.c **** #define CAL_START_TRANSFER (0xFF00)
  50:..\source/cal.c **** #define CAL_END_TRANSFER   (0xFFFF)
  51:..\source/cal.c **** #define CAL_ACK_TRANSFER   (0x0000)
  52:..\source/cal.c **** 
  53:..\source/cal.c **** static void SendData(uint16 *cal_values, uint16 num_entries)
  54:..\source/cal.c **** {
  25              		.loc 1 54 0
  26              		.cfi_startproc
  27              	.LVL0:
  28 0000 70B5     		push	{r4, r5, r6, lr}
  29              		.cfi_def_cfa_offset 16
  30              		.cfi_offset 4, -16
  31              		.cfi_offset 5, -12
  32              		.cfi_offset 6, -8
  33              		.cfi_offset 14, -4
  34 0002 061C     		mov	r6, r0
  35 0004 0D1C     		mov	r5, r1
  36              	.LVL1:
  37              	.L2:
  55:..\source/cal.c ****     int ii;
  56:..\source/cal.c ****     
  57:..\source/cal.c ****     while (I2c_ReadCalReg() != CAL_ACK_TRANSFER);
  38              		.loc 1 57 0 discriminator 1
  39 0006 FFF7FEFF 		bl	I2c_ReadCalReg
  40              	.LVL2:
  41 000a 0028     		cmp	r0, #0
  42 000c FBD1     		bne	.L2
  43 000e 0024     		mov	r4, #0
  44 0010 08E0     		b	.L3
  45              	.LVL3:
  46              	.L5:
  58:..\source/cal.c ****     
  59:..\source/cal.c ****     for (ii = 0; ii < num_entries; ++ii)
  60:..\source/cal.c ****     {
  61:..\source/cal.c ****         I2c_WriteCalReg(cal_values[ii]);
  47              		.loc 1 61 0
  48 0012 6300     		lsl	r3, r4, #1
  49 0014 F05A     		ldrh	r0, [r6, r3]
  50 0016 FFF7FEFF 		bl	I2c_WriteCalReg
  51              	.LVL4:
  52              	.L4:
  62:..\source/cal.c ****         while (I2c_ReadCalReg() != CAL_ACK_TRANSFER);
ARM GAS  C:\Users\Tim\AppData\Local\Temp\ccUJ8Q3Z.s 			page 3


  53              		.loc 1 62 0 discriminator 1
  54 001a FFF7FEFF 		bl	I2c_ReadCalReg
  55              	.LVL5:
  56 001e 0028     		cmp	r0, #0
  57 0020 FBD1     		bne	.L4
  59:..\source/cal.c ****     {
  58              		.loc 1 59 0 discriminator 2
  59 0022 0134     		add	r4, r4, #1
  60              	.LVL6:
  61              	.L3:
  59:..\source/cal.c ****     {
  62              		.loc 1 59 0 is_stmt 0 discriminator 1
  63 0024 A542     		cmp	r5, r4
  64 0026 F4DC     		bgt	.L5
  63:..\source/cal.c ****     }
  64:..\source/cal.c ****     
  65:..\source/cal.c ****     I2c_WriteCalReg(CAL_END_TRANSFER);    
  65              		.loc 1 65 0 is_stmt 1
  66 0028 0348     		ldr	r0, .L7
  67 002a FFF7FEFF 		bl	I2c_WriteCalReg
  68              	.LVL7:
  69              	.L6:
  66:..\source/cal.c ****     while (I2c_ReadCalReg() != CAL_ACK_TRANSFER);
  70              		.loc 1 66 0 discriminator 1
  71 002e FFF7FEFF 		bl	I2c_ReadCalReg
  72              	.LVL8:
  73 0032 0028     		cmp	r0, #0
  74 0034 FBD1     		bne	.L6
  67:..\source/cal.c **** }
  75              		.loc 1 67 0
  76              		@ sp needed
  77              	.LVL9:
  78              	.LVL10:
  79 0036 70BD     		pop	{r4, r5, r6, pc}
  80              	.L8:
  81              		.align	2
  82              	.L7:
  83 0038 FFFF0000 		.word	65535
  84              		.cfi_endproc
  85              	.LFE36:
  86              		.size	SendData, .-SendData
  87              		.section	.text.RecvData,"ax",%progbits
  88              		.align	2
  89              		.code	16
  90              		.thumb_func
  91              		.type	RecvData, %function
  92              	RecvData:
  93              	.LFB37:
  68:..\source/cal.c **** 
  69:..\source/cal.c **** static void RecvData(uint16 *cal_values, uint16 *num_entries)
  70:..\source/cal.c **** {
  94              		.loc 1 70 0
  95              		.cfi_startproc
  96              	.LVL11:
  97 0000 70B5     		push	{r4, r5, r6, lr}
  98              		.cfi_def_cfa_offset 16
  99              		.cfi_offset 4, -16
ARM GAS  C:\Users\Tim\AppData\Local\Temp\ccUJ8Q3Z.s 			page 4


 100              		.cfi_offset 5, -12
 101              		.cfi_offset 6, -8
 102              		.cfi_offset 14, -4
 103 0002 051C     		mov	r5, r0
 104 0004 0E1C     		mov	r6, r1
 105              	.LVL12:
 106              	.L10:
  71:..\source/cal.c ****     uint16 value;
  72:..\source/cal.c ****     uint16 index;
  73:..\source/cal.c ****     
  74:..\source/cal.c ****     index = 0;
  75:..\source/cal.c ****     
  76:..\source/cal.c ****     while (I2c_ReadCalReg() != CAL_START_TRANSFER) ;
 107              		.loc 1 76 0 discriminator 1
 108 0006 FFF7FEFF 		bl	I2c_ReadCalReg
 109              	.LVL13:
 110 000a FF23     		mov	r3, #255
 111 000c 1B02     		lsl	r3, r3, #8
 112 000e 9842     		cmp	r0, r3
 113 0010 F9D1     		bne	.L10
 114 0012 03E0     		b	.L11
 115              	.LVL14:
 116              	.L12:
  77:..\source/cal.c ****     
  78:..\source/cal.c ****     while ( (value = I2c_ReadCalReg()) != CAL_END_TRANSFER)
  79:..\source/cal.c ****     {
  80:..\source/cal.c ****         // Acknowledge the transfer and store the value
  81:..\source/cal.c ****         I2c_WriteCalReg(0);
 117              		.loc 1 81 0
 118 0014 0020     		mov	r0, #0
 119              	.LVL15:
 120 0016 FFF7FEFF 		bl	I2c_WriteCalReg
 121              	.LVL16:
  82:..\source/cal.c ****         cal_values[index] = value;
 122              		.loc 1 82 0
 123 001a 2C80     		strh	r4, [r5]
 124              	.L11:
  78:..\source/cal.c ****     {
 125              		.loc 1 78 0
 126 001c FFF7FEFF 		bl	I2c_ReadCalReg
 127              	.LVL17:
 128 0020 041E     		sub	r4, r0, #0
 129              	.LVL18:
 130 0022 044B     		ldr	r3, .L13
 131 0024 9C42     		cmp	r4, r3
 132 0026 F5D1     		bne	.L12
  83:..\source/cal.c ****     }
  84:..\source/cal.c ****     I2c_WriteCalReg(0);
 133              		.loc 1 84 0
 134 0028 0020     		mov	r0, #0
 135              	.LVL19:
 136 002a FFF7FEFF 		bl	I2c_WriteCalReg
 137              	.LVL20:
  85:..\source/cal.c ****     *num_entries = index + 1;
 138              		.loc 1 85 0
 139 002e 0123     		mov	r3, #1
 140 0030 3380     		strh	r3, [r6]
ARM GAS  C:\Users\Tim\AppData\Local\Temp\ccUJ8Q3Z.s 			page 5


  86:..\source/cal.c **** }
 141              		.loc 1 86 0
 142              		@ sp needed
 143              	.LVL21:
 144              	.LVL22:
 145 0032 70BD     		pop	{r4, r5, r6, pc}
 146              	.L14:
 147              		.align	2
 148              	.L13:
 149 0034 FFFF0000 		.word	65535
 150              		.cfi_endproc
 151              	.LFE37:
 152              		.size	RecvData, .-RecvData
 153              		.section	.text.Cal_Init,"ax",%progbits
 154              		.align	2
 155              		.global	Cal_Init
 156              		.code	16
 157              		.thumb_func
 158              		.type	Cal_Init, %function
 159              	Cal_Init:
 160              	.LFB38:
  87:..\source/cal.c **** 
  88:..\source/cal.c **** void Cal_Init()
  89:..\source/cal.c **** {
 161              		.loc 1 89 0
 162              		.cfi_startproc
  90:..\source/cal.c **** }
 163              		.loc 1 90 0
 164              		@ sp needed
 165 0000 7047     		bx	lr
 166              		.cfi_endproc
 167              	.LFE38:
 168              		.size	Cal_Init, .-Cal_Init
 169 0002 C046     		.section	.text.Cal_Start,"ax",%progbits
 170              		.align	2
 171              		.global	Cal_Start
 172              		.code	16
 173              		.thumb_func
 174              		.type	Cal_Start, %function
 175              	Cal_Start:
 176              	.LFB39:
  91:..\source/cal.c **** 
  92:..\source/cal.c **** void Cal_Start()
  93:..\source/cal.c **** {
 177              		.loc 1 93 0
 178              		.cfi_startproc
 179 0000 08B5     		push	{r3, lr}
 180              		.cfi_def_cfa_offset 8
 181              		.cfi_offset 3, -8
 182              		.cfi_offset 14, -4
  94:..\source/cal.c ****     /* Note: The Psoc code contains defaults for all configurable parameters, so by definition it i
  95:..\source/cal.c ****        defaults and the calibrated bit is set.    
  96:..\source/cal.c ****      */
  97:..\source/cal.c ****     I2c_SetStatusBit(STATUS_CALIBRATED_BIT);
 183              		.loc 1 97 0
 184 0002 0220     		mov	r0, #2
 185 0004 FFF7FEFF 		bl	I2c_SetStatusBit
ARM GAS  C:\Users\Tim\AppData\Local\Temp\ccUJ8Q3Z.s 			page 6


 186              	.LVL23:
  98:..\source/cal.c **** }
 187              		.loc 1 98 0
 188              		@ sp needed
 189 0008 08BD     		pop	{r3, pc}
 190              		.cfi_endproc
 191              	.LFE39:
 192              		.size	Cal_Start, .-Cal_Start
 193 000a C046     		.section	.text.Cal_Update,"ax",%progbits
 194              		.align	2
 195              		.global	Cal_Update
 196              		.code	16
 197              		.thumb_func
 198              		.type	Cal_Update, %function
 199              	Cal_Update:
 200              	.LFB40:
  99:..\source/cal.c **** 
 100:..\source/cal.c **** void Cal_Update()
 101:..\source/cal.c **** {
 201              		.loc 1 101 0
 202              		.cfi_startproc
 203 0000 10B5     		push	{r4, lr}
 204              		.cfi_def_cfa_offset 8
 205              		.cfi_offset 4, -8
 206              		.cfi_offset 14, -4
 207 0002 82B0     		sub	sp, sp, #8
 208              		.cfi_def_cfa_offset 16
 102:..\source/cal.c ****     uint16 *cal_values;
 103:..\source/cal.c ****     uint16 num_entries;
 104:..\source/cal.c ****     
 105:..\source/cal.c ****     /* Write to the serial that we are calibrating: CALIBRATING !!!! */
 106:..\source/cal.c ****     
 107:..\source/cal.c ****     I2c_SetStatusBit(STATUS_CALIBRATING_BIT);
 209              		.loc 1 107 0
 210 0004 0420     		mov	r0, #4
 211 0006 FFF7FEFF 		bl	I2c_SetStatusBit
 212              	.LVL24:
 108:..\source/cal.c ****     I2c_ClearStatusBit(STATUS_CALIBRATED_BIT);
 213              		.loc 1 108 0
 214 000a 0220     		mov	r0, #2
 215 000c FFF7FEFF 		bl	I2c_ClearStatusBit
 216              	.LVL25:
 109:..\source/cal.c ****     
 110:..\source/cal.c ****     Motor_Calibrate();
 217              		.loc 1 110 0
 218 0010 FFF7FEFF 		bl	Motor_Calibrate
 219              	.LVL26:
 111:..\source/cal.c ****     Motor_GetCalValues((int16**) &cal_values, &num_entries);
 220              		.loc 1 111 0
 221 0014 6B46     		mov	r3, sp
 222 0016 9C1C     		add	r4, r3, #2
 223 0018 01A8     		add	r0, sp, #4
 224 001a 211C     		mov	r1, r4
 225 001c FFF7FEFF 		bl	Motor_GetCalValues
 226              	.LVL27:
 112:..\source/cal.c **** 
 113:..\source/cal.c ****     I2c_WriteCalReg(CAL_START_TRANSFER);
ARM GAS  C:\Users\Tim\AppData\Local\Temp\ccUJ8Q3Z.s 			page 7


 227              		.loc 1 113 0
 228 0020 FF20     		mov	r0, #255
 229 0022 0002     		lsl	r0, r0, #8
 230 0024 FFF7FEFF 		bl	I2c_WriteCalReg
 231              	.LVL28:
 114:..\source/cal.c ****     I2c_ClearStatusBit(STATUS_CALIBRATING_BIT);
 232              		.loc 1 114 0
 233 0028 0420     		mov	r0, #4
 234 002a FFF7FEFF 		bl	I2c_ClearStatusBit
 235              	.LVL29:
 115:..\source/cal.c **** 
 116:..\source/cal.c ****     SendData(cal_values, num_entries);
 236              		.loc 1 116 0
 237 002e 2188     		ldrh	r1, [r4]
 238 0030 0198     		ldr	r0, [sp, #4]
 239 0032 FFF7FEFF 		bl	SendData
 240              	.LVL30:
 117:..\source/cal.c ****     
 118:..\source/cal.c ****     I2c_SetStatusBit(STATUS_CALIBRATED_BIT);
 241              		.loc 1 118 0
 242 0036 0220     		mov	r0, #2
 243 0038 FFF7FEFF 		bl	I2c_SetStatusBit
 244              	.LVL31:
 119:..\source/cal.c ****     
 120:..\source/cal.c ****     /* Write to the serial that we are done: CALIBRATION COMPLETE !!!! */
 121:..\source/cal.c **** }
 245              		.loc 1 121 0
 246 003c 02B0     		add	sp, sp, #8
 247              		@ sp needed
 248 003e 10BD     		pop	{r4, pc}
 249              		.cfi_endproc
 250              	.LFE40:
 251              		.size	Cal_Update, .-Cal_Update
 252              		.section	.text.Cal_Upload,"ax",%progbits
 253              		.align	2
 254              		.global	Cal_Upload
 255              		.code	16
 256              		.thumb_func
 257              		.type	Cal_Upload, %function
 258              	Cal_Upload:
 259              	.LFB41:
 122:..\source/cal.c **** 
 123:..\source/cal.c **** void Cal_Upload()
 124:..\source/cal.c **** /* Upload program will:
 125:..\source/cal.c ****     1. send command to upload calibration data
 126:..\source/cal.c ****     2. poll on status calibrated/calibrating bits (see above)
 127:..\source/cal.c ****     3. send start transfer value
 128:..\source/cal.c ****     4. send calibration values
 129:..\source/cal.c ****         a. Psoc will read the value and set the calibration register to 0 to acknowledge the transf
 130:..\source/cal.c ****     5. send end transfer value    
 131:..\source/cal.c ****  */
 132:..\source/cal.c **** {
 260              		.loc 1 132 0
 261              		.cfi_startproc
 262 0000 00B5     		push	{lr}
 263              		.cfi_def_cfa_offset 4
 264              		.cfi_offset 14, -4
ARM GAS  C:\Users\Tim\AppData\Local\Temp\ccUJ8Q3Z.s 			page 8


 265 0002 83B0     		sub	sp, sp, #12
 266              		.cfi_def_cfa_offset 16
 133:..\source/cal.c ****     uint16 *cal_values;
 134:..\source/cal.c ****     uint16 num_entries;
 135:..\source/cal.c ****     
 136:..\source/cal.c ****     /* Write to the serial that we are loading calibration: LOADING CALIBRATION !!!! */
 137:..\source/cal.c ****     
 138:..\source/cal.c ****     I2c_ClearStatusBit(STATUS_CALIBRATED_BIT);
 267              		.loc 1 138 0
 268 0004 0220     		mov	r0, #2
 269 0006 FFF7FEFF 		bl	I2c_ClearStatusBit
 270              	.LVL32:
 139:..\source/cal.c ****     I2c_SetStatusBit(STATUS_CALIBRATING_BIT);
 271              		.loc 1 139 0
 272 000a 0420     		mov	r0, #4
 273 000c FFF7FEFF 		bl	I2c_SetStatusBit
 274              	.LVL33:
 140:..\source/cal.c ****     
 141:..\source/cal.c ****     Motor_GetCalValues((int16**) &cal_values, &num_entries);
 275              		.loc 1 141 0
 276 0010 01A8     		add	r0, sp, #4
 277 0012 6B46     		mov	r3, sp
 278 0014 991C     		add	r1, r3, #2
 279 0016 FFF7FEFF 		bl	Motor_GetCalValues
 280              	.LVL34:
 142:..\source/cal.c ****     
 143:..\source/cal.c ****     RecvData(cal_values, &num_entries);
 281              		.loc 1 143 0
 282 001a 0198     		ldr	r0, [sp, #4]
 283 001c 6B46     		mov	r3, sp
 284 001e 991C     		add	r1, r3, #2
 285 0020 FFF7FEFF 		bl	RecvData
 286              	.LVL35:
 144:..\source/cal.c ****     
 145:..\source/cal.c ****     I2c_ClearStatusBit(STATUS_CALIBRATING_BIT);
 287              		.loc 1 145 0
 288 0024 0420     		mov	r0, #4
 289 0026 FFF7FEFF 		bl	I2c_ClearStatusBit
 290              	.LVL36:
 146:..\source/cal.c ****     I2c_SetStatusBit(STATUS_CALIBRATED_BIT);
 291              		.loc 1 146 0
 292 002a 0220     		mov	r0, #2
 293 002c FFF7FEFF 		bl	I2c_SetStatusBit
 294              	.LVL37:
 147:..\source/cal.c ****     
 148:..\source/cal.c ****     /* Write to the serial that we are done: LOAD COMPLETE !!!! */
 149:..\source/cal.c **** }
 295              		.loc 1 149 0
 296 0030 03B0     		add	sp, sp, #12
 297              		@ sp needed
 298 0032 00BD     		pop	{pc}
 299              		.cfi_endproc
 300              	.LFE41:
 301              		.size	Cal_Upload, .-Cal_Upload
 302              		.text
 303              	.Letext0:
 304              		.file 2 "Generated_Source\\PSoC4/cytypes.h"
ARM GAS  C:\Users\Tim\AppData\Local\Temp\ccUJ8Q3Z.s 			page 9


 305              		.file 3 "..\\source\\i2c.h"
 306              		.file 4 "..\\source\\motor.h"