ARM GAS  C:\Users\Tim\AppData\Local\Temp\ccon0omM.s 			page 1


   1              		.cpu cortex-m0
   2              		.fpu softvfp
   3              		.eabi_attribute 20, 1
   4              		.eabi_attribute 21, 1
   5              		.eabi_attribute 23, 3
   6              		.eabi_attribute 24, 1
   7              		.eabi_attribute 25, 1
   8              		.eabi_attribute 26, 1
   9              		.eabi_attribute 30, 1
  10              		.eabi_attribute 34, 0
  11              		.eabi_attribute 18, 4
  12              		.code	16
  13              		.file	"cyfitter_cfg.c"
  14              		.text
  15              	.Ltext0:
  16              		.cfi_sections	.debug_frame
  17              		.section	.text.cfg_write_bytes32,"ax",%progbits
  18              		.align	2
  19              		.code	16
  20              		.thumb_func
  21              		.type	cfg_write_bytes32, %function
  22              	cfg_write_bytes32:
  23              	.LFB4:
  24              		.file 1 ".\\Generated_Source\\PSoC4\\cyfitter_cfg.c"
   1:.\Generated_Source\PSoC4/cyfitter_cfg.c **** /*******************************************************************************
   2:.\Generated_Source\PSoC4/cyfitter_cfg.c **** * File Name: cyfitter_cfg.c
   3:.\Generated_Source\PSoC4/cyfitter_cfg.c **** * 
   4:.\Generated_Source\PSoC4/cyfitter_cfg.c **** * PSoC Creator  3.3 CP2
   5:.\Generated_Source\PSoC4/cyfitter_cfg.c **** *
   6:.\Generated_Source\PSoC4/cyfitter_cfg.c **** * Description:
   7:.\Generated_Source\PSoC4/cyfitter_cfg.c **** * This file contains device initialization code.
   8:.\Generated_Source\PSoC4/cyfitter_cfg.c **** * Except for the user defined sections in CyClockStartupError(), this file should not be modified.
   9:.\Generated_Source\PSoC4/cyfitter_cfg.c **** * This file is automatically generated by PSoC Creator.
  10:.\Generated_Source\PSoC4/cyfitter_cfg.c **** *
  11:.\Generated_Source\PSoC4/cyfitter_cfg.c **** ********************************************************************************
  12:.\Generated_Source\PSoC4/cyfitter_cfg.c **** * Copyright (c) 2007-2015 Cypress Semiconductor.  All rights reserved.
  13:.\Generated_Source\PSoC4/cyfitter_cfg.c **** * You may use this file only in accordance with the license, terms, conditions, 
  14:.\Generated_Source\PSoC4/cyfitter_cfg.c **** * disclaimers, and limitations in the end user license agreement accompanying 
  15:.\Generated_Source\PSoC4/cyfitter_cfg.c **** * the software package with which this file was provided.
  16:.\Generated_Source\PSoC4/cyfitter_cfg.c **** ********************************************************************************/
  17:.\Generated_Source\PSoC4/cyfitter_cfg.c **** 
  18:.\Generated_Source\PSoC4/cyfitter_cfg.c **** #include <string.h>
  19:.\Generated_Source\PSoC4/cyfitter_cfg.c **** #include "cytypes.h"
  20:.\Generated_Source\PSoC4/cyfitter_cfg.c **** #include "cydevice_trm.h"
  21:.\Generated_Source\PSoC4/cyfitter_cfg.c **** #include "cyfitter.h"
  22:.\Generated_Source\PSoC4/cyfitter_cfg.c **** #include "CyLib.h"
  23:.\Generated_Source\PSoC4/cyfitter_cfg.c **** #include "CyLFClk.h"
  24:.\Generated_Source\PSoC4/cyfitter_cfg.c **** #include "cyfitter_cfg.h"
  25:.\Generated_Source\PSoC4/cyfitter_cfg.c **** 
  26:.\Generated_Source\PSoC4/cyfitter_cfg.c **** 
  27:.\Generated_Source\PSoC4/cyfitter_cfg.c **** #if defined(__GNUC__) || defined(__ARMCC_VERSION)
  28:.\Generated_Source\PSoC4/cyfitter_cfg.c ****     #define CYPACKED 
  29:.\Generated_Source\PSoC4/cyfitter_cfg.c ****     #define CYPACKED_ATTR __attribute__ ((packed))
  30:.\Generated_Source\PSoC4/cyfitter_cfg.c ****     #define CYALIGNED __attribute__ ((aligned))
  31:.\Generated_Source\PSoC4/cyfitter_cfg.c ****     #define CY_CFG_UNUSED __attribute__ ((unused))
  32:.\Generated_Source\PSoC4/cyfitter_cfg.c ****     #ifndef CY_CFG_SECTION
  33:.\Generated_Source\PSoC4/cyfitter_cfg.c ****         #define CY_CFG_SECTION __attribute__ ((section(".psocinit")))
ARM GAS  C:\Users\Tim\AppData\Local\Temp\ccon0omM.s 			page 2


  34:.\Generated_Source\PSoC4/cyfitter_cfg.c ****     #endif
  35:.\Generated_Source\PSoC4/cyfitter_cfg.c ****     
  36:.\Generated_Source\PSoC4/cyfitter_cfg.c ****     #if defined(__ARMCC_VERSION)
  37:.\Generated_Source\PSoC4/cyfitter_cfg.c ****         #define CY_CFG_MEMORY_BARRIER() __memory_changed()
  38:.\Generated_Source\PSoC4/cyfitter_cfg.c ****     #else
  39:.\Generated_Source\PSoC4/cyfitter_cfg.c ****         #define CY_CFG_MEMORY_BARRIER() __sync_synchronize()
  40:.\Generated_Source\PSoC4/cyfitter_cfg.c ****     #endif
  41:.\Generated_Source\PSoC4/cyfitter_cfg.c ****     
  42:.\Generated_Source\PSoC4/cyfitter_cfg.c **** #elif defined(__ICCARM__)
  43:.\Generated_Source\PSoC4/cyfitter_cfg.c ****     #include <intrinsics.h>
  44:.\Generated_Source\PSoC4/cyfitter_cfg.c **** 
  45:.\Generated_Source\PSoC4/cyfitter_cfg.c ****     #define CYPACKED __packed
  46:.\Generated_Source\PSoC4/cyfitter_cfg.c ****     #define CYPACKED_ATTR 
  47:.\Generated_Source\PSoC4/cyfitter_cfg.c ****     #define CYALIGNED _Pragma("data_alignment=4")
  48:.\Generated_Source\PSoC4/cyfitter_cfg.c ****     #define CY_CFG_UNUSED _Pragma("diag_suppress=Pe177")
  49:.\Generated_Source\PSoC4/cyfitter_cfg.c ****     #define CY_CFG_SECTION _Pragma("location=\".psocinit\"")
  50:.\Generated_Source\PSoC4/cyfitter_cfg.c ****     
  51:.\Generated_Source\PSoC4/cyfitter_cfg.c ****     #define CY_CFG_MEMORY_BARRIER() __DMB()
  52:.\Generated_Source\PSoC4/cyfitter_cfg.c ****     
  53:.\Generated_Source\PSoC4/cyfitter_cfg.c **** #else
  54:.\Generated_Source\PSoC4/cyfitter_cfg.c ****     #error Unsupported toolchain
  55:.\Generated_Source\PSoC4/cyfitter_cfg.c **** #endif
  56:.\Generated_Source\PSoC4/cyfitter_cfg.c **** 
  57:.\Generated_Source\PSoC4/cyfitter_cfg.c **** 
  58:.\Generated_Source\PSoC4/cyfitter_cfg.c **** CY_CFG_UNUSED
  59:.\Generated_Source\PSoC4/cyfitter_cfg.c **** static void CYMEMZERO(void *s, size_t n);
  60:.\Generated_Source\PSoC4/cyfitter_cfg.c **** CY_CFG_UNUSED
  61:.\Generated_Source\PSoC4/cyfitter_cfg.c **** static void CYMEMZERO(void *s, size_t n)
  62:.\Generated_Source\PSoC4/cyfitter_cfg.c **** {
  63:.\Generated_Source\PSoC4/cyfitter_cfg.c **** 	(void)memset(s, 0, n);
  64:.\Generated_Source\PSoC4/cyfitter_cfg.c **** }
  65:.\Generated_Source\PSoC4/cyfitter_cfg.c **** CY_CFG_UNUSED
  66:.\Generated_Source\PSoC4/cyfitter_cfg.c **** static void CYCONFIGCPY(void *dest, const void *src, size_t n);
  67:.\Generated_Source\PSoC4/cyfitter_cfg.c **** CY_CFG_UNUSED
  68:.\Generated_Source\PSoC4/cyfitter_cfg.c **** static void CYCONFIGCPY(void *dest, const void *src, size_t n)
  69:.\Generated_Source\PSoC4/cyfitter_cfg.c **** {
  70:.\Generated_Source\PSoC4/cyfitter_cfg.c **** 	(void)memcpy(dest, src, n);
  71:.\Generated_Source\PSoC4/cyfitter_cfg.c **** }
  72:.\Generated_Source\PSoC4/cyfitter_cfg.c **** CY_CFG_UNUSED
  73:.\Generated_Source\PSoC4/cyfitter_cfg.c **** static void CYCONFIGCPYCODE(void *dest, const void *src, size_t n);
  74:.\Generated_Source\PSoC4/cyfitter_cfg.c **** CY_CFG_UNUSED
  75:.\Generated_Source\PSoC4/cyfitter_cfg.c **** static void CYCONFIGCPYCODE(void *dest, const void *src, size_t n)
  76:.\Generated_Source\PSoC4/cyfitter_cfg.c **** {
  77:.\Generated_Source\PSoC4/cyfitter_cfg.c **** 	(void)memcpy(dest, src, n);
  78:.\Generated_Source\PSoC4/cyfitter_cfg.c **** }
  79:.\Generated_Source\PSoC4/cyfitter_cfg.c **** 
  80:.\Generated_Source\PSoC4/cyfitter_cfg.c **** 
  81:.\Generated_Source\PSoC4/cyfitter_cfg.c **** 
  82:.\Generated_Source\PSoC4/cyfitter_cfg.c **** /* Clock startup error codes                                                   */
  83:.\Generated_Source\PSoC4/cyfitter_cfg.c **** #define CYCLOCKSTART_NO_ERROR    0u
  84:.\Generated_Source\PSoC4/cyfitter_cfg.c **** #define CYCLOCKSTART_XTAL_ERROR  1u
  85:.\Generated_Source\PSoC4/cyfitter_cfg.c **** #define CYCLOCKSTART_32KHZ_ERROR 2u
  86:.\Generated_Source\PSoC4/cyfitter_cfg.c **** #define CYCLOCKSTART_PLL_ERROR   3u
  87:.\Generated_Source\PSoC4/cyfitter_cfg.c **** 
  88:.\Generated_Source\PSoC4/cyfitter_cfg.c **** #ifdef CY_NEED_CYCLOCKSTARTUPERROR
  89:.\Generated_Source\PSoC4/cyfitter_cfg.c **** /*******************************************************************************
  90:.\Generated_Source\PSoC4/cyfitter_cfg.c **** * Function Name: CyClockStartupError
ARM GAS  C:\Users\Tim\AppData\Local\Temp\ccon0omM.s 			page 3


  91:.\Generated_Source\PSoC4/cyfitter_cfg.c **** ********************************************************************************
  92:.\Generated_Source\PSoC4/cyfitter_cfg.c **** * Summary:
  93:.\Generated_Source\PSoC4/cyfitter_cfg.c **** *  If an error is encountered during clock configuration (crystal startup error,
  94:.\Generated_Source\PSoC4/cyfitter_cfg.c **** *  PLL lock error, etc.), the system will end up here.  Unless reimplemented by
  95:.\Generated_Source\PSoC4/cyfitter_cfg.c **** *  the customer, this function will stop in an infinite loop.
  96:.\Generated_Source\PSoC4/cyfitter_cfg.c **** *
  97:.\Generated_Source\PSoC4/cyfitter_cfg.c **** * Parameters:
  98:.\Generated_Source\PSoC4/cyfitter_cfg.c **** *   void
  99:.\Generated_Source\PSoC4/cyfitter_cfg.c **** *
 100:.\Generated_Source\PSoC4/cyfitter_cfg.c **** * Return:
 101:.\Generated_Source\PSoC4/cyfitter_cfg.c **** *   void
 102:.\Generated_Source\PSoC4/cyfitter_cfg.c **** *
 103:.\Generated_Source\PSoC4/cyfitter_cfg.c **** *******************************************************************************/
 104:.\Generated_Source\PSoC4/cyfitter_cfg.c **** CY_CFG_UNUSED
 105:.\Generated_Source\PSoC4/cyfitter_cfg.c **** static void CyClockStartupError(uint8 errorCode);
 106:.\Generated_Source\PSoC4/cyfitter_cfg.c **** CY_CFG_UNUSED
 107:.\Generated_Source\PSoC4/cyfitter_cfg.c **** static void CyClockStartupError(uint8 errorCode)
 108:.\Generated_Source\PSoC4/cyfitter_cfg.c **** {
 109:.\Generated_Source\PSoC4/cyfitter_cfg.c ****     /* To remove the compiler warning if errorCode not used.                */
 110:.\Generated_Source\PSoC4/cyfitter_cfg.c ****     errorCode = errorCode;
 111:.\Generated_Source\PSoC4/cyfitter_cfg.c **** 
 112:.\Generated_Source\PSoC4/cyfitter_cfg.c ****     /* `#START CyClockStartupError` */
 113:.\Generated_Source\PSoC4/cyfitter_cfg.c **** 
 114:.\Generated_Source\PSoC4/cyfitter_cfg.c ****     /* If we have a clock startup error (bad MHz crystal, PLL lock, etc.),  */
 115:.\Generated_Source\PSoC4/cyfitter_cfg.c ****     /* we will end up here to allow the customer to implement something to  */
 116:.\Generated_Source\PSoC4/cyfitter_cfg.c ****     /* deal with the clock condition.                                       */
 117:.\Generated_Source\PSoC4/cyfitter_cfg.c **** 
 118:.\Generated_Source\PSoC4/cyfitter_cfg.c ****     /* `#END` */
 119:.\Generated_Source\PSoC4/cyfitter_cfg.c **** 
 120:.\Generated_Source\PSoC4/cyfitter_cfg.c ****     /* If nothing else, stop here since the clocks have not started         */
 121:.\Generated_Source\PSoC4/cyfitter_cfg.c ****     /* correctly.                                                           */
 122:.\Generated_Source\PSoC4/cyfitter_cfg.c ****     while(1) {}
 123:.\Generated_Source\PSoC4/cyfitter_cfg.c **** }
 124:.\Generated_Source\PSoC4/cyfitter_cfg.c **** #endif
 125:.\Generated_Source\PSoC4/cyfitter_cfg.c **** 
 126:.\Generated_Source\PSoC4/cyfitter_cfg.c **** #define CY_CFG_BASE_ADDR_COUNT 10u
 127:.\Generated_Source\PSoC4/cyfitter_cfg.c **** CYPACKED typedef struct
 128:.\Generated_Source\PSoC4/cyfitter_cfg.c **** {
 129:.\Generated_Source\PSoC4/cyfitter_cfg.c **** 	uint8 offset;
 130:.\Generated_Source\PSoC4/cyfitter_cfg.c **** 	uint8 value;
 131:.\Generated_Source\PSoC4/cyfitter_cfg.c **** } CYPACKED_ATTR cy_cfg_addrvalue_t;
 132:.\Generated_Source\PSoC4/cyfitter_cfg.c **** 
 133:.\Generated_Source\PSoC4/cyfitter_cfg.c **** 
 134:.\Generated_Source\PSoC4/cyfitter_cfg.c **** 
 135:.\Generated_Source\PSoC4/cyfitter_cfg.c **** /*******************************************************************************
 136:.\Generated_Source\PSoC4/cyfitter_cfg.c **** * Function Name: cfg_write_bytes32
 137:.\Generated_Source\PSoC4/cyfitter_cfg.c **** ********************************************************************************
 138:.\Generated_Source\PSoC4/cyfitter_cfg.c **** * Summary:
 139:.\Generated_Source\PSoC4/cyfitter_cfg.c **** *  This function is used for setting up the chip configuration areas that
 140:.\Generated_Source\PSoC4/cyfitter_cfg.c **** *  contain relatively sparse data.
 141:.\Generated_Source\PSoC4/cyfitter_cfg.c **** *
 142:.\Generated_Source\PSoC4/cyfitter_cfg.c **** * Parameters:
 143:.\Generated_Source\PSoC4/cyfitter_cfg.c **** *   void
 144:.\Generated_Source\PSoC4/cyfitter_cfg.c **** *
 145:.\Generated_Source\PSoC4/cyfitter_cfg.c **** * Return:
 146:.\Generated_Source\PSoC4/cyfitter_cfg.c **** *   void
 147:.\Generated_Source\PSoC4/cyfitter_cfg.c **** *
ARM GAS  C:\Users\Tim\AppData\Local\Temp\ccon0omM.s 			page 4


 148:.\Generated_Source\PSoC4/cyfitter_cfg.c **** *******************************************************************************/
 149:.\Generated_Source\PSoC4/cyfitter_cfg.c **** static void cfg_write_bytes32(const uint32 addr_table[], const cy_cfg_addrvalue_t data_table[]);
 150:.\Generated_Source\PSoC4/cyfitter_cfg.c **** static void cfg_write_bytes32(const uint32 addr_table[], const cy_cfg_addrvalue_t data_table[])
 151:.\Generated_Source\PSoC4/cyfitter_cfg.c **** {
  25              		.loc 1 151 0
  26              		.cfi_startproc
  27              	.LVL0:
  28 0000 F0B5     		push	{r4, r5, r6, r7, lr}
  29              		.cfi_def_cfa_offset 20
  30              		.cfi_offset 4, -20
  31              		.cfi_offset 5, -16
  32              		.cfi_offset 6, -12
  33              		.cfi_offset 7, -8
  34              		.cfi_offset 14, -4
  35              	.LVL1:
 152:.\Generated_Source\PSoC4/cyfitter_cfg.c **** 	/* For 32-bit little-endian architectures */
 153:.\Generated_Source\PSoC4/cyfitter_cfg.c **** 	uint32 i, j = 0u;
  36              		.loc 1 153 0
  37 0002 0025     		mov	r5, #0
 154:.\Generated_Source\PSoC4/cyfitter_cfg.c **** 	for (i = 0u; i < CY_CFG_BASE_ADDR_COUNT; i++)
  38              		.loc 1 154 0
  39 0004 0027     		mov	r7, #0
  40 0006 11E0     		b	.L2
  41              	.LVL2:
  42              	.L5:
  43              	.LBB2:
 155:.\Generated_Source\PSoC4/cyfitter_cfg.c **** 	{
 156:.\Generated_Source\PSoC4/cyfitter_cfg.c **** 		uint32 baseAddr = addr_table[i];
  44              		.loc 1 156 0
  45 0008 BB00     		lsl	r3, r7, #2
  46 000a C658     		ldr	r6, [r0, r3]
  47              	.LVL3:
 157:.\Generated_Source\PSoC4/cyfitter_cfg.c **** 		uint8 count = (uint8)baseAddr;
  48              		.loc 1 157 0
  49 000c F3B2     		uxtb	r3, r6
  50              	.LVL4:
 158:.\Generated_Source\PSoC4/cyfitter_cfg.c **** 		baseAddr &= 0xFFFFFF00u;
  51              		.loc 1 158 0
  52 000e FF22     		mov	r2, #255
  53 0010 9643     		bic	r6, r2
  54              	.LVL5:
 159:.\Generated_Source\PSoC4/cyfitter_cfg.c **** 		while (count != 0u)
  55              		.loc 1 159 0
  56 0012 08E0     		b	.L3
  57              	.L4:
 160:.\Generated_Source\PSoC4/cyfitter_cfg.c **** 		{
 161:.\Generated_Source\PSoC4/cyfitter_cfg.c **** 			CY_SET_XTND_REG8((void CYFAR *)(baseAddr + data_table[j].offset), data_table[j].value);
  58              		.loc 1 161 0
  59 0014 6A00     		lsl	r2, r5, #1
  60 0016 8A18     		add	r2, r1, r2
  61 0018 1478     		ldrb	r4, [r2]
  62 001a A419     		add	r4, r4, r6
  63 001c 5278     		ldrb	r2, [r2, #1]
  64 001e 2270     		strb	r2, [r4]
 162:.\Generated_Source\PSoC4/cyfitter_cfg.c **** 			j++;
  65              		.loc 1 162 0
  66 0020 0135     		add	r5, r5, #1
ARM GAS  C:\Users\Tim\AppData\Local\Temp\ccon0omM.s 			page 5


  67              	.LVL6:
 163:.\Generated_Source\PSoC4/cyfitter_cfg.c **** 			count--;
  68              		.loc 1 163 0
  69 0022 013B     		sub	r3, r3, #1
  70              	.LVL7:
  71 0024 DBB2     		uxtb	r3, r3
  72              	.LVL8:
  73              	.L3:
 159:.\Generated_Source\PSoC4/cyfitter_cfg.c **** 		{
  74              		.loc 1 159 0
  75 0026 002B     		cmp	r3, #0
  76 0028 F4D1     		bne	.L4
  77              	.LBE2:
 154:.\Generated_Source\PSoC4/cyfitter_cfg.c **** 	{
  78              		.loc 1 154 0 discriminator 2
  79 002a 0137     		add	r7, r7, #1
  80              	.LVL9:
  81              	.L2:
 154:.\Generated_Source\PSoC4/cyfitter_cfg.c **** 	{
  82              		.loc 1 154 0 is_stmt 0 discriminator 1
  83 002c 092F     		cmp	r7, #9
  84 002e EBD9     		bls	.L5
 164:.\Generated_Source\PSoC4/cyfitter_cfg.c **** 		}
 165:.\Generated_Source\PSoC4/cyfitter_cfg.c **** 	}
 166:.\Generated_Source\PSoC4/cyfitter_cfg.c **** }
  85              		.loc 1 166 0 is_stmt 1
  86              		@ sp needed
  87              	.LVL10:
  88              	.LVL11:
  89 0030 F0BD     		pop	{r4, r5, r6, r7, pc}
  90              		.cfi_endproc
  91              	.LFE4:
  92              		.size	cfg_write_bytes32, .-cfg_write_bytes32
  93 0032 C046     		.section	.text.AnalogSetDefault,"ax",%progbits
  94              		.align	2
  95              		.code	16
  96              		.thumb_func
  97              		.type	AnalogSetDefault, %function
  98              	AnalogSetDefault:
  99              	.LFB6:
 167:.\Generated_Source\PSoC4/cyfitter_cfg.c **** 
 168:.\Generated_Source\PSoC4/cyfitter_cfg.c **** 
 169:.\Generated_Source\PSoC4/cyfitter_cfg.c **** /*******************************************************************************
 170:.\Generated_Source\PSoC4/cyfitter_cfg.c **** * Function Name: ClockSetup
 171:.\Generated_Source\PSoC4/cyfitter_cfg.c **** ********************************************************************************
 172:.\Generated_Source\PSoC4/cyfitter_cfg.c **** *
 173:.\Generated_Source\PSoC4/cyfitter_cfg.c **** * Summary:
 174:.\Generated_Source\PSoC4/cyfitter_cfg.c **** *   Performs the initialization of all of the clocks in the device based on the
 175:.\Generated_Source\PSoC4/cyfitter_cfg.c **** *   settings in the Clock tab of the DWR.  This includes enabling the requested
 176:.\Generated_Source\PSoC4/cyfitter_cfg.c **** *   clocks and setting the necessary dividers to produce the desired frequency. 
 177:.\Generated_Source\PSoC4/cyfitter_cfg.c **** *
 178:.\Generated_Source\PSoC4/cyfitter_cfg.c **** * Parameters:
 179:.\Generated_Source\PSoC4/cyfitter_cfg.c **** *   void
 180:.\Generated_Source\PSoC4/cyfitter_cfg.c **** *
 181:.\Generated_Source\PSoC4/cyfitter_cfg.c **** * Return:
 182:.\Generated_Source\PSoC4/cyfitter_cfg.c **** *   void
 183:.\Generated_Source\PSoC4/cyfitter_cfg.c **** *
ARM GAS  C:\Users\Tim\AppData\Local\Temp\ccon0omM.s 			page 6


 184:.\Generated_Source\PSoC4/cyfitter_cfg.c **** *******************************************************************************/
 185:.\Generated_Source\PSoC4/cyfitter_cfg.c **** static void ClockSetup(void);
 186:.\Generated_Source\PSoC4/cyfitter_cfg.c **** CY_CFG_SECTION
 187:.\Generated_Source\PSoC4/cyfitter_cfg.c **** static void ClockSetup(void)
 188:.\Generated_Source\PSoC4/cyfitter_cfg.c **** {
 189:.\Generated_Source\PSoC4/cyfitter_cfg.c **** 
 190:.\Generated_Source\PSoC4/cyfitter_cfg.c **** 	/* Set Flash Cycles based on max possible frequency in case a glitch occurs during ClockSetup(). *
 191:.\Generated_Source\PSoC4/cyfitter_cfg.c **** 	CY_SET_REG32((void CYXDATA *)(CYREG_CPUSS_FLASH_CTL), (0x0012u));
 192:.\Generated_Source\PSoC4/cyfitter_cfg.c **** 	/* Setup and trim IMO based on desired frequency. */
 193:.\Generated_Source\PSoC4/cyfitter_cfg.c **** 	CySysClkWriteImoFreq(48u);
 194:.\Generated_Source\PSoC4/cyfitter_cfg.c **** 	/* CYDEV_CLK_ILO_CONFIG Starting address: CYDEV_CLK_ILO_CONFIG */
 195:.\Generated_Source\PSoC4/cyfitter_cfg.c **** 	CY_SET_XTND_REG32((void CYFAR *)(CYREG_CLK_ILO_CONFIG), 0x80000006u);
 196:.\Generated_Source\PSoC4/cyfitter_cfg.c **** 
 197:.\Generated_Source\PSoC4/cyfitter_cfg.c **** 
 198:.\Generated_Source\PSoC4/cyfitter_cfg.c **** 	/* Setup phase aligned clocks */
 199:.\Generated_Source\PSoC4/cyfitter_cfg.c **** 	CY_SET_REG32((void *)CYREG_PERI_DIV_16_CTL0, 0x00000300u);
 200:.\Generated_Source\PSoC4/cyfitter_cfg.c **** 	CY_SET_REG32((void *)CYREG_PERI_DIV_CMD, 0x8000FF40u);
 201:.\Generated_Source\PSoC4/cyfitter_cfg.c **** 	CY_SET_REG32((void *)CYREG_PERI_DIV_16_CTL6, 0x00002F00u);
 202:.\Generated_Source\PSoC4/cyfitter_cfg.c **** 	CY_SET_REG32((void *)CYREG_PERI_DIV_CMD, 0x8000FF46u);
 203:.\Generated_Source\PSoC4/cyfitter_cfg.c **** 	CY_SET_REG32((void *)CYREG_PERI_DIV_16_CTL5, 0x00002F00u);
 204:.\Generated_Source\PSoC4/cyfitter_cfg.c **** 	CY_SET_REG32((void *)CYREG_PERI_DIV_CMD, 0x8000FF45u);
 205:.\Generated_Source\PSoC4/cyfitter_cfg.c **** 	CY_SET_REG32((void *)CYREG_PERI_DIV_16_CTL4, 0x00002F00u);
 206:.\Generated_Source\PSoC4/cyfitter_cfg.c **** 	CY_SET_REG32((void *)CYREG_PERI_DIV_CMD, 0x8000FF44u);
 207:.\Generated_Source\PSoC4/cyfitter_cfg.c **** 	CY_SET_REG32((void *)CYREG_PERI_DIV_16_CTL1, 0x00001D00u);
 208:.\Generated_Source\PSoC4/cyfitter_cfg.c **** 	CY_SET_REG32((void *)CYREG_PERI_DIV_CMD, 0x8000FF41u);
 209:.\Generated_Source\PSoC4/cyfitter_cfg.c **** 	CY_SET_REG32((void *)CYREG_PERI_DIV_16_CTL2, 0x00001D00u);
 210:.\Generated_Source\PSoC4/cyfitter_cfg.c **** 	CY_SET_REG32((void *)CYREG_PERI_DIV_CMD, 0x8000FF42u);
 211:.\Generated_Source\PSoC4/cyfitter_cfg.c **** 	CY_SET_REG32((void *)CYREG_PERI_DIV_16_CTL3, 0x00002200u);
 212:.\Generated_Source\PSoC4/cyfitter_cfg.c **** 	CY_SET_REG32((void *)CYREG_PERI_DIV_CMD, 0x8000FF43u);
 213:.\Generated_Source\PSoC4/cyfitter_cfg.c **** 
 214:.\Generated_Source\PSoC4/cyfitter_cfg.c **** 	/* CYDEV_CLK_IMO_CONFIG Starting address: CYDEV_CLK_IMO_CONFIG */
 215:.\Generated_Source\PSoC4/cyfitter_cfg.c **** 	CY_SET_XTND_REG32((void CYFAR *)(CYREG_CLK_IMO_CONFIG), 0x82000000u);
 216:.\Generated_Source\PSoC4/cyfitter_cfg.c **** 
 217:.\Generated_Source\PSoC4/cyfitter_cfg.c **** 	/* CYDEV_CLK_SELECT Starting address: CYDEV_CLK_SELECT */
 218:.\Generated_Source\PSoC4/cyfitter_cfg.c **** 	CY_SET_XTND_REG32((void CYFAR *)(CYREG_CLK_SELECT), 0x00040000u);
 219:.\Generated_Source\PSoC4/cyfitter_cfg.c **** 
 220:.\Generated_Source\PSoC4/cyfitter_cfg.c **** 	/* CYDEV_PERI_PCLK_CTL19 Starting address: CYDEV_PERI_PCLK_CTL19 */
 221:.\Generated_Source\PSoC4/cyfitter_cfg.c **** 	CY_SET_XTND_REG32((void CYFAR *)(CYREG_PERI_PCLK_CTL19), 0x00000040u);
 222:.\Generated_Source\PSoC4/cyfitter_cfg.c **** 
 223:.\Generated_Source\PSoC4/cyfitter_cfg.c **** 	/* CYDEV_PERI_PCLK_CTL12 Starting address: CYDEV_PERI_PCLK_CTL12 */
 224:.\Generated_Source\PSoC4/cyfitter_cfg.c **** 	CY_SET_XTND_REG32((void CYFAR *)(CYREG_PERI_PCLK_CTL12), 0x00000046u);
 225:.\Generated_Source\PSoC4/cyfitter_cfg.c **** 
 226:.\Generated_Source\PSoC4/cyfitter_cfg.c **** 	/* CYDEV_PERI_PCLK_CTL11 Starting address: CYDEV_PERI_PCLK_CTL11 */
 227:.\Generated_Source\PSoC4/cyfitter_cfg.c **** 	CY_SET_XTND_REG32((void CYFAR *)(CYREG_PERI_PCLK_CTL11), 0x00000045u);
 228:.\Generated_Source\PSoC4/cyfitter_cfg.c **** 
 229:.\Generated_Source\PSoC4/cyfitter_cfg.c **** 	/* CYDEV_PERI_PCLK_CTL10 Starting address: CYDEV_PERI_PCLK_CTL10 */
 230:.\Generated_Source\PSoC4/cyfitter_cfg.c **** 	CY_SET_XTND_REG32((void CYFAR *)(CYREG_PERI_PCLK_CTL10), 0x00000044u);
 231:.\Generated_Source\PSoC4/cyfitter_cfg.c **** 
 232:.\Generated_Source\PSoC4/cyfitter_cfg.c **** 	/* CYDEV_PERI_PCLK_CTL4 Starting address: CYDEV_PERI_PCLK_CTL4 */
 233:.\Generated_Source\PSoC4/cyfitter_cfg.c **** 	CY_SET_XTND_REG32((void CYFAR *)(CYREG_PERI_PCLK_CTL4), 0x00000041u);
 234:.\Generated_Source\PSoC4/cyfitter_cfg.c **** 
 235:.\Generated_Source\PSoC4/cyfitter_cfg.c **** 	/* CYDEV_PERI_PCLK_CTL3 Starting address: CYDEV_PERI_PCLK_CTL3 */
 236:.\Generated_Source\PSoC4/cyfitter_cfg.c **** 	CY_SET_XTND_REG32((void CYFAR *)(CYREG_PERI_PCLK_CTL3), 0x00000042u);
 237:.\Generated_Source\PSoC4/cyfitter_cfg.c **** 
 238:.\Generated_Source\PSoC4/cyfitter_cfg.c **** 	/* CYDEV_PERI_PCLK_CTL2 Starting address: CYDEV_PERI_PCLK_CTL2 */
 239:.\Generated_Source\PSoC4/cyfitter_cfg.c **** 	CY_SET_XTND_REG32((void CYFAR *)(CYREG_PERI_PCLK_CTL2), 0x00000043u);
 240:.\Generated_Source\PSoC4/cyfitter_cfg.c **** 
ARM GAS  C:\Users\Tim\AppData\Local\Temp\ccon0omM.s 			page 7


 241:.\Generated_Source\PSoC4/cyfitter_cfg.c **** 	(void)CyIntSetVector(7u, &CySysWdtIsr);
 242:.\Generated_Source\PSoC4/cyfitter_cfg.c **** 	CyIntEnable(7u);
 243:.\Generated_Source\PSoC4/cyfitter_cfg.c **** 	CY_SET_XTND_REG32((void CYFAR *)(CYREG_WDT_CONFIG), 0x00000000u);
 244:.\Generated_Source\PSoC4/cyfitter_cfg.c **** }
 245:.\Generated_Source\PSoC4/cyfitter_cfg.c **** 
 246:.\Generated_Source\PSoC4/cyfitter_cfg.c **** 
 247:.\Generated_Source\PSoC4/cyfitter_cfg.c **** /* Analog API Functions */
 248:.\Generated_Source\PSoC4/cyfitter_cfg.c **** 
 249:.\Generated_Source\PSoC4/cyfitter_cfg.c **** 
 250:.\Generated_Source\PSoC4/cyfitter_cfg.c **** /*******************************************************************************
 251:.\Generated_Source\PSoC4/cyfitter_cfg.c **** * Function Name: AnalogSetDefault
 252:.\Generated_Source\PSoC4/cyfitter_cfg.c **** ********************************************************************************
 253:.\Generated_Source\PSoC4/cyfitter_cfg.c **** *
 254:.\Generated_Source\PSoC4/cyfitter_cfg.c **** * Summary:
 255:.\Generated_Source\PSoC4/cyfitter_cfg.c **** *  Sets up the analog portions of the chip to default values based on chip
 256:.\Generated_Source\PSoC4/cyfitter_cfg.c **** *  configuration options from the project.
 257:.\Generated_Source\PSoC4/cyfitter_cfg.c **** *
 258:.\Generated_Source\PSoC4/cyfitter_cfg.c **** * Parameters:
 259:.\Generated_Source\PSoC4/cyfitter_cfg.c **** *  void
 260:.\Generated_Source\PSoC4/cyfitter_cfg.c **** *
 261:.\Generated_Source\PSoC4/cyfitter_cfg.c **** * Return:
 262:.\Generated_Source\PSoC4/cyfitter_cfg.c **** *  void
 263:.\Generated_Source\PSoC4/cyfitter_cfg.c **** *
 264:.\Generated_Source\PSoC4/cyfitter_cfg.c **** *******************************************************************************/
 265:.\Generated_Source\PSoC4/cyfitter_cfg.c **** static void AnalogSetDefault(void);
 266:.\Generated_Source\PSoC4/cyfitter_cfg.c **** static void AnalogSetDefault(void)
 267:.\Generated_Source\PSoC4/cyfitter_cfg.c **** {
 100              		.loc 1 267 0
 101              		.cfi_startproc
 268:.\Generated_Source\PSoC4/cyfitter_cfg.c **** 	CY_SET_XTND_REG32((void CYFAR *)CYREG_CTBM0_DFT_CTRL, 0x00000003u);
 102              		.loc 1 268 0
 103 0000 0323     		mov	r3, #3
 104 0002 084A     		ldr	r2, .L7
 105 0004 1360     		str	r3, [r2]
 269:.\Generated_Source\PSoC4/cyfitter_cfg.c **** 	CY_SET_XTND_REG32((void CYFAR *)CYREG_CTBM1_DFT_CTRL, 0x00000003u);
 106              		.loc 1 269 0
 107 0006 084A     		ldr	r2, .L7+4
 108 0008 1360     		str	r3, [r2]
 270:.\Generated_Source\PSoC4/cyfitter_cfg.c **** 	CY_SET_XTND_REG32((void CYFAR *)CYREG_SAR_CTRL, 0x08000000u);
 109              		.loc 1 270 0
 110 000a 8022     		mov	r2, #128
 111 000c 1205     		lsl	r2, r2, #20
 112 000e 074B     		ldr	r3, .L7+8
 113 0010 1A60     		str	r2, [r3]
 271:.\Generated_Source\PSoC4/cyfitter_cfg.c **** 	CY_SET_XTND_REG32((void CYFAR *)CYREG_SAR_MUX_SWITCH0, 0x00000078u);
 114              		.loc 1 271 0
 115 0012 7823     		mov	r3, #120
 116 0014 064A     		ldr	r2, .L7+12
 117 0016 1360     		str	r3, [r2]
 272:.\Generated_Source\PSoC4/cyfitter_cfg.c **** 	CY_SET_XTND_REG32((void CYFAR *)CYREG_SAR_MUX_SWITCH_HW_CTRL, 0x00000078u);
 118              		.loc 1 272 0
 119 0018 064A     		ldr	r2, .L7+16
 120 001a 1360     		str	r3, [r2]
 273:.\Generated_Source\PSoC4/cyfitter_cfg.c **** 	CY_SET_XTND_REG32((void CYFAR *)CYREG_PASS_DSAB_DSAB_CTRL, 0x00000000u);
 121              		.loc 1 273 0
 122 001c 0022     		mov	r2, #0
 123 001e 064B     		ldr	r3, .L7+20
ARM GAS  C:\Users\Tim\AppData\Local\Temp\ccon0omM.s 			page 8


 124 0020 1A60     		str	r2, [r3]
 274:.\Generated_Source\PSoC4/cyfitter_cfg.c **** 	/* Variable VDDA is selected; no pumps are enabled by default */
 275:.\Generated_Source\PSoC4/cyfitter_cfg.c **** }
 125              		.loc 1 275 0
 126              		@ sp needed
 127 0022 7047     		bx	lr
 128              	.L8:
 129              		.align	2
 130              	.L7:
 131 0024 30003040 		.word	1076887600
 132 0028 30003140 		.word	1076953136
 133 002c 00003A40 		.word	1077542912
 134 0030 00033A40 		.word	1077543680
 135 0034 40033A40 		.word	1077543744
 136 0038 000E3F40 		.word	1077874176
 137              		.cfi_endproc
 138              	.LFE6:
 139              		.size	AnalogSetDefault, .-AnalogSetDefault
 140              		.section	.text.CYMEMZERO,"ax",%progbits
 141              		.align	2
 142              		.code	16
 143              		.thumb_func
 144              		.type	CYMEMZERO, %function
 145              	CYMEMZERO:
 146              	.LFB1:
  62:.\Generated_Source\PSoC4/cyfitter_cfg.c **** 	(void)memset(s, 0, n);
 147              		.loc 1 62 0
 148              		.cfi_startproc
 149              	.LVL12:
 150 0000 08B5     		push	{r3, lr}
 151              		.cfi_def_cfa_offset 8
 152              		.cfi_offset 3, -8
 153              		.cfi_offset 14, -4
 154 0002 0A1C     		mov	r2, r1
  63:.\Generated_Source\PSoC4/cyfitter_cfg.c **** }
 155              		.loc 1 63 0
 156 0004 0021     		mov	r1, #0
 157              	.LVL13:
 158 0006 FFF7FEFF 		bl	memset
 159              	.LVL14:
  64:.\Generated_Source\PSoC4/cyfitter_cfg.c **** CY_CFG_UNUSED
 160              		.loc 1 64 0
 161              		@ sp needed
 162 000a 08BD     		pop	{r3, pc}
 163              		.cfi_endproc
 164              	.LFE1:
 165              		.size	CYMEMZERO, .-CYMEMZERO
 166              		.section	.psocinit,"ax",%progbits
 167              		.align	2
 168              		.code	16
 169              		.thumb_func
 170              		.type	ClockSetup, %function
 171              	ClockSetup:
 172              	.LFB5:
 188:.\Generated_Source\PSoC4/cyfitter_cfg.c **** 
 173              		.loc 1 188 0
 174              		.cfi_startproc
ARM GAS  C:\Users\Tim\AppData\Local\Temp\ccon0omM.s 			page 9


 175 0000 08B5     		push	{r3, lr}
 176              		.cfi_def_cfa_offset 8
 177              		.cfi_offset 3, -8
 178              		.cfi_offset 14, -4
 191:.\Generated_Source\PSoC4/cyfitter_cfg.c **** 	/* Setup and trim IMO based on desired frequency. */
 179              		.loc 1 191 0
 180 0002 1222     		mov	r2, #18
 181 0004 2A4B     		ldr	r3, .L11
 182 0006 1A60     		str	r2, [r3]
 193:.\Generated_Source\PSoC4/cyfitter_cfg.c **** 	/* CYDEV_CLK_ILO_CONFIG Starting address: CYDEV_CLK_ILO_CONFIG */
 183              		.loc 1 193 0
 184 0008 3020     		mov	r0, #48
 185 000a FFF7FEFF 		bl	CySysClkWriteImoFreq
 186              	.LVL15:
 195:.\Generated_Source\PSoC4/cyfitter_cfg.c **** 
 187              		.loc 1 195 0
 188 000e 294A     		ldr	r2, .L11+4
 189 0010 294B     		ldr	r3, .L11+8
 190 0012 1A60     		str	r2, [r3]
 199:.\Generated_Source\PSoC4/cyfitter_cfg.c **** 	CY_SET_REG32((void *)CYREG_PERI_DIV_CMD, 0x8000FF40u);
 191              		.loc 1 199 0
 192 0014 C022     		mov	r2, #192
 193 0016 9200     		lsl	r2, r2, #2
 194 0018 284B     		ldr	r3, .L11+12
 195 001a 1A60     		str	r2, [r3]
 200:.\Generated_Source\PSoC4/cyfitter_cfg.c **** 	CY_SET_REG32((void *)CYREG_PERI_DIV_16_CTL6, 0x00002F00u);
 196              		.loc 1 200 0
 197 001c 284B     		ldr	r3, .L11+16
 198 001e 294A     		ldr	r2, .L11+20
 199 0020 1A60     		str	r2, [r3]
 201:.\Generated_Source\PSoC4/cyfitter_cfg.c **** 	CY_SET_REG32((void *)CYREG_PERI_DIV_CMD, 0x8000FF46u);
 200              		.loc 1 201 0
 201 0022 BC22     		mov	r2, #188
 202 0024 9201     		lsl	r2, r2, #6
 203 0026 2849     		ldr	r1, .L11+24
 204 0028 0A60     		str	r2, [r1]
 202:.\Generated_Source\PSoC4/cyfitter_cfg.c **** 	CY_SET_REG32((void *)CYREG_PERI_DIV_16_CTL5, 0x00002F00u);
 205              		.loc 1 202 0
 206 002a 2849     		ldr	r1, .L11+28
 207 002c 1960     		str	r1, [r3]
 203:.\Generated_Source\PSoC4/cyfitter_cfg.c **** 	CY_SET_REG32((void *)CYREG_PERI_DIV_CMD, 0x8000FF45u);
 208              		.loc 1 203 0
 209 002e 2849     		ldr	r1, .L11+32
 210 0030 0A60     		str	r2, [r1]
 204:.\Generated_Source\PSoC4/cyfitter_cfg.c **** 	CY_SET_REG32((void *)CYREG_PERI_DIV_16_CTL4, 0x00002F00u);
 211              		.loc 1 204 0
 212 0032 2849     		ldr	r1, .L11+36
 213 0034 1960     		str	r1, [r3]
 205:.\Generated_Source\PSoC4/cyfitter_cfg.c **** 	CY_SET_REG32((void *)CYREG_PERI_DIV_CMD, 0x8000FF44u);
 214              		.loc 1 205 0
 215 0036 2849     		ldr	r1, .L11+40
 216 0038 0A60     		str	r2, [r1]
 206:.\Generated_Source\PSoC4/cyfitter_cfg.c **** 	CY_SET_REG32((void *)CYREG_PERI_DIV_16_CTL1, 0x00001D00u);
 217              		.loc 1 206 0
 218 003a 284A     		ldr	r2, .L11+44
 219 003c 1A60     		str	r2, [r3]
 207:.\Generated_Source\PSoC4/cyfitter_cfg.c **** 	CY_SET_REG32((void *)CYREG_PERI_DIV_CMD, 0x8000FF41u);
ARM GAS  C:\Users\Tim\AppData\Local\Temp\ccon0omM.s 			page 10


 220              		.loc 1 207 0
 221 003e E822     		mov	r2, #232
 222 0040 5201     		lsl	r2, r2, #5
 223 0042 2749     		ldr	r1, .L11+48
 224 0044 0A60     		str	r2, [r1]
 208:.\Generated_Source\PSoC4/cyfitter_cfg.c **** 	CY_SET_REG32((void *)CYREG_PERI_DIV_16_CTL2, 0x00001D00u);
 225              		.loc 1 208 0
 226 0046 2749     		ldr	r1, .L11+52
 227 0048 1960     		str	r1, [r3]
 209:.\Generated_Source\PSoC4/cyfitter_cfg.c **** 	CY_SET_REG32((void *)CYREG_PERI_DIV_CMD, 0x8000FF42u);
 228              		.loc 1 209 0
 229 004a 2749     		ldr	r1, .L11+56
 230 004c 0A60     		str	r2, [r1]
 210:.\Generated_Source\PSoC4/cyfitter_cfg.c **** 	CY_SET_REG32((void *)CYREG_PERI_DIV_16_CTL3, 0x00002200u);
 231              		.loc 1 210 0
 232 004e 274A     		ldr	r2, .L11+60
 233 0050 1A60     		str	r2, [r3]
 211:.\Generated_Source\PSoC4/cyfitter_cfg.c **** 	CY_SET_REG32((void *)CYREG_PERI_DIV_CMD, 0x8000FF43u);
 234              		.loc 1 211 0
 235 0052 8821     		mov	r1, #136
 236 0054 8901     		lsl	r1, r1, #6
 237 0056 264A     		ldr	r2, .L11+64
 238 0058 1160     		str	r1, [r2]
 212:.\Generated_Source\PSoC4/cyfitter_cfg.c **** 
 239              		.loc 1 212 0
 240 005a 264A     		ldr	r2, .L11+68
 241 005c 1A60     		str	r2, [r3]
 215:.\Generated_Source\PSoC4/cyfitter_cfg.c **** 
 242              		.loc 1 215 0
 243 005e 8222     		mov	r2, #130
 244 0060 1206     		lsl	r2, r2, #24
 245 0062 254B     		ldr	r3, .L11+72
 246 0064 1A60     		str	r2, [r3]
 218:.\Generated_Source\PSoC4/cyfitter_cfg.c **** 
 247              		.loc 1 218 0
 248 0066 8022     		mov	r2, #128
 249 0068 D202     		lsl	r2, r2, #11
 250 006a 244B     		ldr	r3, .L11+76
 251 006c 1A60     		str	r2, [r3]
 221:.\Generated_Source\PSoC4/cyfitter_cfg.c **** 
 252              		.loc 1 221 0
 253 006e 4022     		mov	r2, #64
 254 0070 234B     		ldr	r3, .L11+80
 255 0072 1A60     		str	r2, [r3]
 224:.\Generated_Source\PSoC4/cyfitter_cfg.c **** 
 256              		.loc 1 224 0
 257 0074 0632     		add	r2, r2, #6
 258 0076 234B     		ldr	r3, .L11+84
 259 0078 1A60     		str	r2, [r3]
 227:.\Generated_Source\PSoC4/cyfitter_cfg.c **** 
 260              		.loc 1 227 0
 261 007a 013A     		sub	r2, r2, #1
 262 007c 224B     		ldr	r3, .L11+88
 263 007e 1A60     		str	r2, [r3]
 230:.\Generated_Source\PSoC4/cyfitter_cfg.c **** 
 264              		.loc 1 230 0
 265 0080 013A     		sub	r2, r2, #1
ARM GAS  C:\Users\Tim\AppData\Local\Temp\ccon0omM.s 			page 11


 266 0082 224B     		ldr	r3, .L11+92
 267 0084 1A60     		str	r2, [r3]
 233:.\Generated_Source\PSoC4/cyfitter_cfg.c **** 
 268              		.loc 1 233 0
 269 0086 033A     		sub	r2, r2, #3
 270 0088 214B     		ldr	r3, .L11+96
 271 008a 1A60     		str	r2, [r3]
 236:.\Generated_Source\PSoC4/cyfitter_cfg.c **** 
 272              		.loc 1 236 0
 273 008c 0132     		add	r2, r2, #1
 274 008e 214B     		ldr	r3, .L11+100
 275 0090 1A60     		str	r2, [r3]
 239:.\Generated_Source\PSoC4/cyfitter_cfg.c **** 
 276              		.loc 1 239 0
 277 0092 0132     		add	r2, r2, #1
 278 0094 204B     		ldr	r3, .L11+104
 279 0096 1A60     		str	r2, [r3]
 241:.\Generated_Source\PSoC4/cyfitter_cfg.c **** 	CyIntEnable(7u);
 280              		.loc 1 241 0
 281 0098 0720     		mov	r0, #7
 282 009a 2049     		ldr	r1, .L11+108
 283 009c FFF7FEFF 		bl	CyIntSetVector
 284              	.LVL16:
 242:.\Generated_Source\PSoC4/cyfitter_cfg.c **** 	CY_SET_XTND_REG32((void CYFAR *)(CYREG_WDT_CONFIG), 0x00000000u);
 285              		.loc 1 242 0
 286 00a0 0720     		mov	r0, #7
 287 00a2 FFF7FEFF 		bl	CyIntEnable
 288              	.LVL17:
 243:.\Generated_Source\PSoC4/cyfitter_cfg.c **** }
 289              		.loc 1 243 0
 290 00a6 0022     		mov	r2, #0
 291 00a8 1D4B     		ldr	r3, .L11+112
 292 00aa 1A60     		str	r2, [r3]
 244:.\Generated_Source\PSoC4/cyfitter_cfg.c **** 
 293              		.loc 1 244 0
 294              		@ sp needed
 295 00ac 08BD     		pop	{r3, pc}
 296              	.L12:
 297 00ae C046     		.align	2
 298              	.L11:
 299 00b0 30001040 		.word	1074790448
 300 00b4 06000080 		.word	-2147483642
 301 00b8 04010B40 		.word	1074462980
 302 00bc 00030140 		.word	1073808128
 303 00c0 00000140 		.word	1073807360
 304 00c4 40FF0080 		.word	-2147418304
 305 00c8 18030140 		.word	1073808152
 306 00cc 46FF0080 		.word	-2147418298
 307 00d0 14030140 		.word	1073808148
 308 00d4 45FF0080 		.word	-2147418299
 309 00d8 10030140 		.word	1073808144
 310 00dc 44FF0080 		.word	-2147418300
 311 00e0 04030140 		.word	1073808132
 312 00e4 41FF0080 		.word	-2147418303
 313 00e8 08030140 		.word	1073808136
 314 00ec 42FF0080 		.word	-2147418302
 315 00f0 0C030140 		.word	1073808140
ARM GAS  C:\Users\Tim\AppData\Local\Temp\ccon0omM.s 			page 12


 316 00f4 43FF0080 		.word	-2147418301
 317 00f8 08010B40 		.word	1074462984
 318 00fc 00010B40 		.word	1074462976
 319 0100 4C010140 		.word	1073807692
 320 0104 30010140 		.word	1073807664
 321 0108 2C010140 		.word	1073807660
 322 010c 28010140 		.word	1073807656
 323 0110 10010140 		.word	1073807632
 324 0114 0C010140 		.word	1073807628
 325 0118 08010140 		.word	1073807624
 326 011c 00000000 		.word	CySysWdtIsr
 327 0120 0C020B40 		.word	1074463244
 328              		.cfi_endproc
 329              	.LFE5:
 330              		.size	ClockSetup, .-ClockSetup
 331              		.section	.text.SetAnalogRoutingPumps,"ax",%progbits
 332              		.align	2
 333              		.global	SetAnalogRoutingPumps
 334              		.code	16
 335              		.thumb_func
 336              		.type	SetAnalogRoutingPumps, %function
 337              	SetAnalogRoutingPumps:
 338              	.LFB7:
 276:.\Generated_Source\PSoC4/cyfitter_cfg.c **** 
 277:.\Generated_Source\PSoC4/cyfitter_cfg.c **** 
 278:.\Generated_Source\PSoC4/cyfitter_cfg.c **** /*******************************************************************************
 279:.\Generated_Source\PSoC4/cyfitter_cfg.c **** * Function Name: SetAnalogRoutingPumps
 280:.\Generated_Source\PSoC4/cyfitter_cfg.c **** ********************************************************************************
 281:.\Generated_Source\PSoC4/cyfitter_cfg.c **** *
 282:.\Generated_Source\PSoC4/cyfitter_cfg.c **** * Summary:
 283:.\Generated_Source\PSoC4/cyfitter_cfg.c **** * Enables or disables the analog pumps feeding analog routing switches.
 284:.\Generated_Source\PSoC4/cyfitter_cfg.c **** * Intended to be called at startup, based on the Vdda system configuration;
 285:.\Generated_Source\PSoC4/cyfitter_cfg.c **** * may be called during operation when the user informs us that the Vdda voltage crossed the pump th
 286:.\Generated_Source\PSoC4/cyfitter_cfg.c **** *
 287:.\Generated_Source\PSoC4/cyfitter_cfg.c **** * Parameters:
 288:.\Generated_Source\PSoC4/cyfitter_cfg.c **** *  enabled - 1 to enable the pumps, 0 to disable the pumps
 289:.\Generated_Source\PSoC4/cyfitter_cfg.c **** *
 290:.\Generated_Source\PSoC4/cyfitter_cfg.c **** * Return:
 291:.\Generated_Source\PSoC4/cyfitter_cfg.c **** *  void
 292:.\Generated_Source\PSoC4/cyfitter_cfg.c **** *
 293:.\Generated_Source\PSoC4/cyfitter_cfg.c **** *******************************************************************************/
 294:.\Generated_Source\PSoC4/cyfitter_cfg.c **** void SetAnalogRoutingPumps(uint8 enabled)
 295:.\Generated_Source\PSoC4/cyfitter_cfg.c **** {
 339              		.loc 1 295 0
 340              		.cfi_startproc
 341              	.LVL18:
 296:.\Generated_Source\PSoC4/cyfitter_cfg.c **** 	uint32 regValue = CY_GET_XTND_REG32((void *)(CYREG_SAR_PUMP_CTRL));
 342              		.loc 1 296 0
 343 0000 064B     		ldr	r3, .L16
 344 0002 1B68     		ldr	r3, [r3]
 345              	.LVL19:
 297:.\Generated_Source\PSoC4/cyfitter_cfg.c **** 	if (enabled != 0u)
 346              		.loc 1 297 0
 347 0004 0028     		cmp	r0, #0
 348 0006 03D0     		beq	.L14
 298:.\Generated_Source\PSoC4/cyfitter_cfg.c **** 	{
 299:.\Generated_Source\PSoC4/cyfitter_cfg.c **** 		regValue |= 0x80000000u;
ARM GAS  C:\Users\Tim\AppData\Local\Temp\ccon0omM.s 			page 13


 349              		.loc 1 299 0
 350 0008 8022     		mov	r2, #128
 351 000a 1206     		lsl	r2, r2, #24
 352 000c 1343     		orr	r3, r2
 353              	.LVL20:
 354 000e 01E0     		b	.L15
 355              	.L14:
 300:.\Generated_Source\PSoC4/cyfitter_cfg.c **** 	}
 301:.\Generated_Source\PSoC4/cyfitter_cfg.c **** 	else
 302:.\Generated_Source\PSoC4/cyfitter_cfg.c **** 	{
 303:.\Generated_Source\PSoC4/cyfitter_cfg.c **** 		regValue &= ~0x80000000u;
 356              		.loc 1 303 0
 357 0010 5B00     		lsl	r3, r3, #1
 358              	.LVL21:
 359 0012 5B08     		lsr	r3, r3, #1
 360              	.LVL22:
 361              	.L15:
 304:.\Generated_Source\PSoC4/cyfitter_cfg.c **** 	}
 305:.\Generated_Source\PSoC4/cyfitter_cfg.c **** 	CY_SET_XTND_REG32((void *)(CYREG_SAR_PUMP_CTRL), regValue);
 362              		.loc 1 305 0
 363 0014 014A     		ldr	r2, .L16
 364 0016 1360     		str	r3, [r2]
 306:.\Generated_Source\PSoC4/cyfitter_cfg.c **** }
 365              		.loc 1 306 0
 366              		@ sp needed
 367 0018 7047     		bx	lr
 368              	.L17:
 369 001a C046     		.align	2
 370              	.L16:
 371 001c 80033A40 		.word	1077543808
 372              		.cfi_endproc
 373              	.LFE7:
 374              		.size	SetAnalogRoutingPumps, .-SetAnalogRoutingPumps
 375              		.section	.psocinit
 376              		.align	2
 377              		.global	cyfitter_cfg
 378              		.code	16
 379              		.thumb_func
 380              		.type	cyfitter_cfg, %function
 381              	cyfitter_cfg:
 382              	.LFB8:
 307:.\Generated_Source\PSoC4/cyfitter_cfg.c **** 
 308:.\Generated_Source\PSoC4/cyfitter_cfg.c **** #define CY_AMUX_UNUSED CYREG_CM0_ROM_DWT
 309:.\Generated_Source\PSoC4/cyfitter_cfg.c **** 
 310:.\Generated_Source\PSoC4/cyfitter_cfg.c **** 
 311:.\Generated_Source\PSoC4/cyfitter_cfg.c **** /*******************************************************************************
 312:.\Generated_Source\PSoC4/cyfitter_cfg.c **** * Function Name: cyfitter_cfg
 313:.\Generated_Source\PSoC4/cyfitter_cfg.c **** ********************************************************************************
 314:.\Generated_Source\PSoC4/cyfitter_cfg.c **** * Summary:
 315:.\Generated_Source\PSoC4/cyfitter_cfg.c **** *  This function is called by the start-up code for the selected device. It
 316:.\Generated_Source\PSoC4/cyfitter_cfg.c **** *  performs all of the necessary device configuration based on the design
 317:.\Generated_Source\PSoC4/cyfitter_cfg.c **** *  settings.  This includes settings from the Design Wide Resources (DWR) such
 318:.\Generated_Source\PSoC4/cyfitter_cfg.c **** *  as Clocks and Pins as well as any component configuration that is necessary.
 319:.\Generated_Source\PSoC4/cyfitter_cfg.c **** *
 320:.\Generated_Source\PSoC4/cyfitter_cfg.c **** * Parameters:  
 321:.\Generated_Source\PSoC4/cyfitter_cfg.c **** *   void
 322:.\Generated_Source\PSoC4/cyfitter_cfg.c **** *
ARM GAS  C:\Users\Tim\AppData\Local\Temp\ccon0omM.s 			page 14


 323:.\Generated_Source\PSoC4/cyfitter_cfg.c **** * Return:
 324:.\Generated_Source\PSoC4/cyfitter_cfg.c **** *   void
 325:.\Generated_Source\PSoC4/cyfitter_cfg.c **** *
 326:.\Generated_Source\PSoC4/cyfitter_cfg.c **** *******************************************************************************/
 327:.\Generated_Source\PSoC4/cyfitter_cfg.c **** CY_CFG_SECTION
 328:.\Generated_Source\PSoC4/cyfitter_cfg.c **** void cyfitter_cfg(void)
 329:.\Generated_Source\PSoC4/cyfitter_cfg.c **** {
 383              		.loc 1 329 0
 384              		.cfi_startproc
 385 0124 10B5     		push	{r4, lr}
 386              		.cfi_def_cfa_offset 8
 387              		.cfi_offset 4, -8
 388              		.cfi_offset 14, -4
 330:.\Generated_Source\PSoC4/cyfitter_cfg.c **** 	/* Disable interrupts by default. Let user enable if/when they want. */
 331:.\Generated_Source\PSoC4/cyfitter_cfg.c **** 	CyGlobalIntDisable;
 389              		.loc 1 331 0
 390              	@ 331 ".\Generated_Source\PSoC4\cyfitter_cfg.c" 1
 391 0126 72B6     		CPSID   i
 392              	@ 0 "" 2
 332:.\Generated_Source\PSoC4/cyfitter_cfg.c **** 
 333:.\Generated_Source\PSoC4/cyfitter_cfg.c **** 	/* Enable the clock in the interrupt controller for the routed interrupts */
 334:.\Generated_Source\PSoC4/cyfitter_cfg.c **** 	CY_SET_REG8((void *)CYREG_UDB_UDBIF_INT_CLK_CTL, 0x01u);
 393              		.loc 1 334 0
 394              		.code	16
 395 0128 0122     		mov	r2, #1
 396 012a 444B     		ldr	r3, .L21
 397 012c 1A70     		strb	r2, [r3]
 398              	.LVL23:
 399              	.LBB3:
 335:.\Generated_Source\PSoC4/cyfitter_cfg.c **** 	{
 336:.\Generated_Source\PSoC4/cyfitter_cfg.c **** 		static const uint32 CYCODE cy_cfg_addr_table[] = {
 337:.\Generated_Source\PSoC4/cyfitter_cfg.c **** 			0x400F0001u, /* Base address: 0x400F0000 Count: 1 */
 338:.\Generated_Source\PSoC4/cyfitter_cfg.c **** 			0x400F3053u, /* Base address: 0x400F3000 Count: 83 */
 339:.\Generated_Source\PSoC4/cyfitter_cfg.c **** 			0x400F3130u, /* Base address: 0x400F3100 Count: 48 */
 340:.\Generated_Source\PSoC4/cyfitter_cfg.c **** 			0x400F3241u, /* Base address: 0x400F3200 Count: 65 */
 341:.\Generated_Source\PSoC4/cyfitter_cfg.c **** 			0x400F3328u, /* Base address: 0x400F3300 Count: 40 */
 342:.\Generated_Source\PSoC4/cyfitter_cfg.c **** 			0x400F4013u, /* Base address: 0x400F4000 Count: 19 */
 343:.\Generated_Source\PSoC4/cyfitter_cfg.c **** 			0x400F410Au, /* Base address: 0x400F4100 Count: 10 */
 344:.\Generated_Source\PSoC4/cyfitter_cfg.c **** 			0x400F4201u, /* Base address: 0x400F4200 Count: 1 */
 345:.\Generated_Source\PSoC4/cyfitter_cfg.c **** 			0x400F4307u, /* Base address: 0x400F4300 Count: 7 */
 346:.\Generated_Source\PSoC4/cyfitter_cfg.c **** 			0x400F6002u, /* Base address: 0x400F6000 Count: 2 */
 347:.\Generated_Source\PSoC4/cyfitter_cfg.c **** 		};
 348:.\Generated_Source\PSoC4/cyfitter_cfg.c **** 
 349:.\Generated_Source\PSoC4/cyfitter_cfg.c **** 		static const cy_cfg_addrvalue_t CYCODE cy_cfg_data_table[] = {
 350:.\Generated_Source\PSoC4/cyfitter_cfg.c **** 			{0x83u, 0x6Fu},
 351:.\Generated_Source\PSoC4/cyfitter_cfg.c **** 			{0x00u, 0x0Cu},
 352:.\Generated_Source\PSoC4/cyfitter_cfg.c **** 			{0x02u, 0x30u},
 353:.\Generated_Source\PSoC4/cyfitter_cfg.c **** 			{0x0Cu, 0x01u},
 354:.\Generated_Source\PSoC4/cyfitter_cfg.c **** 			{0x10u, 0x28u},
 355:.\Generated_Source\PSoC4/cyfitter_cfg.c **** 			{0x11u, 0x55u},
 356:.\Generated_Source\PSoC4/cyfitter_cfg.c **** 			{0x12u, 0x54u},
 357:.\Generated_Source\PSoC4/cyfitter_cfg.c **** 			{0x13u, 0xAAu},
 358:.\Generated_Source\PSoC4/cyfitter_cfg.c **** 			{0x14u, 0x14u},
 359:.\Generated_Source\PSoC4/cyfitter_cfg.c **** 			{0x16u, 0x28u},
 360:.\Generated_Source\PSoC4/cyfitter_cfg.c **** 			{0x19u, 0x33u},
 361:.\Generated_Source\PSoC4/cyfitter_cfg.c **** 			{0x1Au, 0x03u},
 362:.\Generated_Source\PSoC4/cyfitter_cfg.c **** 			{0x1Bu, 0xCCu},
ARM GAS  C:\Users\Tim\AppData\Local\Temp\ccon0omM.s 			page 15


 363:.\Generated_Source\PSoC4/cyfitter_cfg.c **** 			{0x1Du, 0x96u},
 364:.\Generated_Source\PSoC4/cyfitter_cfg.c **** 			{0x1Fu, 0x69u},
 365:.\Generated_Source\PSoC4/cyfitter_cfg.c **** 			{0x24u, 0x0Cu},
 366:.\Generated_Source\PSoC4/cyfitter_cfg.c **** 			{0x25u, 0x0Fu},
 367:.\Generated_Source\PSoC4/cyfitter_cfg.c **** 			{0x26u, 0x30u},
 368:.\Generated_Source\PSoC4/cyfitter_cfg.c **** 			{0x27u, 0xF0u},
 369:.\Generated_Source\PSoC4/cyfitter_cfg.c **** 			{0x30u, 0x02u},
 370:.\Generated_Source\PSoC4/cyfitter_cfg.c **** 			{0x32u, 0x40u},
 371:.\Generated_Source\PSoC4/cyfitter_cfg.c **** 			{0x34u, 0x3Cu},
 372:.\Generated_Source\PSoC4/cyfitter_cfg.c **** 			{0x35u, 0xFFu},
 373:.\Generated_Source\PSoC4/cyfitter_cfg.c **** 			{0x36u, 0x01u},
 374:.\Generated_Source\PSoC4/cyfitter_cfg.c **** 			{0x3Eu, 0x40u},
 375:.\Generated_Source\PSoC4/cyfitter_cfg.c **** 			{0x40u, 0x10u},
 376:.\Generated_Source\PSoC4/cyfitter_cfg.c **** 			{0x41u, 0x02u},
 377:.\Generated_Source\PSoC4/cyfitter_cfg.c **** 			{0x49u, 0xFFu},
 378:.\Generated_Source\PSoC4/cyfitter_cfg.c **** 			{0x4Au, 0xFFu},
 379:.\Generated_Source\PSoC4/cyfitter_cfg.c **** 			{0x4Bu, 0xFFu},
 380:.\Generated_Source\PSoC4/cyfitter_cfg.c **** 			{0x4Du, 0xA0u},
 381:.\Generated_Source\PSoC4/cyfitter_cfg.c **** 			{0x4Fu, 0x01u},
 382:.\Generated_Source\PSoC4/cyfitter_cfg.c **** 			{0x50u, 0x18u},
 383:.\Generated_Source\PSoC4/cyfitter_cfg.c **** 			{0x58u, 0x04u},
 384:.\Generated_Source\PSoC4/cyfitter_cfg.c **** 			{0x59u, 0x04u},
 385:.\Generated_Source\PSoC4/cyfitter_cfg.c **** 			{0x5Au, 0x04u},
 386:.\Generated_Source\PSoC4/cyfitter_cfg.c **** 			{0x5Fu, 0x01u},
 387:.\Generated_Source\PSoC4/cyfitter_cfg.c **** 			{0x60u, 0x40u},
 388:.\Generated_Source\PSoC4/cyfitter_cfg.c **** 			{0x62u, 0x80u},
 389:.\Generated_Source\PSoC4/cyfitter_cfg.c **** 			{0x64u, 0x40u},
 390:.\Generated_Source\PSoC4/cyfitter_cfg.c **** 			{0x65u, 0x40u},
 391:.\Generated_Source\PSoC4/cyfitter_cfg.c **** 			{0x66u, 0x80u},
 392:.\Generated_Source\PSoC4/cyfitter_cfg.c **** 			{0x68u, 0x40u},
 393:.\Generated_Source\PSoC4/cyfitter_cfg.c **** 			{0x6Au, 0x80u},
 394:.\Generated_Source\PSoC4/cyfitter_cfg.c **** 			{0x6Cu, 0x40u},
 395:.\Generated_Source\PSoC4/cyfitter_cfg.c **** 			{0x6Du, 0x20u},
 396:.\Generated_Source\PSoC4/cyfitter_cfg.c **** 			{0x6Eu, 0x80u},
 397:.\Generated_Source\PSoC4/cyfitter_cfg.c **** 			{0x82u, 0x10u},
 398:.\Generated_Source\PSoC4/cyfitter_cfg.c **** 			{0x86u, 0x04u},
 399:.\Generated_Source\PSoC4/cyfitter_cfg.c **** 			{0x9Eu, 0x01u},
 400:.\Generated_Source\PSoC4/cyfitter_cfg.c **** 			{0xA2u, 0x02u},
 401:.\Generated_Source\PSoC4/cyfitter_cfg.c **** 			{0xA4u, 0x09u},
 402:.\Generated_Source\PSoC4/cyfitter_cfg.c **** 			{0xA6u, 0x06u},
 403:.\Generated_Source\PSoC4/cyfitter_cfg.c **** 			{0xAAu, 0x08u},
 404:.\Generated_Source\PSoC4/cyfitter_cfg.c **** 			{0xACu, 0x05u},
 405:.\Generated_Source\PSoC4/cyfitter_cfg.c **** 			{0xAEu, 0x0Au},
 406:.\Generated_Source\PSoC4/cyfitter_cfg.c **** 			{0xB2u, 0x0Fu},
 407:.\Generated_Source\PSoC4/cyfitter_cfg.c **** 			{0xB4u, 0x10u},
 408:.\Generated_Source\PSoC4/cyfitter_cfg.c **** 			{0xBDu, 0x04u},
 409:.\Generated_Source\PSoC4/cyfitter_cfg.c **** 			{0xBEu, 0x04u},
 410:.\Generated_Source\PSoC4/cyfitter_cfg.c **** 			{0xC0u, 0x50u},
 411:.\Generated_Source\PSoC4/cyfitter_cfg.c **** 			{0xC1u, 0x06u},
 412:.\Generated_Source\PSoC4/cyfitter_cfg.c **** 			{0xC9u, 0xFFu},
 413:.\Generated_Source\PSoC4/cyfitter_cfg.c **** 			{0xCAu, 0xFFu},
 414:.\Generated_Source\PSoC4/cyfitter_cfg.c **** 			{0xCBu, 0xFFu},
 415:.\Generated_Source\PSoC4/cyfitter_cfg.c **** 			{0xCDu, 0xAFu},
 416:.\Generated_Source\PSoC4/cyfitter_cfg.c **** 			{0xCEu, 0x07u},
 417:.\Generated_Source\PSoC4/cyfitter_cfg.c **** 			{0xCFu, 0x01u},
 418:.\Generated_Source\PSoC4/cyfitter_cfg.c **** 			{0xD0u, 0x18u},
 419:.\Generated_Source\PSoC4/cyfitter_cfg.c **** 			{0xD8u, 0x04u},
ARM GAS  C:\Users\Tim\AppData\Local\Temp\ccon0omM.s 			page 16


 420:.\Generated_Source\PSoC4/cyfitter_cfg.c **** 			{0xD9u, 0x04u},
 421:.\Generated_Source\PSoC4/cyfitter_cfg.c **** 			{0xDAu, 0x04u},
 422:.\Generated_Source\PSoC4/cyfitter_cfg.c **** 			{0xDBu, 0x04u},
 423:.\Generated_Source\PSoC4/cyfitter_cfg.c **** 			{0xDFu, 0x01u},
 424:.\Generated_Source\PSoC4/cyfitter_cfg.c **** 			{0xE0u, 0x40u},
 425:.\Generated_Source\PSoC4/cyfitter_cfg.c **** 			{0xE2u, 0x80u},
 426:.\Generated_Source\PSoC4/cyfitter_cfg.c **** 			{0xE4u, 0x40u},
 427:.\Generated_Source\PSoC4/cyfitter_cfg.c **** 			{0xE5u, 0x40u},
 428:.\Generated_Source\PSoC4/cyfitter_cfg.c **** 			{0xE6u, 0x80u},
 429:.\Generated_Source\PSoC4/cyfitter_cfg.c **** 			{0xE8u, 0x40u},
 430:.\Generated_Source\PSoC4/cyfitter_cfg.c **** 			{0xEAu, 0x80u},
 431:.\Generated_Source\PSoC4/cyfitter_cfg.c **** 			{0xECu, 0x40u},
 432:.\Generated_Source\PSoC4/cyfitter_cfg.c **** 			{0xEDu, 0x20u},
 433:.\Generated_Source\PSoC4/cyfitter_cfg.c **** 			{0xEEu, 0x80u},
 434:.\Generated_Source\PSoC4/cyfitter_cfg.c **** 			{0x00u, 0x40u},
 435:.\Generated_Source\PSoC4/cyfitter_cfg.c **** 			{0x02u, 0x80u},
 436:.\Generated_Source\PSoC4/cyfitter_cfg.c **** 			{0x05u, 0x02u},
 437:.\Generated_Source\PSoC4/cyfitter_cfg.c **** 			{0x06u, 0x20u},
 438:.\Generated_Source\PSoC4/cyfitter_cfg.c **** 			{0x09u, 0x22u},
 439:.\Generated_Source\PSoC4/cyfitter_cfg.c **** 			{0x0Bu, 0x20u},
 440:.\Generated_Source\PSoC4/cyfitter_cfg.c **** 			{0x0Du, 0x80u},
 441:.\Generated_Source\PSoC4/cyfitter_cfg.c **** 			{0x10u, 0x10u},
 442:.\Generated_Source\PSoC4/cyfitter_cfg.c **** 			{0x14u, 0x80u},
 443:.\Generated_Source\PSoC4/cyfitter_cfg.c **** 			{0x15u, 0x40u},
 444:.\Generated_Source\PSoC4/cyfitter_cfg.c **** 			{0x16u, 0x08u},
 445:.\Generated_Source\PSoC4/cyfitter_cfg.c **** 			{0x17u, 0x04u},
 446:.\Generated_Source\PSoC4/cyfitter_cfg.c **** 			{0x18u, 0x45u},
 447:.\Generated_Source\PSoC4/cyfitter_cfg.c **** 			{0x19u, 0x04u},
 448:.\Generated_Source\PSoC4/cyfitter_cfg.c **** 			{0x1Au, 0x0Au},
 449:.\Generated_Source\PSoC4/cyfitter_cfg.c **** 			{0x1Du, 0x18u},
 450:.\Generated_Source\PSoC4/cyfitter_cfg.c **** 			{0x1Fu, 0x10u},
 451:.\Generated_Source\PSoC4/cyfitter_cfg.c **** 			{0x21u, 0x20u},
 452:.\Generated_Source\PSoC4/cyfitter_cfg.c **** 			{0x27u, 0x20u},
 453:.\Generated_Source\PSoC4/cyfitter_cfg.c **** 			{0x28u, 0x10u},
 454:.\Generated_Source\PSoC4/cyfitter_cfg.c **** 			{0x29u, 0x04u},
 455:.\Generated_Source\PSoC4/cyfitter_cfg.c **** 			{0x31u, 0x10u},
 456:.\Generated_Source\PSoC4/cyfitter_cfg.c **** 			{0x32u, 0x80u},
 457:.\Generated_Source\PSoC4/cyfitter_cfg.c **** 			{0x33u, 0x01u},
 458:.\Generated_Source\PSoC4/cyfitter_cfg.c **** 			{0x40u, 0x05u},
 459:.\Generated_Source\PSoC4/cyfitter_cfg.c **** 			{0x4Eu, 0x05u},
 460:.\Generated_Source\PSoC4/cyfitter_cfg.c **** 			{0x6Du, 0x40u},
 461:.\Generated_Source\PSoC4/cyfitter_cfg.c **** 			{0x6Fu, 0x04u},
 462:.\Generated_Source\PSoC4/cyfitter_cfg.c **** 			{0x7Du, 0x02u},
 463:.\Generated_Source\PSoC4/cyfitter_cfg.c **** 			{0x81u, 0x08u},
 464:.\Generated_Source\PSoC4/cyfitter_cfg.c **** 			{0x85u, 0x02u},
 465:.\Generated_Source\PSoC4/cyfitter_cfg.c **** 			{0x86u, 0x80u},
 466:.\Generated_Source\PSoC4/cyfitter_cfg.c **** 			{0x88u, 0x80u},
 467:.\Generated_Source\PSoC4/cyfitter_cfg.c **** 			{0x89u, 0x02u},
 468:.\Generated_Source\PSoC4/cyfitter_cfg.c **** 			{0x8Au, 0x20u},
 469:.\Generated_Source\PSoC4/cyfitter_cfg.c **** 			{0x8Bu, 0x01u},
 470:.\Generated_Source\PSoC4/cyfitter_cfg.c **** 			{0x8Eu, 0x09u},
 471:.\Generated_Source\PSoC4/cyfitter_cfg.c **** 			{0xC0u, 0x39u},
 472:.\Generated_Source\PSoC4/cyfitter_cfg.c **** 			{0xC2u, 0x8Eu},
 473:.\Generated_Source\PSoC4/cyfitter_cfg.c **** 			{0xC4u, 0xF4u},
 474:.\Generated_Source\PSoC4/cyfitter_cfg.c **** 			{0xCAu, 0x02u},
 475:.\Generated_Source\PSoC4/cyfitter_cfg.c **** 			{0xCCu, 0x0Du},
 476:.\Generated_Source\PSoC4/cyfitter_cfg.c **** 			{0xD0u, 0x0Cu},
ARM GAS  C:\Users\Tim\AppData\Local\Temp\ccon0omM.s 			page 17


 477:.\Generated_Source\PSoC4/cyfitter_cfg.c **** 			{0xD2u, 0x30u},
 478:.\Generated_Source\PSoC4/cyfitter_cfg.c **** 			{0xDEu, 0x80u},
 479:.\Generated_Source\PSoC4/cyfitter_cfg.c **** 			{0xE0u, 0x31u},
 480:.\Generated_Source\PSoC4/cyfitter_cfg.c **** 			{0xE4u, 0xA0u},
 481:.\Generated_Source\PSoC4/cyfitter_cfg.c **** 			{0xE6u, 0x40u},
 482:.\Generated_Source\PSoC4/cyfitter_cfg.c **** 			{0x40u, 0x50u},
 483:.\Generated_Source\PSoC4/cyfitter_cfg.c **** 			{0x41u, 0x06u},
 484:.\Generated_Source\PSoC4/cyfitter_cfg.c **** 			{0x49u, 0xFFu},
 485:.\Generated_Source\PSoC4/cyfitter_cfg.c **** 			{0x4Au, 0xFFu},
 486:.\Generated_Source\PSoC4/cyfitter_cfg.c **** 			{0x4Bu, 0xFFu},
 487:.\Generated_Source\PSoC4/cyfitter_cfg.c **** 			{0x4Du, 0xAFu},
 488:.\Generated_Source\PSoC4/cyfitter_cfg.c **** 			{0x4Eu, 0x07u},
 489:.\Generated_Source\PSoC4/cyfitter_cfg.c **** 			{0x4Fu, 0x01u},
 490:.\Generated_Source\PSoC4/cyfitter_cfg.c **** 			{0x50u, 0x18u},
 491:.\Generated_Source\PSoC4/cyfitter_cfg.c **** 			{0x5Au, 0x04u},
 492:.\Generated_Source\PSoC4/cyfitter_cfg.c **** 			{0x5Fu, 0x01u},
 493:.\Generated_Source\PSoC4/cyfitter_cfg.c **** 			{0x60u, 0x40u},
 494:.\Generated_Source\PSoC4/cyfitter_cfg.c **** 			{0x62u, 0x80u},
 495:.\Generated_Source\PSoC4/cyfitter_cfg.c **** 			{0x64u, 0x40u},
 496:.\Generated_Source\PSoC4/cyfitter_cfg.c **** 			{0x65u, 0x40u},
 497:.\Generated_Source\PSoC4/cyfitter_cfg.c **** 			{0x66u, 0x80u},
 498:.\Generated_Source\PSoC4/cyfitter_cfg.c **** 			{0x68u, 0x40u},
 499:.\Generated_Source\PSoC4/cyfitter_cfg.c **** 			{0x6Au, 0x80u},
 500:.\Generated_Source\PSoC4/cyfitter_cfg.c **** 			{0x6Cu, 0x40u},
 501:.\Generated_Source\PSoC4/cyfitter_cfg.c **** 			{0x6Du, 0x20u},
 502:.\Generated_Source\PSoC4/cyfitter_cfg.c **** 			{0x6Eu, 0x80u},
 503:.\Generated_Source\PSoC4/cyfitter_cfg.c **** 			{0x8Cu, 0x01u},
 504:.\Generated_Source\PSoC4/cyfitter_cfg.c **** 			{0x8Fu, 0x03u},
 505:.\Generated_Source\PSoC4/cyfitter_cfg.c **** 			{0x94u, 0x04u},
 506:.\Generated_Source\PSoC4/cyfitter_cfg.c **** 			{0x95u, 0x01u},
 507:.\Generated_Source\PSoC4/cyfitter_cfg.c **** 			{0xA2u, 0x0Cu},
 508:.\Generated_Source\PSoC4/cyfitter_cfg.c **** 			{0xA6u, 0x03u},
 509:.\Generated_Source\PSoC4/cyfitter_cfg.c **** 			{0xB0u, 0x02u},
 510:.\Generated_Source\PSoC4/cyfitter_cfg.c **** 			{0xB2u, 0x08u},
 511:.\Generated_Source\PSoC4/cyfitter_cfg.c **** 			{0xB3u, 0x02u},
 512:.\Generated_Source\PSoC4/cyfitter_cfg.c **** 			{0xB4u, 0x04u},
 513:.\Generated_Source\PSoC4/cyfitter_cfg.c **** 			{0xB6u, 0x01u},
 514:.\Generated_Source\PSoC4/cyfitter_cfg.c **** 			{0xB7u, 0x01u},
 515:.\Generated_Source\PSoC4/cyfitter_cfg.c **** 			{0xBEu, 0x50u},
 516:.\Generated_Source\PSoC4/cyfitter_cfg.c **** 			{0xBFu, 0x40u},
 517:.\Generated_Source\PSoC4/cyfitter_cfg.c **** 			{0xC0u, 0x10u},
 518:.\Generated_Source\PSoC4/cyfitter_cfg.c **** 			{0xC1u, 0x02u},
 519:.\Generated_Source\PSoC4/cyfitter_cfg.c **** 			{0xC5u, 0x35u},
 520:.\Generated_Source\PSoC4/cyfitter_cfg.c **** 			{0xC6u, 0xC2u},
 521:.\Generated_Source\PSoC4/cyfitter_cfg.c **** 			{0xC7u, 0x0Eu},
 522:.\Generated_Source\PSoC4/cyfitter_cfg.c **** 			{0xC8u, 0x1Fu},
 523:.\Generated_Source\PSoC4/cyfitter_cfg.c **** 			{0xC9u, 0xFFu},
 524:.\Generated_Source\PSoC4/cyfitter_cfg.c **** 			{0xCAu, 0xFFu},
 525:.\Generated_Source\PSoC4/cyfitter_cfg.c **** 			{0xCBu, 0xFFu},
 526:.\Generated_Source\PSoC4/cyfitter_cfg.c **** 			{0xCDu, 0xAFu},
 527:.\Generated_Source\PSoC4/cyfitter_cfg.c **** 			{0xCEu, 0x07u},
 528:.\Generated_Source\PSoC4/cyfitter_cfg.c **** 			{0xCFu, 0x01u},
 529:.\Generated_Source\PSoC4/cyfitter_cfg.c **** 			{0xD0u, 0x18u},
 530:.\Generated_Source\PSoC4/cyfitter_cfg.c **** 			{0xD4u, 0x0Fu},
 531:.\Generated_Source\PSoC4/cyfitter_cfg.c **** 			{0xD6u, 0x04u},
 532:.\Generated_Source\PSoC4/cyfitter_cfg.c **** 			{0xD8u, 0x04u},
 533:.\Generated_Source\PSoC4/cyfitter_cfg.c **** 			{0xD9u, 0x04u},
ARM GAS  C:\Users\Tim\AppData\Local\Temp\ccon0omM.s 			page 18


 534:.\Generated_Source\PSoC4/cyfitter_cfg.c **** 			{0xDAu, 0x04u},
 535:.\Generated_Source\PSoC4/cyfitter_cfg.c **** 			{0xDBu, 0x04u},
 536:.\Generated_Source\PSoC4/cyfitter_cfg.c **** 			{0xDFu, 0x01u},
 537:.\Generated_Source\PSoC4/cyfitter_cfg.c **** 			{0xE0u, 0x40u},
 538:.\Generated_Source\PSoC4/cyfitter_cfg.c **** 			{0xE2u, 0x80u},
 539:.\Generated_Source\PSoC4/cyfitter_cfg.c **** 			{0xE4u, 0x40u},
 540:.\Generated_Source\PSoC4/cyfitter_cfg.c **** 			{0xE5u, 0x40u},
 541:.\Generated_Source\PSoC4/cyfitter_cfg.c **** 			{0xE6u, 0x80u},
 542:.\Generated_Source\PSoC4/cyfitter_cfg.c **** 			{0xE8u, 0x40u},
 543:.\Generated_Source\PSoC4/cyfitter_cfg.c **** 			{0xEAu, 0x80u},
 544:.\Generated_Source\PSoC4/cyfitter_cfg.c **** 			{0xECu, 0x40u},
 545:.\Generated_Source\PSoC4/cyfitter_cfg.c **** 			{0xEDu, 0x20u},
 546:.\Generated_Source\PSoC4/cyfitter_cfg.c **** 			{0xEEu, 0x80u},
 547:.\Generated_Source\PSoC4/cyfitter_cfg.c **** 			{0x00u, 0x40u},
 548:.\Generated_Source\PSoC4/cyfitter_cfg.c **** 			{0x0Au, 0x10u},
 549:.\Generated_Source\PSoC4/cyfitter_cfg.c **** 			{0x10u, 0xA0u},
 550:.\Generated_Source\PSoC4/cyfitter_cfg.c **** 			{0x18u, 0x40u},
 551:.\Generated_Source\PSoC4/cyfitter_cfg.c **** 			{0x19u, 0x40u},
 552:.\Generated_Source\PSoC4/cyfitter_cfg.c **** 			{0x1Au, 0x14u},
 553:.\Generated_Source\PSoC4/cyfitter_cfg.c **** 			{0x22u, 0x08u},
 554:.\Generated_Source\PSoC4/cyfitter_cfg.c **** 			{0x23u, 0x02u},
 555:.\Generated_Source\PSoC4/cyfitter_cfg.c **** 			{0x32u, 0x08u},
 556:.\Generated_Source\PSoC4/cyfitter_cfg.c **** 			{0x38u, 0x80u},
 557:.\Generated_Source\PSoC4/cyfitter_cfg.c **** 			{0x40u, 0x05u},
 558:.\Generated_Source\PSoC4/cyfitter_cfg.c **** 			{0x48u, 0xA0u},
 559:.\Generated_Source\PSoC4/cyfitter_cfg.c **** 			{0x4Eu, 0x05u},
 560:.\Generated_Source\PSoC4/cyfitter_cfg.c **** 			{0x50u, 0x40u},
 561:.\Generated_Source\PSoC4/cyfitter_cfg.c **** 			{0x51u, 0x08u},
 562:.\Generated_Source\PSoC4/cyfitter_cfg.c **** 			{0x52u, 0x10u},
 563:.\Generated_Source\PSoC4/cyfitter_cfg.c **** 			{0x59u, 0x40u},
 564:.\Generated_Source\PSoC4/cyfitter_cfg.c **** 			{0x5Au, 0x04u},
 565:.\Generated_Source\PSoC4/cyfitter_cfg.c **** 			{0x5Bu, 0x22u},
 566:.\Generated_Source\PSoC4/cyfitter_cfg.c **** 			{0x61u, 0x08u},
 567:.\Generated_Source\PSoC4/cyfitter_cfg.c **** 			{0x62u, 0x11u},
 568:.\Generated_Source\PSoC4/cyfitter_cfg.c **** 			{0x80u, 0x40u},
 569:.\Generated_Source\PSoC4/cyfitter_cfg.c **** 			{0x83u, 0x20u},
 570:.\Generated_Source\PSoC4/cyfitter_cfg.c **** 			{0x90u, 0x05u},
 571:.\Generated_Source\PSoC4/cyfitter_cfg.c **** 			{0x92u, 0x0Au},
 572:.\Generated_Source\PSoC4/cyfitter_cfg.c **** 			{0x9Eu, 0x01u},
 573:.\Generated_Source\PSoC4/cyfitter_cfg.c **** 			{0xA9u, 0x01u},
 574:.\Generated_Source\PSoC4/cyfitter_cfg.c **** 			{0xAFu, 0x20u},
 575:.\Generated_Source\PSoC4/cyfitter_cfg.c **** 			{0xB1u, 0x80u},
 576:.\Generated_Source\PSoC4/cyfitter_cfg.c **** 			{0xC0u, 0x01u},
 577:.\Generated_Source\PSoC4/cyfitter_cfg.c **** 			{0xC2u, 0x04u},
 578:.\Generated_Source\PSoC4/cyfitter_cfg.c **** 			{0xC4u, 0x0Cu},
 579:.\Generated_Source\PSoC4/cyfitter_cfg.c **** 			{0xCCu, 0x02u},
 580:.\Generated_Source\PSoC4/cyfitter_cfg.c **** 			{0xCEu, 0x08u},
 581:.\Generated_Source\PSoC4/cyfitter_cfg.c **** 			{0xD0u, 0x0Cu},
 582:.\Generated_Source\PSoC4/cyfitter_cfg.c **** 			{0xD2u, 0x30u},
 583:.\Generated_Source\PSoC4/cyfitter_cfg.c **** 			{0xD6u, 0x0Fu},
 584:.\Generated_Source\PSoC4/cyfitter_cfg.c **** 			{0xD8u, 0x07u},
 585:.\Generated_Source\PSoC4/cyfitter_cfg.c **** 			{0xE6u, 0x20u},
 586:.\Generated_Source\PSoC4/cyfitter_cfg.c **** 			{0xE8u, 0x20u},
 587:.\Generated_Source\PSoC4/cyfitter_cfg.c **** 			{0x02u, 0x20u},
 588:.\Generated_Source\PSoC4/cyfitter_cfg.c **** 			{0x03u, 0x08u},
 589:.\Generated_Source\PSoC4/cyfitter_cfg.c **** 			{0x04u, 0x10u},
 590:.\Generated_Source\PSoC4/cyfitter_cfg.c **** 			{0x06u, 0x40u},
ARM GAS  C:\Users\Tim\AppData\Local\Temp\ccon0omM.s 			page 19


 591:.\Generated_Source\PSoC4/cyfitter_cfg.c **** 			{0x0Bu, 0x08u},
 592:.\Generated_Source\PSoC4/cyfitter_cfg.c **** 			{0x0Fu, 0x04u},
 593:.\Generated_Source\PSoC4/cyfitter_cfg.c **** 			{0x37u, 0x80u},
 594:.\Generated_Source\PSoC4/cyfitter_cfg.c **** 			{0x56u, 0x80u},
 595:.\Generated_Source\PSoC4/cyfitter_cfg.c **** 			{0x6Au, 0x40u},
 596:.\Generated_Source\PSoC4/cyfitter_cfg.c **** 			{0x87u, 0x04u},
 597:.\Generated_Source\PSoC4/cyfitter_cfg.c **** 			{0x8Au, 0x40u},
 598:.\Generated_Source\PSoC4/cyfitter_cfg.c **** 			{0x8Bu, 0x0Cu},
 599:.\Generated_Source\PSoC4/cyfitter_cfg.c **** 			{0x8Eu, 0x60u},
 600:.\Generated_Source\PSoC4/cyfitter_cfg.c **** 			{0xC0u, 0xF0u},
 601:.\Generated_Source\PSoC4/cyfitter_cfg.c **** 			{0xC2u, 0xC0u},
 602:.\Generated_Source\PSoC4/cyfitter_cfg.c **** 			{0xCCu, 0x20u},
 603:.\Generated_Source\PSoC4/cyfitter_cfg.c **** 			{0xD4u, 0x40u},
 604:.\Generated_Source\PSoC4/cyfitter_cfg.c **** 			{0xDAu, 0x40u},
 605:.\Generated_Source\PSoC4/cyfitter_cfg.c **** 			{0xE4u, 0x10u},
 606:.\Generated_Source\PSoC4/cyfitter_cfg.c **** 			{0x00u, 0x08u},
 607:.\Generated_Source\PSoC4/cyfitter_cfg.c **** 			{0x8Au, 0x80u},
 608:.\Generated_Source\PSoC4/cyfitter_cfg.c **** 			{0x9Eu, 0x80u},
 609:.\Generated_Source\PSoC4/cyfitter_cfg.c **** 			{0xA4u, 0x04u},
 610:.\Generated_Source\PSoC4/cyfitter_cfg.c **** 			{0xA8u, 0x10u},
 611:.\Generated_Source\PSoC4/cyfitter_cfg.c **** 			{0xAFu, 0x80u},
 612:.\Generated_Source\PSoC4/cyfitter_cfg.c **** 			{0xB0u, 0x04u},
 613:.\Generated_Source\PSoC4/cyfitter_cfg.c **** 			{0xC0u, 0x10u},
 614:.\Generated_Source\PSoC4/cyfitter_cfg.c **** 			{0xEAu, 0x40u},
 615:.\Generated_Source\PSoC4/cyfitter_cfg.c **** 			{0xECu, 0x80u},
 616:.\Generated_Source\PSoC4/cyfitter_cfg.c **** 			{0x81u, 0x10u},
 617:.\Generated_Source\PSoC4/cyfitter_cfg.c **** 			{0x1Cu, 0x80u},
 618:.\Generated_Source\PSoC4/cyfitter_cfg.c **** 			{0x6Du, 0x20u},
 619:.\Generated_Source\PSoC4/cyfitter_cfg.c **** 			{0x88u, 0x40u},
 620:.\Generated_Source\PSoC4/cyfitter_cfg.c **** 			{0xA1u, 0x10u},
 621:.\Generated_Source\PSoC4/cyfitter_cfg.c **** 			{0xC6u, 0x04u},
 622:.\Generated_Source\PSoC4/cyfitter_cfg.c **** 			{0xDAu, 0x01u},
 623:.\Generated_Source\PSoC4/cyfitter_cfg.c **** 			{0xE6u, 0x04u},
 624:.\Generated_Source\PSoC4/cyfitter_cfg.c **** 			{0x10u, 0x01u},
 625:.\Generated_Source\PSoC4/cyfitter_cfg.c **** 			{0x11u, 0x01u},
 626:.\Generated_Source\PSoC4/cyfitter_cfg.c **** 		};
 627:.\Generated_Source\PSoC4/cyfitter_cfg.c **** 
 628:.\Generated_Source\PSoC4/cyfitter_cfg.c **** 
 629:.\Generated_Source\PSoC4/cyfitter_cfg.c **** 
 630:.\Generated_Source\PSoC4/cyfitter_cfg.c **** 		CYPACKED typedef struct {
 631:.\Generated_Source\PSoC4/cyfitter_cfg.c **** 			void CYFAR *address;
 632:.\Generated_Source\PSoC4/cyfitter_cfg.c **** 			uint16 size;
 633:.\Generated_Source\PSoC4/cyfitter_cfg.c **** 		} CYPACKED_ATTR cfg_memset_t;
 634:.\Generated_Source\PSoC4/cyfitter_cfg.c **** 
 635:.\Generated_Source\PSoC4/cyfitter_cfg.c **** 		static const cfg_memset_t CYCODE cfg_memset_list [] = {
 636:.\Generated_Source\PSoC4/cyfitter_cfg.c **** 			/* address, size */
 637:.\Generated_Source\PSoC4/cyfitter_cfg.c **** 			{(void CYFAR *)(CYDEV_UDB_P0_U0_BASE), 1024u},
 638:.\Generated_Source\PSoC4/cyfitter_cfg.c **** 			{(void CYFAR *)(CYDEV_UDB_DSI0_BASE), 1024u},
 639:.\Generated_Source\PSoC4/cyfitter_cfg.c **** 		};
 640:.\Generated_Source\PSoC4/cyfitter_cfg.c **** 
 641:.\Generated_Source\PSoC4/cyfitter_cfg.c **** 		uint8 CYDATA i;
 642:.\Generated_Source\PSoC4/cyfitter_cfg.c **** 
 643:.\Generated_Source\PSoC4/cyfitter_cfg.c **** 		/* Zero out critical memory blocks before beginning configuration */
 644:.\Generated_Source\PSoC4/cyfitter_cfg.c **** 		for (i = 0u; i < (sizeof(cfg_memset_list)/sizeof(cfg_memset_list[0])); i++)
 400              		.loc 1 644 0
 401 012e 0024     		mov	r4, #0
 402 0130 10E0     		b	.L19
ARM GAS  C:\Users\Tim\AppData\Local\Temp\ccon0omM.s 			page 20


 403              	.LVL24:
 404              	.L20:
 405              	.LBB4:
 645:.\Generated_Source\PSoC4/cyfitter_cfg.c **** 		{
 646:.\Generated_Source\PSoC4/cyfitter_cfg.c **** 			const cfg_memset_t CYCODE * CYDATA ms = &cfg_memset_list[i];
 647:.\Generated_Source\PSoC4/cyfitter_cfg.c **** 			CYMEMZERO(ms->address, (size_t)(uint32)(ms->size));
 406              		.loc 1 647 0 discriminator 3
 407 0132 4348     		ldr	r0, .L21+4
 408 0134 6300     		lsl	r3, r4, #1
 409 0136 1A19     		add	r2, r3, r4
 410 0138 5200     		lsl	r2, r2, #1
 411 013a 8218     		add	r2, r0, r2
 412 013c 9188     		ldrh	r1, [r2, #4]
 413 013e 1B19     		add	r3, r3, r4
 414 0140 5B00     		lsl	r3, r3, #1
 415 0142 1A5A     		ldrh	r2, [r3, r0]
 416 0144 C318     		add	r3, r0, r3
 417 0146 5888     		ldrh	r0, [r3, #2]
 418 0148 0004     		lsl	r0, r0, #16
 419 014a 1043     		orr	r0, r2
 420 014c FFF7FEFF 		bl	CYMEMZERO
 421              	.LVL25:
 422              	.LBE4:
 644:.\Generated_Source\PSoC4/cyfitter_cfg.c **** 		{
 423              		.loc 1 644 0 discriminator 3
 424 0150 0134     		add	r4, r4, #1
 425              	.LVL26:
 426 0152 E4B2     		uxtb	r4, r4
 427              	.LVL27:
 428              	.L19:
 644:.\Generated_Source\PSoC4/cyfitter_cfg.c **** 		{
 429              		.loc 1 644 0 is_stmt 0 discriminator 1
 430 0154 012C     		cmp	r4, #1
 431 0156 ECD9     		bls	.L20
 648:.\Generated_Source\PSoC4/cyfitter_cfg.c **** 		}
 649:.\Generated_Source\PSoC4/cyfitter_cfg.c **** 
 650:.\Generated_Source\PSoC4/cyfitter_cfg.c **** 		cfg_write_bytes32(cy_cfg_addr_table, cy_cfg_data_table);
 432              		.loc 1 650 0 is_stmt 1
 433 0158 3949     		ldr	r1, .L21+4
 434 015a 081C     		mov	r0, r1
 435 015c 0C30     		add	r0, r0, #12
 436 015e 3431     		add	r1, r1, #52
 437 0160 FFF7FEFF 		bl	cfg_write_bytes32
 438              	.LVL28:
 651:.\Generated_Source\PSoC4/cyfitter_cfg.c **** 
 652:.\Generated_Source\PSoC4/cyfitter_cfg.c **** 		/* Perform normal device configuration. Order is not critical for these items. */
 653:.\Generated_Source\PSoC4/cyfitter_cfg.c **** 		CY_SET_XTND_REG16((void CYFAR *)(CYREG_UDB_BCTL0_DRV), 0x0100u);
 439              		.loc 1 653 0
 440 0164 8022     		mov	r2, #128
 441 0166 5200     		lsl	r2, r2, #1
 442 0168 364B     		ldr	r3, .L21+8
 443 016a 1A80     		strh	r2, [r3]
 654:.\Generated_Source\PSoC4/cyfitter_cfg.c **** 		CY_SET_XTND_REG8((void CYFAR *)(CYREG_UDB_BCTL0_DRV + 0x2u), 0x01u);
 444              		.loc 1 654 0
 445 016c 0123     		mov	r3, #1
 446 016e 364A     		ldr	r2, .L21+12
 447 0170 1370     		strb	r3, [r2]
ARM GAS  C:\Users\Tim\AppData\Local\Temp\ccon0omM.s 			page 21


 655:.\Generated_Source\PSoC4/cyfitter_cfg.c **** 
 656:.\Generated_Source\PSoC4/cyfitter_cfg.c **** 		/* HSIOM Starting address: CYDEV_HSIOM_BASE */
 657:.\Generated_Source\PSoC4/cyfitter_cfg.c **** 		CY_SET_XTND_REG32((void CYFAR *)(CYDEV_HSIOM_BASE), 0x00EE2000u);
 448              		.loc 1 657 0
 449 0172 3649     		ldr	r1, .L21+16
 450 0174 364A     		ldr	r2, .L21+20
 451 0176 1160     		str	r1, [r2]
 658:.\Generated_Source\PSoC4/cyfitter_cfg.c **** 		CY_SET_XTND_REG32((void CYFAR *)(CYREG_HSIOM_PORT_SEL1), 0x00000090u);
 452              		.loc 1 658 0
 453 0178 9021     		mov	r1, #144
 454 017a 364A     		ldr	r2, .L21+24
 455 017c 1160     		str	r1, [r2]
 659:.\Generated_Source\PSoC4/cyfitter_cfg.c **** 		CY_SET_XTND_REG32((void CYFAR *)(CYREG_HSIOM_PORT_SEL3), 0x0000EE00u);
 456              		.loc 1 659 0
 457 017e EE21     		mov	r1, #238
 458 0180 0902     		lsl	r1, r1, #8
 459 0182 354A     		ldr	r2, .L21+28
 460 0184 1160     		str	r1, [r2]
 660:.\Generated_Source\PSoC4/cyfitter_cfg.c **** 		CY_SET_XTND_REG32((void CYFAR *)(CYREG_HSIOM_PORT_SEL5), 0x000000EEu);
 461              		.loc 1 660 0
 462 0186 EE21     		mov	r1, #238
 463 0188 344A     		ldr	r2, .L21+32
 464 018a 1160     		str	r1, [r2]
 661:.\Generated_Source\PSoC4/cyfitter_cfg.c **** 
 662:.\Generated_Source\PSoC4/cyfitter_cfg.c **** 		/* UDB_PA_0 Starting address: CYDEV_UDB_PA0_BASE */
 663:.\Generated_Source\PSoC4/cyfitter_cfg.c **** 		CY_SET_XTND_REG32((void CYFAR *)(CYDEV_UDB_PA0_BASE), 0x00990004u);
 465              		.loc 1 663 0
 466 018c 344A     		ldr	r2, .L21+36
 467 018e 3549     		ldr	r1, .L21+40
 468 0190 0A60     		str	r2, [r1]
 664:.\Generated_Source\PSoC4/cyfitter_cfg.c **** 		CY_SET_XTND_REG32((void CYFAR *)(CYREG_UDB_PA0_CFG4), 0x00AA0000u);
 469              		.loc 1 664 0
 470 0192 AA20     		mov	r0, #170
 471 0194 0004     		lsl	r0, r0, #16
 472 0196 3449     		ldr	r1, .L21+44
 473 0198 0860     		str	r0, [r1]
 665:.\Generated_Source\PSoC4/cyfitter_cfg.c **** 		CY_SET_XTND_REG32((void CYFAR *)(CYREG_UDB_PA0_CFG8), 0x00400000u);
 474              		.loc 1 665 0
 475 019a 8020     		mov	r0, #128
 476 019c C003     		lsl	r0, r0, #15
 477 019e 3349     		ldr	r1, .L21+48
 478 01a0 0860     		str	r0, [r1]
 666:.\Generated_Source\PSoC4/cyfitter_cfg.c **** 		CY_SET_XTND_REG32((void CYFAR *)(CYREG_UDB_PA0_CFG12), 0x00000040u);
 479              		.loc 1 666 0
 480 01a2 4020     		mov	r0, #64
 481 01a4 3249     		ldr	r1, .L21+52
 482 01a6 0860     		str	r0, [r1]
 667:.\Generated_Source\PSoC4/cyfitter_cfg.c **** 
 668:.\Generated_Source\PSoC4/cyfitter_cfg.c **** 		/* UDB_PA_1 Starting address: CYDEV_UDB_PA1_BASE */
 669:.\Generated_Source\PSoC4/cyfitter_cfg.c **** 		CY_SET_XTND_REG32((void CYFAR *)(CYDEV_UDB_PA1_BASE), 0x00990004u);
 483              		.loc 1 669 0
 484 01a8 3249     		ldr	r1, .L21+56
 485 01aa 0A60     		str	r2, [r1]
 670:.\Generated_Source\PSoC4/cyfitter_cfg.c **** 		CY_SET_XTND_REG32((void CYFAR *)(CYREG_UDB_PA1_CFG4), 0x00020000u);
 486              		.loc 1 670 0
 487 01ac 8021     		mov	r1, #128
 488 01ae 8902     		lsl	r1, r1, #10
ARM GAS  C:\Users\Tim\AppData\Local\Temp\ccon0omM.s 			page 22


 489 01b0 314A     		ldr	r2, .L21+60
 490 01b2 1160     		str	r1, [r2]
 671:.\Generated_Source\PSoC4/cyfitter_cfg.c **** 
 672:.\Generated_Source\PSoC4/cyfitter_cfg.c **** 		/* UDB_PA_2 Starting address: CYDEV_UDB_PA2_BASE */
 673:.\Generated_Source\PSoC4/cyfitter_cfg.c **** 		CY_SET_XTND_REG32((void CYFAR *)(CYDEV_UDB_PA2_BASE), 0x00990000u);
 491              		.loc 1 673 0
 492 01b4 9922     		mov	r2, #153
 493 01b6 1204     		lsl	r2, r2, #16
 494 01b8 3049     		ldr	r1, .L21+64
 495 01ba 0A60     		str	r2, [r1]
 674:.\Generated_Source\PSoC4/cyfitter_cfg.c **** 
 675:.\Generated_Source\PSoC4/cyfitter_cfg.c **** 		/* UDB_PA_3 Starting address: CYDEV_UDB_PA3_BASE */
 676:.\Generated_Source\PSoC4/cyfitter_cfg.c **** 		CY_SET_XTND_REG32((void CYFAR *)(CYDEV_UDB_PA3_BASE), 0x00990000u);
 496              		.loc 1 676 0
 497 01bc 3049     		ldr	r1, .L21+68
 498 01be 0A60     		str	r2, [r1]
 677:.\Generated_Source\PSoC4/cyfitter_cfg.c **** 
 678:.\Generated_Source\PSoC4/cyfitter_cfg.c **** 		/* TCPWM_CNT0 Starting address: CYDEV_TCPWM_CNT0_TR_CTRL0 */
 679:.\Generated_Source\PSoC4/cyfitter_cfg.c **** 		CY_SET_XTND_REG32((void CYFAR *)(CYREG_TCPWM_CNT0_TR_CTRL0), 0x00033313u);
 499              		.loc 1 679 0
 500 01c0 3049     		ldr	r1, .L21+72
 501 01c2 314A     		ldr	r2, .L21+76
 502 01c4 1160     		str	r1, [r2]
 680:.\Generated_Source\PSoC4/cyfitter_cfg.c **** 
 681:.\Generated_Source\PSoC4/cyfitter_cfg.c **** 		/* INT_SELECT Starting address: CYDEV_CPUSS_INT_SEL */
 682:.\Generated_Source\PSoC4/cyfitter_cfg.c **** 		CY_SET_XTND_REG32((void CYFAR *)(CYREG_CPUSS_INT_SEL), 0x00000001u);
 503              		.loc 1 682 0
 504 01c6 314A     		ldr	r2, .L21+80
 505 01c8 1360     		str	r3, [r2]
 683:.\Generated_Source\PSoC4/cyfitter_cfg.c **** 
 684:.\Generated_Source\PSoC4/cyfitter_cfg.c **** 		/* INT_CONFIG Starting address: CYDEV_UDB_INT_CFG */
 685:.\Generated_Source\PSoC4/cyfitter_cfg.c **** 		CY_SET_XTND_REG32((void CYFAR *)(CYREG_UDB_INT_CFG), 0x00000001u);
 506              		.loc 1 685 0
 507 01ca 314A     		ldr	r2, .L21+84
 508 01cc 1360     		str	r3, [r2]
 686:.\Generated_Source\PSoC4/cyfitter_cfg.c **** 
 687:.\Generated_Source\PSoC4/cyfitter_cfg.c **** 		/* Enable digital routing */
 688:.\Generated_Source\PSoC4/cyfitter_cfg.c **** 		CY_SET_XTND_REG8((void *)CYREG_UDB_UDBIF_BANK_CTL, CY_GET_XTND_REG8((void *)CYREG_UDB_UDBIF_BANK_
 509              		.loc 1 688 0
 510 01ce 314B     		ldr	r3, .L21+88
 511 01d0 1978     		ldrb	r1, [r3]
 512 01d2 0222     		mov	r2, #2
 513 01d4 0A43     		orr	r2, r1
 514 01d6 1A70     		strb	r2, [r3]
 689:.\Generated_Source\PSoC4/cyfitter_cfg.c **** 
 690:.\Generated_Source\PSoC4/cyfitter_cfg.c **** 		/* Enable UDB array */
 691:.\Generated_Source\PSoC4/cyfitter_cfg.c **** 		CY_SET_XTND_REG8((void *)CYREG_UDB_UDBIF_WAIT_CFG, (uint8)((CY_GET_XTND_REG8((void *)CYREG_UDB_UD
 515              		.loc 1 691 0
 516 01d8 2F48     		ldr	r0, .L21+92
 517 01da 0278     		ldrb	r2, [r0]
 518 01dc 3C21     		mov	r1, #60
 519 01de 8A43     		bic	r2, r1
 520 01e0 2839     		sub	r1, r1, #40
 521 01e2 0A43     		orr	r2, r1
 522 01e4 0270     		strb	r2, [r0]
 692:.\Generated_Source\PSoC4/cyfitter_cfg.c **** 		CY_SET_XTND_REG8((void *)CYREG_UDB_UDBIF_BANK_CTL, (uint8)(CY_GET_XTND_REG8((void *)CYREG_UDB_UDB
 523              		.loc 1 692 0
ARM GAS  C:\Users\Tim\AppData\Local\Temp\ccon0omM.s 			page 23


 524 01e6 1978     		ldrb	r1, [r3]
 525 01e8 1622     		mov	r2, #22
 526 01ea 0A43     		orr	r2, r1
 527 01ec 1A70     		strb	r2, [r3]
 528              	.LBE3:
 693:.\Generated_Source\PSoC4/cyfitter_cfg.c **** 	}
 694:.\Generated_Source\PSoC4/cyfitter_cfg.c **** 
 695:.\Generated_Source\PSoC4/cyfitter_cfg.c **** 
 696:.\Generated_Source\PSoC4/cyfitter_cfg.c **** 	/* Perform second pass device configuration. These items must be configured in specific order afte
 697:.\Generated_Source\PSoC4/cyfitter_cfg.c **** 	CY_SET_XTND_REG8((void CYFAR *)(CYREG_UDB_P0_U1_CFG24), 0xC4u);
 529              		.loc 1 697 0
 530 01ee C422     		mov	r2, #196
 531 01f0 2A4B     		ldr	r3, .L21+96
 532 01f2 1A70     		strb	r2, [r3]
 698:.\Generated_Source\PSoC4/cyfitter_cfg.c **** 	/* IOPINS0_0 Starting address: CYDEV_GPIO_PRT0_BASE */
 699:.\Generated_Source\PSoC4/cyfitter_cfg.c **** 	CY_SET_XTND_REG32((void CYFAR *)(CYDEV_GPIO_PRT0_BASE), 0x00000030u);
 533              		.loc 1 699 0
 534 01f4 943A     		sub	r2, r2, #148
 535 01f6 2A4B     		ldr	r3, .L21+100
 536 01f8 1A60     		str	r2, [r3]
 700:.\Generated_Source\PSoC4/cyfitter_cfg.c **** 	CY_SET_XTND_REG32((void CYFAR *)(CYREG_GPIO_PRT0_PC), 0x00264649u);
 537              		.loc 1 700 0
 538 01fa 2A4A     		ldr	r2, .L21+104
 539 01fc 2A4B     		ldr	r3, .L21+108
 540 01fe 1A60     		str	r2, [r3]
 701:.\Generated_Source\PSoC4/cyfitter_cfg.c **** 
 702:.\Generated_Source\PSoC4/cyfitter_cfg.c **** 	/* IOPINS0_1 Starting address: CYDEV_GPIO_PRT1_BASE */
 703:.\Generated_Source\PSoC4/cyfitter_cfg.c **** 	CY_SET_XTND_REG32((void CYFAR *)(CYDEV_GPIO_PRT1_BASE), 0x00000092u);
 541              		.loc 1 703 0
 542 0200 9222     		mov	r2, #146
 543 0202 2A4B     		ldr	r3, .L21+112
 544 0204 1A60     		str	r2, [r3]
 704:.\Generated_Source\PSoC4/cyfitter_cfg.c **** 	CY_SET_XTND_REG32((void CYFAR *)(CYREG_GPIO_PRT1_PC), 0x001B6DB6u);
 545              		.loc 1 704 0
 546 0206 2A4A     		ldr	r2, .L21+116
 547 0208 2A4B     		ldr	r3, .L21+120
 548 020a 1A60     		str	r2, [r3]
 705:.\Generated_Source\PSoC4/cyfitter_cfg.c **** 	CY_SET_XTND_REG32((void CYFAR *)(CYREG_GPIO_PRT1_PC2), 0x00000082u);
 549              		.loc 1 705 0
 550 020c 8222     		mov	r2, #130
 551 020e 2A4B     		ldr	r3, .L21+124
 552 0210 1A60     		str	r2, [r3]
 706:.\Generated_Source\PSoC4/cyfitter_cfg.c **** 
 707:.\Generated_Source\PSoC4/cyfitter_cfg.c **** 	/* IOPINS0_2 Starting address: CYDEV_GPIO_PRT2_BASE */
 708:.\Generated_Source\PSoC4/cyfitter_cfg.c **** 	CY_SET_XTND_REG32((void CYFAR *)(CYDEV_GPIO_PRT2_BASE), 0x00000078u);
 553              		.loc 1 708 0
 554 0212 7823     		mov	r3, #120
 555 0214 294A     		ldr	r2, .L21+128
 556 0216 1360     		str	r3, [r2]
 709:.\Generated_Source\PSoC4/cyfitter_cfg.c **** 	CY_SET_XTND_REG32((void CYFAR *)(CYREG_GPIO_PRT2_PC2), 0x00000078u);
 557              		.loc 1 709 0
 558 0218 294A     		ldr	r2, .L21+132
 559 021a 1360     		str	r3, [r2]
 710:.\Generated_Source\PSoC4/cyfitter_cfg.c **** 
 711:.\Generated_Source\PSoC4/cyfitter_cfg.c **** 	/* IOPINS0_3 Starting address: CYDEV_GPIO_PRT3_BASE */
 712:.\Generated_Source\PSoC4/cyfitter_cfg.c **** 	CY_SET_XTND_REG32((void CYFAR *)(CYREG_GPIO_PRT3_PC), 0x00000D80u);
 560              		.loc 1 712 0
ARM GAS  C:\Users\Tim\AppData\Local\Temp\ccon0omM.s 			page 24


 561 021c D822     		mov	r2, #216
 562 021e 1201     		lsl	r2, r2, #4
 563 0220 284B     		ldr	r3, .L21+136
 564 0222 1A60     		str	r2, [r3]
 713:.\Generated_Source\PSoC4/cyfitter_cfg.c **** 
 714:.\Generated_Source\PSoC4/cyfitter_cfg.c **** 	/* IOPINS0_5 Starting address: CYDEV_GPIO_PRT5_BASE */
 715:.\Generated_Source\PSoC4/cyfitter_cfg.c **** 	CY_SET_XTND_REG32((void CYFAR *)(CYDEV_GPIO_PRT5_BASE), 0x00000003u);
 565              		.loc 1 715 0
 566 0224 0322     		mov	r2, #3
 567 0226 284B     		ldr	r3, .L21+140
 568 0228 1A60     		str	r2, [r3]
 716:.\Generated_Source\PSoC4/cyfitter_cfg.c **** 	CY_SET_XTND_REG32((void CYFAR *)(CYREG_GPIO_PRT5_PC), 0x00000024u);
 569              		.loc 1 716 0
 570 022a 2132     		add	r2, r2, #33
 571 022c 274B     		ldr	r3, .L21+144
 572 022e 1A60     		str	r2, [r3]
 717:.\Generated_Source\PSoC4/cyfitter_cfg.c **** 
 718:.\Generated_Source\PSoC4/cyfitter_cfg.c **** 
 719:.\Generated_Source\PSoC4/cyfitter_cfg.c **** 	/* Setup clocks based on selections from Clock DWR */
 720:.\Generated_Source\PSoC4/cyfitter_cfg.c **** 	ClockSetup();
 573              		.loc 1 720 0
 574 0230 FFF7E6FE 		bl	ClockSetup
 575              	.LVL29:
 721:.\Generated_Source\PSoC4/cyfitter_cfg.c **** 
 722:.\Generated_Source\PSoC4/cyfitter_cfg.c **** 	/* Perform basic analog initialization to defaults */
 723:.\Generated_Source\PSoC4/cyfitter_cfg.c **** 	AnalogSetDefault();
 576              		.loc 1 723 0
 577 0234 FFF7FEFF 		bl	AnalogSetDefault
 578              	.LVL30:
 724:.\Generated_Source\PSoC4/cyfitter_cfg.c **** 
 725:.\Generated_Source\PSoC4/cyfitter_cfg.c **** }
 579              		.loc 1 725 0
 580              		@ sp needed
 581              	.LVL31:
 582 0238 10BD     		pop	{r4, pc}
 583              	.L22:
 584 023a C046     		.align	2
 585              	.L21:
 586 023c 1C700F40 		.word	1074753564
 587 0240 00000000 		.word	.LANCHOR0
 588 0244 00600F40 		.word	1074749440
 589 0248 02600F40 		.word	1074749442
 590 024c 0020EE00 		.word	15605760
 591 0250 00000240 		.word	1073872896
 592 0254 00010240 		.word	1073873152
 593 0258 00030240 		.word	1073873664
 594 025c 00050240 		.word	1073874176
 595 0260 04009900 		.word	10027012
 596 0264 00500F40 		.word	1074745344
 597 0268 04500F40 		.word	1074745348
 598 026c 08500F40 		.word	1074745352
 599 0270 0C500F40 		.word	1074745356
 600 0274 10500F40 		.word	1074745360
 601 0278 14500F40 		.word	1074745364
 602 027c 20500F40 		.word	1074745376
 603 0280 30500F40 		.word	1074745392
 604 0284 13330300 		.word	209683
ARM GAS  C:\Users\Tim\AppData\Local\Temp\ccon0omM.s 			page 25


 605 0288 20012040 		.word	1075839264
 606 028c 20001040 		.word	1074790432
 607 0290 00800F40 		.word	1074757632
 608 0294 00700F40 		.word	1074753536
 609 0298 01700F40 		.word	1074753537
 610 029c D8300F40 		.word	1074737368
 611 02a0 00000440 		.word	1074003968
 612 02a4 49462600 		.word	2508361
 613 02a8 08000440 		.word	1074003976
 614 02ac 00010440 		.word	1074004224
 615 02b0 B66D1B00 		.word	1797558
 616 02b4 08010440 		.word	1074004232
 617 02b8 18010440 		.word	1074004248
 618 02bc 00020440 		.word	1074004480
 619 02c0 18020440 		.word	1074004504
 620 02c4 08030440 		.word	1074004744
 621 02c8 00050440 		.word	1074005248
 622 02cc 08050440 		.word	1074005256
 623              		.cfi_endproc
 624              	.LFE8:
 625              		.size	cyfitter_cfg, .-cyfitter_cfg
 626              		.section	.rodata
 627              		.align	2
 628              		.set	.LANCHOR0,. + 0
 629              		.type	cfg_memset_list.4764, %object
 630              		.size	cfg_memset_list.4764, 12
 631              	cfg_memset_list.4764:
 632 0000 00300F40 		.word	1074737152
 633 0004 0004     		.short	1024
 634 0006 00400F40 		.4byte	1074741248
 635 000a 0004     		.short	1024
 636              		.type	cy_cfg_addr_table.4758, %object
 637              		.size	cy_cfg_addr_table.4758, 40
 638              	cy_cfg_addr_table.4758:
 639 000c 01000F40 		.word	1074724865
 640 0010 53300F40 		.word	1074737235
 641 0014 30310F40 		.word	1074737456
 642 0018 41320F40 		.word	1074737729
 643 001c 28330F40 		.word	1074737960
 644 0020 13400F40 		.word	1074741267
 645 0024 0A410F40 		.word	1074741514
 646 0028 01420F40 		.word	1074741761
 647 002c 07430F40 		.word	1074742023
 648 0030 02600F40 		.word	1074749442
 649              		.type	cy_cfg_data_table.4759, %object
 650              		.size	cy_cfg_data_table.4759, 552
 651              	cy_cfg_data_table.4759:
 652 0034 83       		.byte	-125
 653 0035 6F       		.byte	111
 654 0036 00       		.byte	0
 655 0037 0C       		.byte	12
 656 0038 02       		.byte	2
 657 0039 30       		.byte	48
 658 003a 0C       		.byte	12
 659 003b 01       		.byte	1
 660 003c 10       		.byte	16
 661 003d 28       		.byte	40
ARM GAS  C:\Users\Tim\AppData\Local\Temp\ccon0omM.s 			page 26


 662 003e 11       		.byte	17
 663 003f 55       		.byte	85
 664 0040 12       		.byte	18
 665 0041 54       		.byte	84
 666 0042 13       		.byte	19
 667 0043 AA       		.byte	-86
 668 0044 14       		.byte	20
 669 0045 14       		.byte	20
 670 0046 16       		.byte	22
 671 0047 28       		.byte	40
 672 0048 19       		.byte	25
 673 0049 33       		.byte	51
 674 004a 1A       		.byte	26
 675 004b 03       		.byte	3
 676 004c 1B       		.byte	27
 677 004d CC       		.byte	-52
 678 004e 1D       		.byte	29
 679 004f 96       		.byte	-106
 680 0050 1F       		.byte	31
 681 0051 69       		.byte	105
 682 0052 24       		.byte	36
 683 0053 0C       		.byte	12
 684 0054 25       		.byte	37
 685 0055 0F       		.byte	15
 686 0056 26       		.byte	38
 687 0057 30       		.byte	48
 688 0058 27       		.byte	39
 689 0059 F0       		.byte	-16
 690 005a 30       		.byte	48
 691 005b 02       		.byte	2
 692 005c 32       		.byte	50
 693 005d 40       		.byte	64
 694 005e 34       		.byte	52
 695 005f 3C       		.byte	60
 696 0060 35       		.byte	53
 697 0061 FF       		.byte	-1
 698 0062 36       		.byte	54
 699 0063 01       		.byte	1
 700 0064 3E       		.byte	62
 701 0065 40       		.byte	64
 702 0066 40       		.byte	64
 703 0067 10       		.byte	16
 704 0068 41       		.byte	65
 705 0069 02       		.byte	2
 706 006a 49       		.byte	73
 707 006b FF       		.byte	-1
 708 006c 4A       		.byte	74
 709 006d FF       		.byte	-1
 710 006e 4B       		.byte	75
 711 006f FF       		.byte	-1
 712 0070 4D       		.byte	77
 713 0071 A0       		.byte	-96
 714 0072 4F       		.byte	79
 715 0073 01       		.byte	1
 716 0074 50       		.byte	80
 717 0075 18       		.byte	24
 718 0076 58       		.byte	88
ARM GAS  C:\Users\Tim\AppData\Local\Temp\ccon0omM.s 			page 27


 719 0077 04       		.byte	4
 720 0078 59       		.byte	89
 721 0079 04       		.byte	4
 722 007a 5A       		.byte	90
 723 007b 04       		.byte	4
 724 007c 5F       		.byte	95
 725 007d 01       		.byte	1
 726 007e 60       		.byte	96
 727 007f 40       		.byte	64
 728 0080 62       		.byte	98
 729 0081 80       		.byte	-128
 730 0082 64       		.byte	100
 731 0083 40       		.byte	64
 732 0084 65       		.byte	101
 733 0085 40       		.byte	64
 734 0086 66       		.byte	102
 735 0087 80       		.byte	-128
 736 0088 68       		.byte	104
 737 0089 40       		.byte	64
 738 008a 6A       		.byte	106
 739 008b 80       		.byte	-128
 740 008c 6C       		.byte	108
 741 008d 40       		.byte	64
 742 008e 6D       		.byte	109
 743 008f 20       		.byte	32
 744 0090 6E       		.byte	110
 745 0091 80       		.byte	-128
 746 0092 82       		.byte	-126
 747 0093 10       		.byte	16
 748 0094 86       		.byte	-122
 749 0095 04       		.byte	4
 750 0096 9E       		.byte	-98
 751 0097 01       		.byte	1
 752 0098 A2       		.byte	-94
 753 0099 02       		.byte	2
 754 009a A4       		.byte	-92
 755 009b 09       		.byte	9
 756 009c A6       		.byte	-90
 757 009d 06       		.byte	6
 758 009e AA       		.byte	-86
 759 009f 08       		.byte	8
 760 00a0 AC       		.byte	-84
 761 00a1 05       		.byte	5
 762 00a2 AE       		.byte	-82
 763 00a3 0A       		.byte	10
 764 00a4 B2       		.byte	-78
 765 00a5 0F       		.byte	15
 766 00a6 B4       		.byte	-76
 767 00a7 10       		.byte	16
 768 00a8 BD       		.byte	-67
 769 00a9 04       		.byte	4
 770 00aa BE       		.byte	-66
 771 00ab 04       		.byte	4
 772 00ac C0       		.byte	-64
 773 00ad 50       		.byte	80
 774 00ae C1       		.byte	-63
 775 00af 06       		.byte	6
ARM GAS  C:\Users\Tim\AppData\Local\Temp\ccon0omM.s 			page 28


 776 00b0 C9       		.byte	-55
 777 00b1 FF       		.byte	-1
 778 00b2 CA       		.byte	-54
 779 00b3 FF       		.byte	-1
 780 00b4 CB       		.byte	-53
 781 00b5 FF       		.byte	-1
 782 00b6 CD       		.byte	-51
 783 00b7 AF       		.byte	-81
 784 00b8 CE       		.byte	-50
 785 00b9 07       		.byte	7
 786 00ba CF       		.byte	-49
 787 00bb 01       		.byte	1
 788 00bc D0       		.byte	-48
 789 00bd 18       		.byte	24
 790 00be D8       		.byte	-40
 791 00bf 04       		.byte	4
 792 00c0 D9       		.byte	-39
 793 00c1 04       		.byte	4
 794 00c2 DA       		.byte	-38
 795 00c3 04       		.byte	4
 796 00c4 DB       		.byte	-37
 797 00c5 04       		.byte	4
 798 00c6 DF       		.byte	-33
 799 00c7 01       		.byte	1
 800 00c8 E0       		.byte	-32
 801 00c9 40       		.byte	64
 802 00ca E2       		.byte	-30
 803 00cb 80       		.byte	-128
 804 00cc E4       		.byte	-28
 805 00cd 40       		.byte	64
 806 00ce E5       		.byte	-27
 807 00cf 40       		.byte	64
 808 00d0 E6       		.byte	-26
 809 00d1 80       		.byte	-128
 810 00d2 E8       		.byte	-24
 811 00d3 40       		.byte	64
 812 00d4 EA       		.byte	-22
 813 00d5 80       		.byte	-128
 814 00d6 EC       		.byte	-20
 815 00d7 40       		.byte	64
 816 00d8 ED       		.byte	-19
 817 00d9 20       		.byte	32
 818 00da EE       		.byte	-18
 819 00db 80       		.byte	-128
 820 00dc 00       		.byte	0
 821 00dd 40       		.byte	64
 822 00de 02       		.byte	2
 823 00df 80       		.byte	-128
 824 00e0 05       		.byte	5
 825 00e1 02       		.byte	2
 826 00e2 06       		.byte	6
 827 00e3 20       		.byte	32
 828 00e4 09       		.byte	9
 829 00e5 22       		.byte	34
 830 00e6 0B       		.byte	11
 831 00e7 20       		.byte	32
 832 00e8 0D       		.byte	13
ARM GAS  C:\Users\Tim\AppData\Local\Temp\ccon0omM.s 			page 29


 833 00e9 80       		.byte	-128
 834 00ea 10       		.byte	16
 835 00eb 10       		.byte	16
 836 00ec 14       		.byte	20
 837 00ed 80       		.byte	-128
 838 00ee 15       		.byte	21
 839 00ef 40       		.byte	64
 840 00f0 16       		.byte	22
 841 00f1 08       		.byte	8
 842 00f2 17       		.byte	23
 843 00f3 04       		.byte	4
 844 00f4 18       		.byte	24
 845 00f5 45       		.byte	69
 846 00f6 19       		.byte	25
 847 00f7 04       		.byte	4
 848 00f8 1A       		.byte	26
 849 00f9 0A       		.byte	10
 850 00fa 1D       		.byte	29
 851 00fb 18       		.byte	24
 852 00fc 1F       		.byte	31
 853 00fd 10       		.byte	16
 854 00fe 21       		.byte	33
 855 00ff 20       		.byte	32
 856 0100 27       		.byte	39
 857 0101 20       		.byte	32
 858 0102 28       		.byte	40
 859 0103 10       		.byte	16
 860 0104 29       		.byte	41
 861 0105 04       		.byte	4
 862 0106 31       		.byte	49
 863 0107 10       		.byte	16
 864 0108 32       		.byte	50
 865 0109 80       		.byte	-128
 866 010a 33       		.byte	51
 867 010b 01       		.byte	1
 868 010c 40       		.byte	64
 869 010d 05       		.byte	5
 870 010e 4E       		.byte	78
 871 010f 05       		.byte	5
 872 0110 6D       		.byte	109
 873 0111 40       		.byte	64
 874 0112 6F       		.byte	111
 875 0113 04       		.byte	4
 876 0114 7D       		.byte	125
 877 0115 02       		.byte	2
 878 0116 81       		.byte	-127
 879 0117 08       		.byte	8
 880 0118 85       		.byte	-123
 881 0119 02       		.byte	2
 882 011a 86       		.byte	-122
 883 011b 80       		.byte	-128
 884 011c 88       		.byte	-120
 885 011d 80       		.byte	-128
 886 011e 89       		.byte	-119
 887 011f 02       		.byte	2
 888 0120 8A       		.byte	-118
 889 0121 20       		.byte	32
ARM GAS  C:\Users\Tim\AppData\Local\Temp\ccon0omM.s 			page 30


 890 0122 8B       		.byte	-117
 891 0123 01       		.byte	1
 892 0124 8E       		.byte	-114
 893 0125 09       		.byte	9
 894 0126 C0       		.byte	-64
 895 0127 39       		.byte	57
 896 0128 C2       		.byte	-62
 897 0129 8E       		.byte	-114
 898 012a C4       		.byte	-60
 899 012b F4       		.byte	-12
 900 012c CA       		.byte	-54
 901 012d 02       		.byte	2
 902 012e CC       		.byte	-52
 903 012f 0D       		.byte	13
 904 0130 D0       		.byte	-48
 905 0131 0C       		.byte	12
 906 0132 D2       		.byte	-46
 907 0133 30       		.byte	48
 908 0134 DE       		.byte	-34
 909 0135 80       		.byte	-128
 910 0136 E0       		.byte	-32
 911 0137 31       		.byte	49
 912 0138 E4       		.byte	-28
 913 0139 A0       		.byte	-96
 914 013a E6       		.byte	-26
 915 013b 40       		.byte	64
 916 013c 40       		.byte	64
 917 013d 50       		.byte	80
 918 013e 41       		.byte	65
 919 013f 06       		.byte	6
 920 0140 49       		.byte	73
 921 0141 FF       		.byte	-1
 922 0142 4A       		.byte	74
 923 0143 FF       		.byte	-1
 924 0144 4B       		.byte	75
 925 0145 FF       		.byte	-1
 926 0146 4D       		.byte	77
 927 0147 AF       		.byte	-81
 928 0148 4E       		.byte	78
 929 0149 07       		.byte	7
 930 014a 4F       		.byte	79
 931 014b 01       		.byte	1
 932 014c 50       		.byte	80
 933 014d 18       		.byte	24
 934 014e 5A       		.byte	90
 935 014f 04       		.byte	4
 936 0150 5F       		.byte	95
 937 0151 01       		.byte	1
 938 0152 60       		.byte	96
 939 0153 40       		.byte	64
 940 0154 62       		.byte	98
 941 0155 80       		.byte	-128
 942 0156 64       		.byte	100
 943 0157 40       		.byte	64
 944 0158 65       		.byte	101
 945 0159 40       		.byte	64
 946 015a 66       		.byte	102
ARM GAS  C:\Users\Tim\AppData\Local\Temp\ccon0omM.s 			page 31


 947 015b 80       		.byte	-128
 948 015c 68       		.byte	104
 949 015d 40       		.byte	64
 950 015e 6A       		.byte	106
 951 015f 80       		.byte	-128
 952 0160 6C       		.byte	108
 953 0161 40       		.byte	64
 954 0162 6D       		.byte	109
 955 0163 20       		.byte	32
 956 0164 6E       		.byte	110
 957 0165 80       		.byte	-128
 958 0166 8C       		.byte	-116
 959 0167 01       		.byte	1
 960 0168 8F       		.byte	-113
 961 0169 03       		.byte	3
 962 016a 94       		.byte	-108
 963 016b 04       		.byte	4
 964 016c 95       		.byte	-107
 965 016d 01       		.byte	1
 966 016e A2       		.byte	-94
 967 016f 0C       		.byte	12
 968 0170 A6       		.byte	-90
 969 0171 03       		.byte	3
 970 0172 B0       		.byte	-80
 971 0173 02       		.byte	2
 972 0174 B2       		.byte	-78
 973 0175 08       		.byte	8
 974 0176 B3       		.byte	-77
 975 0177 02       		.byte	2
 976 0178 B4       		.byte	-76
 977 0179 04       		.byte	4
 978 017a B6       		.byte	-74
 979 017b 01       		.byte	1
 980 017c B7       		.byte	-73
 981 017d 01       		.byte	1
 982 017e BE       		.byte	-66
 983 017f 50       		.byte	80
 984 0180 BF       		.byte	-65
 985 0181 40       		.byte	64
 986 0182 C0       		.byte	-64
 987 0183 10       		.byte	16
 988 0184 C1       		.byte	-63
 989 0185 02       		.byte	2
 990 0186 C5       		.byte	-59
 991 0187 35       		.byte	53
 992 0188 C6       		.byte	-58
 993 0189 C2       		.byte	-62
 994 018a C7       		.byte	-57
 995 018b 0E       		.byte	14
 996 018c C8       		.byte	-56
 997 018d 1F       		.byte	31
 998 018e C9       		.byte	-55
 999 018f FF       		.byte	-1
 1000 0190 CA       		.byte	-54
 1001 0191 FF       		.byte	-1
 1002 0192 CB       		.byte	-53
 1003 0193 FF       		.byte	-1
ARM GAS  C:\Users\Tim\AppData\Local\Temp\ccon0omM.s 			page 32


 1004 0194 CD       		.byte	-51
 1005 0195 AF       		.byte	-81
 1006 0196 CE       		.byte	-50
 1007 0197 07       		.byte	7
 1008 0198 CF       		.byte	-49
 1009 0199 01       		.byte	1
 1010 019a D0       		.byte	-48
 1011 019b 18       		.byte	24
 1012 019c D4       		.byte	-44
 1013 019d 0F       		.byte	15
 1014 019e D6       		.byte	-42
 1015 019f 04       		.byte	4
 1016 01a0 D8       		.byte	-40
 1017 01a1 04       		.byte	4
 1018 01a2 D9       		.byte	-39
 1019 01a3 04       		.byte	4
 1020 01a4 DA       		.byte	-38
 1021 01a5 04       		.byte	4
 1022 01a6 DB       		.byte	-37
 1023 01a7 04       		.byte	4
 1024 01a8 DF       		.byte	-33
 1025 01a9 01       		.byte	1
 1026 01aa E0       		.byte	-32
 1027 01ab 40       		.byte	64
 1028 01ac E2       		.byte	-30
 1029 01ad 80       		.byte	-128
 1030 01ae E4       		.byte	-28
 1031 01af 40       		.byte	64
 1032 01b0 E5       		.byte	-27
 1033 01b1 40       		.byte	64
 1034 01b2 E6       		.byte	-26
 1035 01b3 80       		.byte	-128
 1036 01b4 E8       		.byte	-24
 1037 01b5 40       		.byte	64
 1038 01b6 EA       		.byte	-22
 1039 01b7 80       		.byte	-128
 1040 01b8 EC       		.byte	-20
 1041 01b9 40       		.byte	64
 1042 01ba ED       		.byte	-19
 1043 01bb 20       		.byte	32
 1044 01bc EE       		.byte	-18
 1045 01bd 80       		.byte	-128
 1046 01be 00       		.byte	0
 1047 01bf 40       		.byte	64
 1048 01c0 0A       		.byte	10
 1049 01c1 10       		.byte	16
 1050 01c2 10       		.byte	16
 1051 01c3 A0       		.byte	-96
 1052 01c4 18       		.byte	24
 1053 01c5 40       		.byte	64
 1054 01c6 19       		.byte	25
 1055 01c7 40       		.byte	64
 1056 01c8 1A       		.byte	26
 1057 01c9 14       		.byte	20
 1058 01ca 22       		.byte	34
 1059 01cb 08       		.byte	8
 1060 01cc 23       		.byte	35
ARM GAS  C:\Users\Tim\AppData\Local\Temp\ccon0omM.s 			page 33


 1061 01cd 02       		.byte	2
 1062 01ce 32       		.byte	50
 1063 01cf 08       		.byte	8
 1064 01d0 38       		.byte	56
 1065 01d1 80       		.byte	-128
 1066 01d2 40       		.byte	64
 1067 01d3 05       		.byte	5
 1068 01d4 48       		.byte	72
 1069 01d5 A0       		.byte	-96
 1070 01d6 4E       		.byte	78
 1071 01d7 05       		.byte	5
 1072 01d8 50       		.byte	80
 1073 01d9 40       		.byte	64
 1074 01da 51       		.byte	81
 1075 01db 08       		.byte	8
 1076 01dc 52       		.byte	82
 1077 01dd 10       		.byte	16
 1078 01de 59       		.byte	89
 1079 01df 40       		.byte	64
 1080 01e0 5A       		.byte	90
 1081 01e1 04       		.byte	4
 1082 01e2 5B       		.byte	91
 1083 01e3 22       		.byte	34
 1084 01e4 61       		.byte	97
 1085 01e5 08       		.byte	8
 1086 01e6 62       		.byte	98
 1087 01e7 11       		.byte	17
 1088 01e8 80       		.byte	-128
 1089 01e9 40       		.byte	64
 1090 01ea 83       		.byte	-125
 1091 01eb 20       		.byte	32
 1092 01ec 90       		.byte	-112
 1093 01ed 05       		.byte	5
 1094 01ee 92       		.byte	-110
 1095 01ef 0A       		.byte	10
 1096 01f0 9E       		.byte	-98
 1097 01f1 01       		.byte	1
 1098 01f2 A9       		.byte	-87
 1099 01f3 01       		.byte	1
 1100 01f4 AF       		.byte	-81
 1101 01f5 20       		.byte	32
 1102 01f6 B1       		.byte	-79
 1103 01f7 80       		.byte	-128
 1104 01f8 C0       		.byte	-64
 1105 01f9 01       		.byte	1
 1106 01fa C2       		.byte	-62
 1107 01fb 04       		.byte	4
 1108 01fc C4       		.byte	-60
 1109 01fd 0C       		.byte	12
 1110 01fe CC       		.byte	-52
 1111 01ff 02       		.byte	2
 1112 0200 CE       		.byte	-50
 1113 0201 08       		.byte	8
 1114 0202 D0       		.byte	-48
 1115 0203 0C       		.byte	12
 1116 0204 D2       		.byte	-46
 1117 0205 30       		.byte	48
ARM GAS  C:\Users\Tim\AppData\Local\Temp\ccon0omM.s 			page 34


 1118 0206 D6       		.byte	-42
 1119 0207 0F       		.byte	15
 1120 0208 D8       		.byte	-40
 1121 0209 07       		.byte	7
 1122 020a E6       		.byte	-26
 1123 020b 20       		.byte	32
 1124 020c E8       		.byte	-24
 1125 020d 20       		.byte	32
 1126 020e 02       		.byte	2
 1127 020f 20       		.byte	32
 1128 0210 03       		.byte	3
 1129 0211 08       		.byte	8
 1130 0212 04       		.byte	4
 1131 0213 10       		.byte	16
 1132 0214 06       		.byte	6
 1133 0215 40       		.byte	64
 1134 0216 0B       		.byte	11
 1135 0217 08       		.byte	8
 1136 0218 0F       		.byte	15
 1137 0219 04       		.byte	4
 1138 021a 37       		.byte	55
 1139 021b 80       		.byte	-128
 1140 021c 56       		.byte	86
 1141 021d 80       		.byte	-128
 1142 021e 6A       		.byte	106
 1143 021f 40       		.byte	64
 1144 0220 87       		.byte	-121
 1145 0221 04       		.byte	4
 1146 0222 8A       		.byte	-118
 1147 0223 40       		.byte	64
 1148 0224 8B       		.byte	-117
 1149 0225 0C       		.byte	12
 1150 0226 8E       		.byte	-114
 1151 0227 60       		.byte	96
 1152 0228 C0       		.byte	-64
 1153 0229 F0       		.byte	-16
 1154 022a C2       		.byte	-62
 1155 022b C0       		.byte	-64
 1156 022c CC       		.byte	-52
 1157 022d 20       		.byte	32
 1158 022e D4       		.byte	-44
 1159 022f 40       		.byte	64
 1160 0230 DA       		.byte	-38
 1161 0231 40       		.byte	64
 1162 0232 E4       		.byte	-28
 1163 0233 10       		.byte	16
 1164 0234 00       		.byte	0
 1165 0235 08       		.byte	8
 1166 0236 8A       		.byte	-118
 1167 0237 80       		.byte	-128
 1168 0238 9E       		.byte	-98
 1169 0239 80       		.byte	-128
 1170 023a A4       		.byte	-92
 1171 023b 04       		.byte	4
 1172 023c A8       		.byte	-88
 1173 023d 10       		.byte	16
 1174 023e AF       		.byte	-81
ARM GAS  C:\Users\Tim\AppData\Local\Temp\ccon0omM.s 			page 35


 1175 023f 80       		.byte	-128
 1176 0240 B0       		.byte	-80
 1177 0241 04       		.byte	4
 1178 0242 C0       		.byte	-64
 1179 0243 10       		.byte	16
 1180 0244 EA       		.byte	-22
 1181 0245 40       		.byte	64
 1182 0246 EC       		.byte	-20
 1183 0247 80       		.byte	-128
 1184 0248 81       		.byte	-127
 1185 0249 10       		.byte	16
 1186 024a 1C       		.byte	28
 1187 024b 80       		.byte	-128
 1188 024c 6D       		.byte	109
 1189 024d 20       		.byte	32
 1190 024e 88       		.byte	-120
 1191 024f 40       		.byte	64
 1192 0250 A1       		.byte	-95
 1193 0251 10       		.byte	16
 1194 0252 C6       		.byte	-58
 1195 0253 04       		.byte	4
 1196 0254 DA       		.byte	-38
 1197 0255 01       		.byte	1
 1198 0256 E6       		.byte	-26
 1199 0257 04       		.byte	4
 1200 0258 10       		.byte	16
 1201 0259 01       		.byte	1
 1202 025a 11       		.byte	17
 1203 025b 01       		.byte	1
 1204              		.text
 1205              	.Letext0:
 1206              		.file 2 "c:\\program files (x86)\\cypress\\psoc creator\\3.3\\psoc creator\\import\\gnu\\arm\\4.9.
 1207              		.file 3 ".\\Generated_Source\\PSoC4\\cytypes.h"
 1208              		.file 4 ".\\Generated_Source\\PSoC4\\CyLib.h"