ARM GAS  C:\Users\Tim\AppData\Local\Temp\ccsFkJgc.s 			page 1


   1              		.cpu cortex-m0
   2              		.fpu softvfp
   3              		.eabi_attribute 20, 1
   4              		.eabi_attribute 21, 1
   5              		.eabi_attribute 23, 3
   6              		.eabi_attribute 24, 1
   7              		.eabi_attribute 25, 1
   8              		.eabi_attribute 26, 1
   9              		.eabi_attribute 30, 1
  10              		.eabi_attribute 34, 0
  11              		.eabi_attribute 18, 4
  12              		.code	16
  13              		.file	"encoder.c"
  14              		.text
  15              	.Ltext0:
  16              		.cfi_sections	.debug_frame
  17              		.section	.text.Phase_Counter_Interrupt_Handler,"ax",%progbits
  18              		.align	2
  19              		.global	Phase_Counter_Interrupt_Handler
  20              		.code	16
  21              		.thumb_func
  22              		.type	Phase_Counter_Interrupt_Handler, %function
  23              	Phase_Counter_Interrupt_Handler:
  24              	.LFB36:
  25              		.file 1 "..\\source\\encoder.c"
   1:..\source/encoder.c **** /* ========================================
   2:..\source/encoder.c ****  *
   3:..\source/encoder.c ****  * Copyright YOUR COMPANY, THE YEAR
   4:..\source/encoder.c ****  * All Rights Reserved
   5:..\source/encoder.c ****  * UNPUBLISHED, LICENSED SOFTWARE.
   6:..\source/encoder.c ****  *
   7:..\source/encoder.c ****  * CONFIDENTIAL AND PROPRIETARY INFORMATION
   8:..\source/encoder.c ****  * WHICH IS THE PROPERTY OF your company.
   9:..\source/encoder.c ****  *
  10:..\source/encoder.c ****  * ========================================
  11:..\source/encoder.c **** */
  12:..\source/encoder.c **** 
  13:..\source/encoder.c **** #include <stdlib.h>
  14:..\source/encoder.c **** #include "hwconfig.h"
  15:..\source/encoder.c **** #include "encoder.h"
  16:..\source/encoder.c **** #include "i2c.h"
  17:..\source/encoder.c **** #include "utils.h"
  18:..\source/encoder.c **** #include "time.h"
  19:..\source/encoder.c **** 
  20:..\source/encoder.c **** static uint8 overflow = 0;
  21:..\source/encoder.c **** static uint8 underflow = 0;
  22:..\source/encoder.c **** 
  23:..\source/encoder.c **** static MOVING_AVERAGE_TYPE ma_left_delta_count;
  24:..\source/encoder.c **** static MOVING_AVERAGE_TYPE ma_right_delta_count;
  25:..\source/encoder.c **** 
  26:..\source/encoder.c **** static int16 left_wheel_velocity;
  27:..\source/encoder.c **** static int16 right_wheel_velocity;
  28:..\source/encoder.c **** 
  29:..\source/encoder.c **** static MOVING_AVERAGE_TYPE ma_left_wheel_velocity;
  30:..\source/encoder.c **** static MOVING_AVERAGE_TYPE ma_right_wheel_velocity;
  31:..\source/encoder.c **** 
  32:..\source/encoder.c **** static int16 left_count_per_second;
ARM GAS  C:\Users\Tim\AppData\Local\Temp\ccsFkJgc.s 			page 2


  33:..\source/encoder.c **** static int16 right_count_per_second;
  34:..\source/encoder.c **** 
  35:..\source/encoder.c **** 
  36:..\source/encoder.c **** CY_ISR( Phase_Counter_Interrupt_Handler )
  37:..\source/encoder.c **** {
  26              		.loc 1 37 0
  27              		.cfi_startproc
  28 0000 08B5     		push	{r3, lr}
  29              		.cfi_def_cfa_offset 8
  30              		.cfi_offset 3, -8
  31              		.cfi_offset 14, -4
  38:..\source/encoder.c ****     uint8 status;
  39:..\source/encoder.c ****     /* Not sure what to do here.  This interrupt occurs on terminal count which basically means rol
  40:..\source/encoder.c ****        just clear the interrupt.
  41:..\source/encoder.c ****     
  42:..\source/encoder.c ****        These are the status provided in the status register:
  43:..\source/encoder.c ****     
  44:..\source/encoder.c ****         [7]: Unused (0) 
  45:..\source/encoder.c ****         [6]: FIFO not empty 
  46:..\source/encoder.c ****         [5]: FIFO full 
  47:..\source/encoder.c ****         [4]: Capture status 
  48:..\source/encoder.c ****         [3]: Underflow status 
  49:..\source/encoder.c ****         [2]: Overflow status 
  50:..\source/encoder.c ****         [1]: A0 Zero status 
  51:..\source/encoder.c ****         [0]: Compare output
  52:..\source/encoder.c ****     
  53:..\source/encoder.c ****      */
  54:..\source/encoder.c ****     status = Phase_Counter_ReadStatusRegister();
  32              		.loc 1 54 0
  33 0002 FFF7FEFF 		bl	Phase_Counter_ReadStatusRegister
  34              	.LVL0:
  55:..\source/encoder.c ****     if (status & 0x04)
  35              		.loc 1 55 0
  36 0006 4307     		lsl	r3, r0, #29
  37 0008 02D5     		bpl	.L2
  56:..\source/encoder.c ****     {
  57:..\source/encoder.c ****         overflow = 1;
  38              		.loc 1 57 0
  39 000a 0122     		mov	r2, #1
  40 000c 034B     		ldr	r3, .L4
  41 000e 1A70     		strb	r2, [r3]
  42              	.L2:
  58:..\source/encoder.c ****     }
  59:..\source/encoder.c ****     if (status & 0x08)
  43              		.loc 1 59 0
  44 0010 0307     		lsl	r3, r0, #28
  45 0012 02D5     		bpl	.L1
  60:..\source/encoder.c ****     {
  61:..\source/encoder.c ****         underflow = 1;
  46              		.loc 1 61 0
  47 0014 0122     		mov	r2, #1
  48 0016 014B     		ldr	r3, .L4
  49 0018 5A70     		strb	r2, [r3, #1]
  50              	.L1:
  62:..\source/encoder.c ****     }
  63:..\source/encoder.c **** }
  51              		.loc 1 63 0
ARM GAS  C:\Users\Tim\AppData\Local\Temp\ccsFkJgc.s 			page 3


  52              		@ sp needed
  53 001a 08BD     		pop	{r3, pc}
  54              	.L5:
  55              		.align	2
  56              	.L4:
  57 001c 00000000 		.word	.LANCHOR0
  58              		.cfi_endproc
  59              	.LFE36:
  60              		.size	Phase_Counter_Interrupt_Handler, .-Phase_Counter_Interrupt_Handler
  61              		.section	.text.LeftCounterWrapper,"ax",%progbits
  62              		.align	2
  63              		.code	16
  64              		.thumb_func
  65              		.type	LeftCounterWrapper, %function
  66              	LeftCounterWrapper:
  67              	.LFB37:
  64:..\source/encoder.c **** 
  65:..\source/encoder.c **** #ifdef LEFT_BOARD
  66:..\source/encoder.c **** static int32 LeftCounterWrapper()
  67:..\source/encoder.c **** {
  68              		.loc 1 67 0
  69              		.cfi_startproc
  70 0000 08B5     		push	{r3, lr}
  71              		.cfi_def_cfa_offset 8
  72              		.cfi_offset 3, -8
  73              		.cfi_offset 14, -4
  68:..\source/encoder.c ****     return (int32) Phase_Counter_ReadCounter();
  74              		.loc 1 68 0
  75 0002 FFF7FEFF 		bl	Phase_Counter_ReadCounter
  76              	.LVL1:
  69:..\source/encoder.c **** }
  77              		.loc 1 69 0
  78              		@ sp needed
  79 0006 08BD     		pop	{r3, pc}
  80              		.cfi_endproc
  81              	.LFE37:
  82              		.size	LeftCounterWrapper, .-LeftCounterWrapper
  83              		.section	.text.RightCounterWrapper,"ax",%progbits
  84              		.align	2
  85              		.code	16
  86              		.thumb_func
  87              		.type	RightCounterWrapper, %function
  88              	RightCounterWrapper:
  89              	.LFB38:
  70:..\source/encoder.c **** static int32 RightCounterWrapper()
  71:..\source/encoder.c **** {
  90              		.loc 1 71 0
  91              		.cfi_startproc
  92 0000 08B5     		push	{r3, lr}
  93              		.cfi_def_cfa_offset 8
  94              		.cfi_offset 3, -8
  95              		.cfi_offset 14, -4
  72:..\source/encoder.c ****     return I2c_ReadCount();
  96              		.loc 1 72 0
  97 0002 FFF7FEFF 		bl	I2c_ReadCount
  98              	.LVL2:
  73:..\source/encoder.c **** }
ARM GAS  C:\Users\Tim\AppData\Local\Temp\ccsFkJgc.s 			page 4


  99              		.loc 1 73 0
 100              		@ sp needed
 101 0006 08BD     		pop	{r3, pc}
 102              		.cfi_endproc
 103              	.LFE38:
 104              		.size	RightCounterWrapper, .-RightCounterWrapper
 105              		.section	.text.Encoder_Init,"ax",%progbits
 106              		.align	2
 107              		.global	Encoder_Init
 108              		.code	16
 109              		.thumb_func
 110              		.type	Encoder_Init, %function
 111              	Encoder_Init:
 112              	.LFB39:
  74:..\source/encoder.c **** #define ReadCounter LeftCounterWrapper
  75:..\source/encoder.c **** #elif defined RIGHT_BOARD
  76:..\source/encoder.c **** static int32 RightCounterWrapper()
  77:..\source/encoder.c **** {
  78:..\source/encoder.c ****     return - ( (int32) Phase_Counter_ReadCounter() );
  79:..\source/encoder.c **** }
  80:..\source/encoder.c **** static int32 LeftCounterWrapper()
  81:..\source/encoder.c **** {
  82:..\source/encoder.c ****     return I2c_ReadCount();
  83:..\source/encoder.c **** }
  84:..\source/encoder.c **** #define ReadCounter RightCounterWrapper
  85:..\source/encoder.c **** #else
  86:..\source/encoder.c ****     #error "You haven't defined a board, e.g. LEFT_BOARD or RIGHT_BOARD"
  87:..\source/encoder.c **** #endif
  88:..\source/encoder.c **** 
  89:..\source/encoder.c **** void Encoder_Init()
  90:..\source/encoder.c **** {
 113              		.loc 1 90 0
 114              		.cfi_startproc
 115 0000 08B5     		push	{r3, lr}
 116              		.cfi_def_cfa_offset 8
 117              		.cfi_offset 3, -8
 118              		.cfi_offset 14, -4
  91:..\source/encoder.c ****     Phase_Counter_WriteCounter(0);
 119              		.loc 1 91 0
 120 0002 0020     		mov	r0, #0
 121 0004 FFF7FEFF 		bl	Phase_Counter_WriteCounter
 122              	.LVL3:
  92:..\source/encoder.c ****     
  93:..\source/encoder.c ****     memset(&ma_left_delta_count, 0, sizeof(ma_left_delta_count));
 123              		.loc 1 93 0
 124 0008 074B     		ldr	r3, .L9
 125 000a 0022     		mov	r2, #0
 126 000c 9A60     		str	r2, [r3, #8]
  94:..\source/encoder.c ****     memset(&ma_right_delta_count, 0, sizeof(ma_right_delta_count));
 127              		.loc 1 94 0
 128 000e 1A61     		str	r2, [r3, #16]
  95:..\source/encoder.c ****     ma_left_delta_count.n = 10;
 129              		.loc 1 95 0
 130 0010 0A21     		mov	r1, #10
 131 0012 5960     		str	r1, [r3, #4]
  96:..\source/encoder.c ****     ma_right_delta_count.n = 10;
 132              		.loc 1 96 0
ARM GAS  C:\Users\Tim\AppData\Local\Temp\ccsFkJgc.s 			page 5


 133 0014 D960     		str	r1, [r3, #12]
  97:..\source/encoder.c ****     
  98:..\source/encoder.c ****     memset(&ma_left_wheel_velocity, 0, sizeof(ma_left_wheel_velocity));
 134              		.loc 1 98 0
 135 0016 9A61     		str	r2, [r3, #24]
  99:..\source/encoder.c ****     memset(&ma_right_wheel_velocity, 0, sizeof(ma_right_wheel_velocity));
 136              		.loc 1 99 0
 137 0018 1A62     		str	r2, [r3, #32]
 100:..\source/encoder.c ****     ma_left_wheel_velocity.n = 10;
 138              		.loc 1 100 0
 139 001a 5961     		str	r1, [r3, #20]
 101:..\source/encoder.c ****     ma_right_wheel_velocity.n = 10;
 140              		.loc 1 101 0
 141 001c D961     		str	r1, [r3, #28]
 102:..\source/encoder.c ****     
 103:..\source/encoder.c ****     left_wheel_velocity = 0;
 142              		.loc 1 103 0
 143 001e 9A84     		strh	r2, [r3, #36]
 104:..\source/encoder.c ****     right_wheel_velocity = 0;
 144              		.loc 1 104 0
 145 0020 DA84     		strh	r2, [r3, #38]
 105:..\source/encoder.c ****     
 106:..\source/encoder.c ****     left_count_per_second = 0;
 146              		.loc 1 106 0
 147 0022 1A85     		strh	r2, [r3, #40]
 107:..\source/encoder.c ****     right_count_per_second = 0;
 148              		.loc 1 107 0
 149 0024 5A85     		strh	r2, [r3, #42]
 108:..\source/encoder.c **** 
 109:..\source/encoder.c **** }
 150              		.loc 1 109 0
 151              		@ sp needed
 152 0026 08BD     		pop	{r3, pc}
 153              	.L10:
 154              		.align	2
 155              	.L9:
 156 0028 00000000 		.word	.LANCHOR0
 157              		.cfi_endproc
 158              	.LFE39:
 159              		.size	Encoder_Init, .-Encoder_Init
 160              		.section	.text.Encoder_Start,"ax",%progbits
 161              		.align	2
 162              		.global	Encoder_Start
 163              		.code	16
 164              		.thumb_func
 165              		.type	Encoder_Start, %function
 166              	Encoder_Start:
 167              	.LFB40:
 110:..\source/encoder.c **** 
 111:..\source/encoder.c **** void Encoder_Start()
 112:..\source/encoder.c **** {
 168              		.loc 1 112 0
 169              		.cfi_startproc
 170 0000 08B5     		push	{r3, lr}
 171              		.cfi_def_cfa_offset 8
 172              		.cfi_offset 3, -8
 173              		.cfi_offset 14, -4
ARM GAS  C:\Users\Tim\AppData\Local\Temp\ccsFkJgc.s 			page 6


 113:..\source/encoder.c ****     PhaseCounter_Intr_StartEx( Phase_Counter_Interrupt_Handler );    
 174              		.loc 1 113 0
 175 0002 0248     		ldr	r0, .L12
 176 0004 FFF7FEFF 		bl	PhaseCounter_Intr_StartEx
 177              	.LVL4:
 114:..\source/encoder.c **** }
 178              		.loc 1 114 0
 179              		@ sp needed
 180 0008 08BD     		pop	{r3, pc}
 181              	.L13:
 182 000a C046     		.align	2
 183              	.L12:
 184 000c 00000000 		.word	Phase_Counter_Interrupt_Handler
 185              		.cfi_endproc
 186              	.LFE40:
 187              		.size	Encoder_Start, .-Encoder_Start
 188              		.global	__aeabi_idiv
 189              		.global	__aeabi_i2d
 190              		.global	__aeabi_dmul
 191              		.global	__aeabi_d2iz
 192              		.section	.text.Encoder_Sample,"ax",%progbits
 193              		.align	2
 194              		.global	Encoder_Sample
 195              		.code	16
 196              		.thumb_func
 197              		.type	Encoder_Sample, %function
 198              	Encoder_Sample:
 199              	.LFB41:
 115:..\source/encoder.c **** 
 116:..\source/encoder.c **** void Encoder_Sample(uint32 delta_time)
 117:..\source/encoder.c **** {
 200              		.loc 1 117 0
 201              		.cfi_startproc
 202              	.LVL5:
 203 0000 F0B5     		push	{r4, r5, r6, r7, lr}
 204              		.cfi_def_cfa_offset 20
 205              		.cfi_offset 4, -20
 206              		.cfi_offset 5, -16
 207              		.cfi_offset 6, -12
 208              		.cfi_offset 7, -8
 209              		.cfi_offset 14, -4
 210 0002 83B0     		sub	sp, sp, #12
 211              		.cfi_def_cfa_offset 32
 212 0004 0190     		str	r0, [sp, #4]
 118:..\source/encoder.c ****     static int32 last_left_count = 0;
 119:..\source/encoder.c ****     static int32 last_right_count = 0;
 120:..\source/encoder.c ****     int32 left_delta_count;
 121:..\source/encoder.c ****     int32 right_delta_count;
 122:..\source/encoder.c ****     int32 left_count;
 123:..\source/encoder.c ****     int32 right_count;
 124:..\source/encoder.c ****     
 125:..\source/encoder.c ****     left_count = LeftCounterWrapper();
 213              		.loc 1 125 0
 214 0006 FFF7FEFF 		bl	LeftCounterWrapper
 215              	.LVL6:
 216 000a 051C     		mov	r5, r0
 217              	.LVL7:
ARM GAS  C:\Users\Tim\AppData\Local\Temp\ccsFkJgc.s 			page 7


 126:..\source/encoder.c ****     right_count = RightCounterWrapper();
 218              		.loc 1 126 0
 219 000c FFF7FEFF 		bl	RightCounterWrapper
 220              	.LVL8:
 127:..\source/encoder.c ****     
 128:..\source/encoder.c ****     left_delta_count = left_count - last_left_count;
 221              		.loc 1 128 0
 222 0010 1E4C     		ldr	r4, .L15
 223 0012 E36A     		ldr	r3, [r4, #44]
 224 0014 ED1A     		sub	r5, r5, r3
 225              	.LVL9:
 129:..\source/encoder.c ****     right_delta_count = right_count - last_right_count;
 226              		.loc 1 129 0
 227 0016 236B     		ldr	r3, [r4, #48]
 228 0018 C61A     		sub	r6, r0, r3
 229              	.LVL10:
 130:..\source/encoder.c **** 
 131:..\source/encoder.c ****     last_left_count = LeftCounterWrapper();
 230              		.loc 1 131 0
 231 001a FFF7FEFF 		bl	LeftCounterWrapper
 232              	.LVL11:
 233 001e E062     		str	r0, [r4, #44]
 132:..\source/encoder.c ****     last_right_count = RightCounterWrapper();
 234              		.loc 1 132 0
 235 0020 FFF7FEFF 		bl	RightCounterWrapper
 236              	.LVL12:
 237 0024 2063     		str	r0, [r4, #48]
 133:..\source/encoder.c ****     
 134:..\source/encoder.c ****     left_count_per_second = (left_delta_count * MS_IN_SEC) / (int32) delta_time;
 238              		.loc 1 134 0
 239 0026 FA27     		mov	r7, #250
 240 0028 BF00     		lsl	r7, r7, #2
 241 002a 7D43     		mul	r5, r7
 242              	.LVL13:
 243 002c 281C     		mov	r0, r5
 244 002e 0199     		ldr	r1, [sp, #4]
 245 0030 FFF7FEFF 		bl	__aeabi_idiv
 246              	.LVL14:
 247 0034 85B2     		uxth	r5, r0
 248 0036 2585     		strh	r5, [r4, #40]
 135:..\source/encoder.c ****     right_count_per_second =  (right_delta_count * MS_IN_SEC) / (int32) delta_time;
 249              		.loc 1 135 0
 250 0038 381C     		mov	r0, r7
 251 003a 7043     		mul	r0, r6
 252 003c 0199     		ldr	r1, [sp, #4]
 253 003e FFF7FEFF 		bl	__aeabi_idiv
 254              	.LVL15:
 255 0042 6085     		strh	r0, [r4, #42]
 136:..\source/encoder.c **** 
 137:..\source/encoder.c ****     /* Update left/right linear speeds
 138:..\source/encoder.c ****                 count     meter
 139:..\source/encoder.c ****        speed = ------- X -------
 140:..\source/encoder.c ****                  sec      count
 141:..\source/encoder.c ****     */
 142:..\source/encoder.c ****     left_wheel_velocity = MovingAverage(&ma_left_wheel_velocity, left_count_per_second * MILLIMETER
 256              		.loc 1 142 0
 257 0044 28B2     		sxth	r0, r5
ARM GAS  C:\Users\Tim\AppData\Local\Temp\ccsFkJgc.s 			page 8


 258 0046 FFF7FEFF 		bl	__aeabi_i2d
 259              	.LVL16:
 260 004a 114A     		ldr	r2, .L15+4
 261 004c 114B     		ldr	r3, .L15+8
 262 004e FFF7FEFF 		bl	__aeabi_dmul
 263              	.LVL17:
 264 0052 251C     		mov	r5, r4
 265 0054 1435     		add	r5, r5, #20
 266 0056 FFF7FEFF 		bl	__aeabi_d2iz
 267              	.LVL18:
 268 005a 011C     		mov	r1, r0
 269 005c 281C     		mov	r0, r5
 270 005e FFF7FEFF 		bl	MovingAverage
 271              	.LVL19:
 272 0062 A084     		strh	r0, [r4, #36]
 143:..\source/encoder.c ****     right_wheel_velocity = MovingAverage(&ma_right_wheel_velocity, right_count_per_second * MILLIME
 273              		.loc 1 143 0
 274 0064 2A23     		mov	r3, #42
 275 0066 E05E     		ldrsh	r0, [r4, r3]
 276 0068 FFF7FEFF 		bl	__aeabi_i2d
 277              	.LVL20:
 278 006c 084A     		ldr	r2, .L15+4
 279 006e 094B     		ldr	r3, .L15+8
 280 0070 FFF7FEFF 		bl	__aeabi_dmul
 281              	.LVL21:
 282 0074 251C     		mov	r5, r4
 283 0076 1C35     		add	r5, r5, #28
 284 0078 FFF7FEFF 		bl	__aeabi_d2iz
 285              	.LVL22:
 286 007c 011C     		mov	r1, r0
 287 007e 281C     		mov	r0, r5
 288 0080 FFF7FEFF 		bl	MovingAverage
 289              	.LVL23:
 290 0084 E084     		strh	r0, [r4, #38]
 144:..\source/encoder.c **** }
 291              		.loc 1 144 0
 292 0086 03B0     		add	sp, sp, #12
 293              		@ sp needed
 294              	.LVL24:
 295 0088 F0BD     		pop	{r4, r5, r6, r7, pc}
 296              	.L16:
 297 008a C046     		.align	2
 298              	.L15:
 299 008c 00000000 		.word	.LANCHOR0
 300 0090 C7711CC7 		.word	-954437177
 301 0094 719C0A40 		.word	1074437233
 302              		.cfi_endproc
 303              	.LFE41:
 304              		.size	Encoder_Sample, .-Encoder_Sample
 305              		.section	.text.Encoder_Update,"ax",%progbits
 306              		.align	2
 307              		.global	Encoder_Update
 308              		.code	16
 309              		.thumb_func
 310              		.type	Encoder_Update, %function
 311              	Encoder_Update:
 312              	.LFB42:
ARM GAS  C:\Users\Tim\AppData\Local\Temp\ccsFkJgc.s 			page 9


 145:..\source/encoder.c **** 
 146:..\source/encoder.c **** void Encoder_Update()
 147:..\source/encoder.c **** {
 313              		.loc 1 147 0
 314              		.cfi_startproc
 315 0000 10B5     		push	{r4, lr}
 316              		.cfi_def_cfa_offset 8
 317              		.cfi_offset 4, -8
 318              		.cfi_offset 14, -4
 148:..\source/encoder.c ****     static uint32 last_capture_time = 0;
 149:..\source/encoder.c ****     static uint32 delta_time;
 150:..\source/encoder.c ****     
 151:..\source/encoder.c ****     delta_time = millis() - last_capture_time;
 319              		.loc 1 151 0
 320 0002 FFF7FEFF 		bl	millis
 321              	.LVL25:
 322 0006 0B4C     		ldr	r4, .L18
 323 0008 636B     		ldr	r3, [r4, #52]
 324 000a C01A     		sub	r0, r0, r3
 325 000c A063     		str	r0, [r4, #56]
 152:..\source/encoder.c ****     
 153:..\source/encoder.c ****     last_capture_time = millis();
 326              		.loc 1 153 0
 327 000e FFF7FEFF 		bl	millis
 328              	.LVL26:
 329 0012 6063     		str	r0, [r4, #52]
 154:..\source/encoder.c ****     
 155:..\source/encoder.c ****     Encoder_Sample(delta_time);    
 330              		.loc 1 155 0
 331 0014 A06B     		ldr	r0, [r4, #56]
 332 0016 FFF7FEFF 		bl	Encoder_Sample
 333              	.LVL27:
 156:..\source/encoder.c ****                     
 157:..\source/encoder.c **** #ifdef LEFT_BOARD
 158:..\source/encoder.c ****     I2c_WriteCount(LeftCounterWrapper());
 334              		.loc 1 158 0
 335 001a FFF7FEFF 		bl	LeftCounterWrapper
 336              	.LVL28:
 337 001e FFF7FEFF 		bl	I2c_WriteCount
 338              	.LVL29:
 159:..\source/encoder.c ****     I2c_WriteCountPerSecond(left_count_per_second);
 339              		.loc 1 159 0
 340 0022 2823     		mov	r3, #40
 341 0024 E05E     		ldrsh	r0, [r4, r3]
 342 0026 FFF7FEFF 		bl	I2c_WriteCountPerSecond
 343              	.LVL30:
 160:..\source/encoder.c ****     I2c_WriteWheelVelocity(left_wheel_velocity);
 344              		.loc 1 160 0
 345 002a 2423     		mov	r3, #36
 346 002c E05E     		ldrsh	r0, [r4, r3]
 347 002e FFF7FEFF 		bl	I2c_WriteWheelVelocity
 348              	.LVL31:
 161:..\source/encoder.c **** #elif defined RIGHT_BOARD
 162:..\source/encoder.c ****     I2c_WriteCount(RightCounterWrapper());
 163:..\source/encoder.c ****     I2c_WriteCountPerSecond(right_count_per_second);
 164:..\source/encoder.c ****     I2c_WriteWheelVelocity(right_wheel_velocity);
 165:..\source/encoder.c **** #else
ARM GAS  C:\Users\Tim\AppData\Local\Temp\ccsFkJgc.s 			page 10


 166:..\source/encoder.c ****     #error "You haven't defined a board, e.g. LEFT_BOARD or RIGHT_BOARD"
 167:..\source/encoder.c **** #endif
 168:..\source/encoder.c **** 
 169:..\source/encoder.c **** }
 349              		.loc 1 169 0
 350              		@ sp needed
 351 0032 10BD     		pop	{r4, pc}
 352              	.L19:
 353              		.align	2
 354              	.L18:
 355 0034 00000000 		.word	.LANCHOR0
 356              		.cfi_endproc
 357              	.LFE42:
 358              		.size	Encoder_Update, .-Encoder_Update
 359              		.section	.text.Encoder_GetLRSpeed,"ax",%progbits
 360              		.align	2
 361              		.global	Encoder_GetLRSpeed
 362              		.code	16
 363              		.thumb_func
 364              		.type	Encoder_GetLRSpeed, %function
 365              	Encoder_GetLRSpeed:
 366              	.LFB43:
 170:..\source/encoder.c **** 
 171:..\source/encoder.c **** void Encoder_GetLRSpeed(int16* left, int16* right)
 172:..\source/encoder.c **** {
 367              		.loc 1 172 0
 368              		.cfi_startproc
 369              	.LVL32:
 173:..\source/encoder.c ****     *left = left_wheel_velocity;
 370              		.loc 1 173 0
 371 0000 024B     		ldr	r3, .L21
 372 0002 9A8C     		ldrh	r2, [r3, #36]
 373 0004 0280     		strh	r2, [r0]
 174:..\source/encoder.c ****     *right = right_wheel_velocity;
 374              		.loc 1 174 0
 375 0006 DB8C     		ldrh	r3, [r3, #38]
 376 0008 0B80     		strh	r3, [r1]
 175:..\source/encoder.c **** }
 377              		.loc 1 175 0
 378              		@ sp needed
 379 000a 7047     		bx	lr
 380              	.L22:
 381              		.align	2
 382              	.L21:
 383 000c 00000000 		.word	.LANCHOR0
 384              		.cfi_endproc
 385              	.LFE43:
 386              		.size	Encoder_GetLRSpeed, .-Encoder_GetLRSpeed
 387              		.section	.text.Encoder_GetWheelSpeed,"ax",%progbits
 388              		.align	2
 389              		.global	Encoder_GetWheelSpeed
 390              		.code	16
 391              		.thumb_func
 392              		.type	Encoder_GetWheelSpeed, %function
 393              	Encoder_GetWheelSpeed:
 394              	.LFB44:
 176:..\source/encoder.c **** 
ARM GAS  C:\Users\Tim\AppData\Local\Temp\ccsFkJgc.s 			page 11


 177:..\source/encoder.c **** int16 Encoder_GetWheelSpeed()
 178:..\source/encoder.c **** {
 395              		.loc 1 178 0
 396              		.cfi_startproc
 179:..\source/encoder.c **** #ifdef LEFT_BOARD
 180:..\source/encoder.c ****     return left_wheel_velocity;
 397              		.loc 1 180 0
 398 0000 014B     		ldr	r3, .L24
 399 0002 2420     		mov	r0, #36
 400 0004 185E     		ldrsh	r0, [r3, r0]
 181:..\source/encoder.c **** #elif defined RIGHT_BOARD
 182:..\source/encoder.c ****     return right_wheel_velocity;
 183:..\source/encoder.c **** #else
 184:..\source/encoder.c ****     #error "You haven't defined a board, e.g. LEFT_BOARD or RIGHT_BOARD"
 185:..\source/encoder.c **** #endif
 186:..\source/encoder.c **** }
 401              		.loc 1 186 0
 402              		@ sp needed
 403 0006 7047     		bx	lr
 404              	.L25:
 405              		.align	2
 406              	.L24:
 407 0008 00000000 		.word	.LANCHOR0
 408              		.cfi_endproc
 409              	.LFE44:
 410              		.size	Encoder_GetWheelSpeed, .-Encoder_GetWheelSpeed
 411              		.section	.text.Encoder_GetCount,"ax",%progbits
 412              		.align	2
 413              		.global	Encoder_GetCount
 414              		.code	16
 415              		.thumb_func
 416              		.type	Encoder_GetCount, %function
 417              	Encoder_GetCount:
 418              	.LFB45:
 187:..\source/encoder.c **** 
 188:..\source/encoder.c **** int32 Encoder_GetCount()
 189:..\source/encoder.c **** {
 419              		.loc 1 189 0
 420              		.cfi_startproc
 421 0000 08B5     		push	{r3, lr}
 422              		.cfi_def_cfa_offset 8
 423              		.cfi_offset 3, -8
 424              		.cfi_offset 14, -4
 190:..\source/encoder.c ****     return ReadCounter();
 425              		.loc 1 190 0
 426 0002 FFF7FEFF 		bl	LeftCounterWrapper
 427              	.LVL33:
 191:..\source/encoder.c **** }
 428              		.loc 1 191 0
 429              		@ sp needed
 430 0006 08BD     		pop	{r3, pc}
 431              		.cfi_endproc
 432              	.LFE45:
 433              		.size	Encoder_GetCount, .-Encoder_GetCount
 434              		.section	.text.Encoder_GetLRCount,"ax",%progbits
 435              		.align	2
 436              		.global	Encoder_GetLRCount
ARM GAS  C:\Users\Tim\AppData\Local\Temp\ccsFkJgc.s 			page 12


 437              		.code	16
 438              		.thumb_func
 439              		.type	Encoder_GetLRCount, %function
 440              	Encoder_GetLRCount:
 441              	.LFB46:
 192:..\source/encoder.c **** 
 193:..\source/encoder.c **** void Encoder_GetLRCount(int32* left, int32* right)
 194:..\source/encoder.c **** {
 442              		.loc 1 194 0
 443              		.cfi_startproc
 444              	.LVL34:
 445 0000 38B5     		push	{r3, r4, r5, lr}
 446              		.cfi_def_cfa_offset 16
 447              		.cfi_offset 3, -16
 448              		.cfi_offset 4, -12
 449              		.cfi_offset 5, -8
 450              		.cfi_offset 14, -4
 451 0002 051C     		mov	r5, r0
 452 0004 0C1C     		mov	r4, r1
 195:..\source/encoder.c ****     *left = LeftCounterWrapper();
 453              		.loc 1 195 0
 454 0006 FFF7FEFF 		bl	LeftCounterWrapper
 455              	.LVL35:
 456 000a 2860     		str	r0, [r5]
 196:..\source/encoder.c ****     *right = RightCounterWrapper();
 457              		.loc 1 196 0
 458 000c FFF7FEFF 		bl	RightCounterWrapper
 459              	.LVL36:
 460 0010 2060     		str	r0, [r4]
 197:..\source/encoder.c **** }
 461              		.loc 1 197 0
 462              		@ sp needed
 463              	.LVL37:
 464              	.LVL38:
 465 0012 38BD     		pop	{r3, r4, r5, pc}
 466              		.cfi_endproc
 467              	.LFE46:
 468              		.size	Encoder_GetLRCount, .-Encoder_GetLRCount
 469              		.section	.text.Encoder_Reset,"ax",%progbits
 470              		.align	2
 471              		.global	Encoder_Reset
 472              		.code	16
 473              		.thumb_func
 474              		.type	Encoder_Reset, %function
 475              	Encoder_Reset:
 476              	.LFB47:
 198:..\source/encoder.c **** 
 199:..\source/encoder.c **** void Encoder_Reset()
 200:..\source/encoder.c **** {
 477              		.loc 1 200 0
 478              		.cfi_startproc
 479 0000 08B5     		push	{r3, lr}
 480              		.cfi_def_cfa_offset 8
 481              		.cfi_offset 3, -8
 482              		.cfi_offset 14, -4
 201:..\source/encoder.c ****     left_wheel_velocity = 0;
 483              		.loc 1 201 0
ARM GAS  C:\Users\Tim\AppData\Local\Temp\ccsFkJgc.s 			page 13


 484 0002 064B     		ldr	r3, .L29
 485 0004 0022     		mov	r2, #0
 486 0006 9A84     		strh	r2, [r3, #36]
 202:..\source/encoder.c ****     right_wheel_velocity = 0;
 487              		.loc 1 202 0
 488 0008 DA84     		strh	r2, [r3, #38]
 203:..\source/encoder.c ****     left_count_per_second = 0;
 489              		.loc 1 203 0
 490 000a 1A85     		strh	r2, [r3, #40]
 204:..\source/encoder.c ****     right_count_per_second = 0;
 491              		.loc 1 204 0
 492 000c 5A85     		strh	r2, [r3, #42]
 205:..\source/encoder.c ****     Phase_Counter_WriteCounter(0);
 493              		.loc 1 205 0
 494 000e 0020     		mov	r0, #0
 495 0010 FFF7FEFF 		bl	Phase_Counter_WriteCounter
 496              	.LVL39:
 206:..\source/encoder.c ****     I2c_WriteCount(0);
 497              		.loc 1 206 0
 498 0014 0020     		mov	r0, #0
 499 0016 FFF7FEFF 		bl	I2c_WriteCount
 500              	.LVL40:
 207:..\source/encoder.c **** }
 501              		.loc 1 207 0
 502              		@ sp needed
 503 001a 08BD     		pop	{r3, pc}
 504              	.L30:
 505              		.align	2
 506              	.L29:
 507 001c 00000000 		.word	.LANCHOR0
 508              		.cfi_endproc
 509              	.LFE47:
 510              		.size	Encoder_Reset, .-Encoder_Reset
 511              		.bss
 512              		.align	2
 513              		.set	.LANCHOR0,. + 0
 514              		.type	overflow, %object
 515              		.size	overflow, 1
 516              	overflow:
 517 0000 00       		.space	1
 518              		.type	underflow, %object
 519              		.size	underflow, 1
 520              	underflow:
 521 0001 00       		.space	1
 522 0002 0000     		.space	2
 523              		.type	ma_left_delta_count, %object
 524              		.size	ma_left_delta_count, 8
 525              	ma_left_delta_count:
 526 0004 00000000 		.space	8
 526      00000000 
 527              		.type	ma_right_delta_count, %object
 528              		.size	ma_right_delta_count, 8
 529              	ma_right_delta_count:
 530 000c 00000000 		.space	8
 530      00000000 
 531              		.type	ma_left_wheel_velocity, %object
 532              		.size	ma_left_wheel_velocity, 8
ARM GAS  C:\Users\Tim\AppData\Local\Temp\ccsFkJgc.s 			page 14


 533              	ma_left_wheel_velocity:
 534 0014 00000000 		.space	8
 534      00000000 
 535              		.type	ma_right_wheel_velocity, %object
 536              		.size	ma_right_wheel_velocity, 8
 537              	ma_right_wheel_velocity:
 538 001c 00000000 		.space	8
 538      00000000 
 539              		.type	left_wheel_velocity, %object
 540              		.size	left_wheel_velocity, 2
 541              	left_wheel_velocity:
 542 0024 0000     		.space	2
 543              		.type	right_wheel_velocity, %object
 544              		.size	right_wheel_velocity, 2
 545              	right_wheel_velocity:
 546 0026 0000     		.space	2
 547              		.type	left_count_per_second, %object
 548              		.size	left_count_per_second, 2
 549              	left_count_per_second:
 550 0028 0000     		.space	2
 551              		.type	right_count_per_second, %object
 552              		.size	right_count_per_second, 2
 553              	right_count_per_second:
 554 002a 0000     		.space	2
 555              		.type	last_left_count.6960, %object
 556              		.size	last_left_count.6960, 4
 557              	last_left_count.6960:
 558 002c 00000000 		.space	4
 559              		.type	last_right_count.6961, %object
 560              		.size	last_right_count.6961, 4
 561              	last_right_count.6961:
 562 0030 00000000 		.space	4
 563              		.type	last_capture_time.6968, %object
 564              		.size	last_capture_time.6968, 4
 565              	last_capture_time.6968:
 566 0034 00000000 		.space	4
 567              		.type	delta_time.6969, %object
 568              		.size	delta_time.6969, 4
 569              	delta_time.6969:
 570 0038 00000000 		.space	4
 571              		.text
 572              	.Letext0:
 573              		.file 2 "Generated_Source\\PSoC4/cytypes.h"
 574              		.file 3 "..\\source\\utils.h"
 575              		.file 4 "Generated_Source\\PSoC4/Phase_Counter.h"
 576              		.file 5 "..\\source\\i2c.h"
 577              		.file 6 "Generated_Source\\PSoC4/PhaseCounter_Intr.h"
 578              		.file 7 "..\\source\\time.h"