ARM GAS  C:\Users\Tim\AppData\Local\Temp\ccQ51pUU.s 			page 1


   1              		.cpu cortex-m0
   2              		.fpu softvfp
   3              		.eabi_attribute 20, 1
   4              		.eabi_attribute 21, 1
   5              		.eabi_attribute 23, 3
   6              		.eabi_attribute 24, 1
   7              		.eabi_attribute 25, 1
   8              		.eabi_attribute 26, 1
   9              		.eabi_attribute 30, 1
  10              		.eabi_attribute 34, 0
  11              		.eabi_attribute 18, 4
  12              		.code	16
  13              		.file	"i2c.c"
  14              		.text
  15              	.Ltext0:
  16              		.cfi_sections	.debug_frame
  17              		.section	.text.MasterWriteSlave,"ax",%progbits
  18              		.align	2
  19              		.code	16
  20              		.thumb_func
  21              		.type	MasterWriteSlave, %function
  22              	MasterWriteSlave:
  23              	.LFB36:
  24              		.file 1 "..\\source\\i2c.c"
   1:..\source/i2c.c **** /* ========================================
   2:..\source/i2c.c ****  *
   3:..\source/i2c.c ****  * Copyright YOUR COMPANY, THE YEAR
   4:..\source/i2c.c ****  * All Rights Reserved
   5:..\source/i2c.c ****  * UNPUBLISHED, LICENSED SOFTWARE.
   6:..\source/i2c.c ****  *
   7:..\source/i2c.c ****  * CONFIDENTIAL AND PROPRIETARY INFORMATION
   8:..\source/i2c.c ****  * WHICH IS THE PROPERTY OF your company.
   9:..\source/i2c.c ****  *
  10:..\source/i2c.c ****  * ========================================
  11:..\source/i2c.c **** */
  12:..\source/i2c.c **** 
  13:..\source/i2c.c **** #include "i2c.h"
  14:..\source/i2c.c **** #include "time.h"
  15:..\source/i2c.c **** #include "hwconfig.h"
  16:..\source/i2c.c **** #include "utils.h"
  17:..\source/i2c.c **** 
  18:..\source/i2c.c **** /*
  19:..\source/i2c.c ****     I2C Communication Data Layout
  20:..\source/i2c.c **** 
  21:..\source/i2c.c ****     offset     num bytes     name                           description
  22:..\source/i2c.c ****            <------ Encoder ------>
  23:..\source/i2c.c ****       00           4         [encoder count]                contains the encoder count.  It will be
  24:..\source/i2c.c ****                                                             board that is measuring the encoder and
  25:..\source/i2c.c ****                                                             other board to calculate odometry
  26:..\source/i2c.c ****       04           2         [control register]             the control register supports 
  27:..\source/i2c.c ****                                                                 - Bit 0: enable the HB25 motors
  28:..\source/i2c.c ****                                                                 - Bit 1: clear encoder count
  29:..\source/i2c.c ****                                                                 - Bit 2: calibrate - requests the P
  30:..\source/i2c.c ****                                                                 - Bit 3: upload calibration
  31:..\source/i2c.c ****                                                                 - Bit 4: download calibration
  32:..\source/i2c.c ****                                                                 - Bit 5: validate calibration
  33:..\source/i2c.c ****       06           2         [commanded velocity]           commanded velocity is in units of milli
ARM GAS  C:\Users\Tim\AppData\Local\Temp\ccQ51pUU.s 			page 2


  34:..\source/i2c.c ****       08           2         [commanded accel]              commanded velocity in in units of milli
  35:..\source/i2c.c ****       10           2         [calibration port]             the register through which calibration 
  36:..\source/i2c.c ****                                                             when loading calibration from the Raspb
  37:..\source/i2c.c ****                                                             calibration data is passed from the Pso
  38:..\source/i2c.c ****                                                             for storage in a file
  39:..\source/i2c.c ****     ------------------------------ Read/Write Boundary --------------------------------------------
  40:..\source/i2c.c ****       12           2         [device status]                contains bits that represent the status
  41:..\source/i2c.c ****                                                                - Bit 0: HB25 Motor Controller Initi
  42:..\source/i2c.c ****                                                                - Bit 1: Calibrated - indicates whet
  43:..\source/i2c.c ****                                                                         values have been loaded; 0 
  44:..\source/i2c.c ****                                                                - Bit 2: Calibrating - indicates whe
  45:..\source/i2c.c ****                                                                         calibration; 0 - no, 1 - ye
  46:..\source/i2c.c ****         <---- Left/Right Velocity ---->
  47:..\source/i2c.c ****       14           2         [wheel velocity]
  48:..\source/i2c.c ****       16           2         [count per second]
  49:..\source/i2c.c ****            <------ Odometry ------>
  50:..\source/i2c.c ****       14           4         [x distance]                   measured x distance
  51:..\source/i2c.c ****       18           4         [y distance]                   measured y distance
  52:..\source/i2c.c ****       22           4         [heading]                      measured heading
  53:..\source/i2c.c ****       26           4         [linear velocity]              measured linear velocity
  54:..\source/i2c.c ****       30           4         [angular velocity]             measured angular velocity
  55:..\source/i2c.c ****           <------ Ultrasonic ------>
  56:..\source/i2c.c ****       34          16         [ultrasonic distance]          ultrasonic distance is an array of 
  57:..\source/i2c.c ****                                                             distances from the ultrasonic sensors i
  58:..\source/i2c.c ****                                                             centimeters, range 2 to 500
  59:..\source/i2c.c ****            <------ Infrared ------>
  60:..\source/i2c.c ****       50           8         [infrared distance]            infrared distance is an array of distan
  61:..\source/i2c.c ****                                                             from the infrared sensors in centimeter
  62:..\source/i2c.c ****                                                             range 10 to 80
  63:..\source/i2c.c ****       58           1         [test]                         used for testing the i2c communication
  64:..\source/i2c.c ****  */
  65:..\source/i2c.c **** 
  66:..\source/i2c.c **** /* Define the portion of the I2C Slave that Read/Write */
  67:..\source/i2c.c **** typedef struct
  68:..\source/i2c.c **** {
  69:..\source/i2c.c ****     int32  encoder_count;
  70:..\source/i2c.c ****     uint16 control;
  71:..\source/i2c.c ****     int16  cmd_velocity;
  72:..\source/i2c.c ****     int16  cmd_acceleration;
  73:..\source/i2c.c ****     uint16 calibration_port;
  74:..\source/i2c.c **** } __attribute__ ((packed)) READWRITE_TYPE;
  75:..\source/i2c.c **** 
  76:..\source/i2c.c **** /* Define the odometry structure for communicating the position, heading and velocity of the wheel 
  77:..\source/i2c.c ****    Note: Each Psoc board controls a single wheel, but calculates and reports odometry for the robot
  78:..\source/i2c.c ****  */
  79:..\source/i2c.c **** typedef struct
  80:..\source/i2c.c **** {
  81:..\source/i2c.c ****     float x_dist;
  82:..\source/i2c.c ****     float y_dist;
  83:..\source/i2c.c ****     float heading;
  84:..\source/i2c.c ****     float linear_velocity;
  85:..\source/i2c.c ****     float angular_velocity;
  86:..\source/i2c.c **** } __attribute__ ((packed)) ODOMETRY;
  87:..\source/i2c.c **** 
  88:..\source/i2c.c **** /* Define the structure for ultrasonic sensors */
  89:..\source/i2c.c **** typedef struct
  90:..\source/i2c.c **** {
ARM GAS  C:\Users\Tim\AppData\Local\Temp\ccQ51pUU.s 			page 3


  91:..\source/i2c.c ****     uint16 values[NUM_ULTRASONIC_SENSORS];
  92:..\source/i2c.c **** } __attribute__ ((packed)) ULTRASONIC;
  93:..\source/i2c.c **** 
  94:..\source/i2c.c **** /* Define the structure for infrared sensors */
  95:..\source/i2c.c **** typedef struct
  96:..\source/i2c.c **** {
  97:..\source/i2c.c ****     uint8 values[NUM_INFRARED_SENSORS];
  98:..\source/i2c.c **** } __attribute__((packed)) INFRARED;
  99:..\source/i2c.c **** 
 100:..\source/i2c.c **** /* Define the I2C Slave that Read Only */
 101:..\source/i2c.c **** typedef struct
 102:..\source/i2c.c **** {
 103:..\source/i2c.c ****     uint16     status;
 104:..\source/i2c.c ****     int16      wheel_velocity;
 105:..\source/i2c.c ****     uint16     count_per_sec;
 106:..\source/i2c.c ****     ODOMETRY   odom;
 107:..\source/i2c.c ****     ULTRASONIC us;
 108:..\source/i2c.c ****     INFRARED   ir;
 109:..\source/i2c.c ****     uint8      test;
 110:..\source/i2c.c **** } __attribute__ ((packed)) READONLY_TYPE;
 111:..\source/i2c.c **** 
 112:..\source/i2c.c **** /* Define the I2C Slave data interface */
 113:..\source/i2c.c **** typedef struct
 114:..\source/i2c.c **** {
 115:..\source/i2c.c ****     READWRITE_TYPE read_write;
 116:..\source/i2c.c ****     /*---------R/W Boundary -----------*/
 117:..\source/i2c.c ****     READONLY_TYPE read_only;
 118:..\source/i2c.c **** } __attribute__ ((packed)) I2C_DATASTRUCT;
 119:..\source/i2c.c **** 
 120:..\source/i2c.c **** 
 121:..\source/i2c.c **** /* The following structure was created to allow the encoder count to be read from the other board. 
 122:..\source/i2c.c ****    provide for reading at an offset on the slave.  So, unfortunately, we need to read from offset 0
 123:..\source/i2c.c ****    count.
 124:..\source/i2c.c **** 
 125:..\source/i2c.c ****    Note: It is possible to move the encoder count to the read/write section of the slave.  Somethin
 126:..\source/i2c.c ****  */
 127:..\source/i2c.c **** typedef struct
 128:..\source/i2c.c **** {
 129:..\source/i2c.c ****     int32  count;
 130:..\source/i2c.c **** } __attribute__((packed)) SLAVE_DATA_TYPE;
 131:..\source/i2c.c **** 
 132:..\source/i2c.c **** /* Define the I2C Slave buffer (as seen by the slave on this Psoc) */
 133:..\source/i2c.c **** static I2C_DATASTRUCT i2c_buf;
 134:..\source/i2c.c **** /* Define the I2C Slave buffer (as seen by the master on this Psoc) */
 135:..\source/i2c.c **** static SLAVE_DATA_TYPE i2c_slave_data;
 136:..\source/i2c.c **** /* Define a persistant status that can be set and cleared */
 137:..\source/i2c.c **** static uint16 i2c_status;
 138:..\source/i2c.c **** 
 139:..\source/i2c.c **** 
 140:..\source/i2c.c **** /*-------------------------------------------------------------------------------------------------
 141:..\source/i2c.c **** 
 142:..\source/i2c.c ****   Statis Functions
 143:..\source/i2c.c **** 
 144:..\source/i2c.c ****  --------------------------------------------------------------------------------------------------
 145:..\source/i2c.c **** 
 146:..\source/i2c.c **** /* This function performs the write portion of an I2C read 
 147:..\source/i2c.c ****    allowing the master to read the encoder count on the other Psoc 
ARM GAS  C:\Users\Tim\AppData\Local\Temp\ccQ51pUU.s 			page 4


 148:..\source/i2c.c ****  */
 149:..\source/i2c.c **** static uint8 MasterWriteSlave(uint8 addr, uint8 *buf, uint8 len)
 150:..\source/i2c.c **** {
  25              		.loc 1 150 0
  26              		.cfi_startproc
  27              	.LVL0:
  28 0000 70B5     		push	{r4, r5, r6, lr}
  29              		.cfi_def_cfa_offset 16
  30              		.cfi_offset 4, -16
  31              		.cfi_offset 5, -12
  32              		.cfi_offset 6, -8
  33              		.cfi_offset 14, -4
  34 0002 82B0     		sub	sp, sp, #8
  35              		.cfi_def_cfa_offset 24
  36 0004 061C     		mov	r6, r0
  37 0006 0D1C     		mov	r5, r1
  38 0008 141C     		mov	r4, r2
 151:..\source/i2c.c ****     uint8 volatile status;
 152:..\source/i2c.c ****     
 153:..\source/i2c.c ****     status = I2C_Master_I2CMasterClearStatus();
  39              		.loc 1 153 0
  40 000a FFF7FEFF 		bl	I2C_Master_I2CMasterClearStatus
  41              	.LVL1:
  42 000e C0B2     		uxtb	r0, r0
  43 0010 6B46     		mov	r3, sp
  44 0012 D871     		strb	r0, [r3, #7]
  45 0014 0733     		add	r3, r3, #7
 154:..\source/i2c.c ****     if(!(status & I2C_Master_I2C_MSTAT_ERR_XFER))
  46              		.loc 1 154 0
  47 0016 1B78     		ldrb	r3, [r3]
 155:..\source/i2c.c ****     {
 156:..\source/i2c.c ****         status = I2C_Master_I2CMasterWriteBuf(addr, buf, len, I2C_Master_I2C_MODE_COMPLETE_XFER);
  48              		.loc 1 156 0
  49 0018 301C     		mov	r0, r6
  50 001a 291C     		mov	r1, r5
  51 001c 221C     		mov	r2, r4
  52 001e 0023     		mov	r3, #0
  53 0020 FFF7FEFF 		bl	I2C_Master_I2CMasterWriteBuf
  54              	.LVL2:
  55 0024 C0B2     		uxtb	r0, r0
  56 0026 6B46     		mov	r3, sp
  57 0028 D871     		strb	r0, [r3, #7]
  58 002a 0733     		add	r3, r3, #7
 157:..\source/i2c.c ****         if(status == I2C_Master_I2C_MSTR_NO_ERROR)
  59              		.loc 1 157 0
  60 002c 1B78     		ldrb	r3, [r3]
  61 002e 002B     		cmp	r3, #0
  62 0030 09D1     		bne	.L3
  63              	.L4:
 158:..\source/i2c.c ****         {
 159:..\source/i2c.c ****             /* wait for write complete and no error */
 160:..\source/i2c.c ****             do
 161:..\source/i2c.c ****             {
 162:..\source/i2c.c ****                 status = I2C_Master_I2CMasterStatus();
  64              		.loc 1 162 0 discriminator 1
  65 0032 FFF7FEFF 		bl	I2C_Master_I2CMasterStatus
  66              	.LVL3:
ARM GAS  C:\Users\Tim\AppData\Local\Temp\ccQ51pUU.s 			page 5


  67 0036 C0B2     		uxtb	r0, r0
  68 0038 6B46     		mov	r3, sp
  69 003a D871     		strb	r0, [r3, #7]
  70 003c 0733     		add	r3, r3, #7
 163:..\source/i2c.c ****             } while((status & (I2C_Master_I2C_MSTAT_WR_CMPLT | I2C_Master_I2C_MSTAT_ERR_XFER)) == 0
  71              		.loc 1 163 0 discriminator 1
  72 003e 1B78     		ldrb	r3, [r3]
  73 0040 9B07     		lsl	r3, r3, #30
  74 0042 F6D5     		bpl	.L4
  75 0044 02E0     		b	.L2
  76              	.L3:
 164:..\source/i2c.c ****         }
 165:..\source/i2c.c ****         else
 166:..\source/i2c.c ****         {
 167:..\source/i2c.c ****             /* translate from I2C_Master_I2CMasterWriteBuf() error output to
 168:..\source/i2c.c ****             *  I2CM_I2CMasterStatus() error output */
 169:..\source/i2c.c ****             status = (uint8)I2C_Master_I2C_MSTAT_ERR_XFER;
  77              		.loc 1 169 0
  78 0046 0022     		mov	r2, #0
  79 0048 6B46     		mov	r3, sp
  80 004a DA71     		strb	r2, [r3, #7]
  81              	.L2:
 170:..\source/i2c.c ****         }
 171:..\source/i2c.c ****     }
 172:..\source/i2c.c ****     
 173:..\source/i2c.c ****     return status;
  82              		.loc 1 173 0
  83 004c 6B46     		mov	r3, sp
  84 004e D879     		ldrb	r0, [r3, #7]
  85 0050 C0B2     		uxtb	r0, r0
 174:..\source/i2c.c **** }
  86              		.loc 1 174 0
  87 0052 02B0     		add	sp, sp, #8
  88              		@ sp needed
  89              	.LVL4:
  90 0054 70BD     		pop	{r4, r5, r6, pc}
  91              		.cfi_endproc
  92              	.LFE36:
  93              		.size	MasterWriteSlave, .-MasterWriteSlave
  94 0056 C046     		.section	.text.MasterReadSlave,"ax",%progbits
  95              		.align	2
  96              		.code	16
  97              		.thumb_func
  98              		.type	MasterReadSlave, %function
  99              	MasterReadSlave:
 100              	.LFB37:
 175:..\source/i2c.c **** 
 176:..\source/i2c.c **** /* This function performs the read portion of an I2C read 
 177:..\source/i2c.c ****    allowing the master to read the encoder count on the other Psoc
 178:..\source/i2c.c ****  */
 179:..\source/i2c.c **** static uint8 MasterReadSlave(uint8 address, uint8 offset, uint8 len, uint8 *buf)
 180:..\source/i2c.c **** {
 101              		.loc 1 180 0
 102              		.cfi_startproc
 103              	.LVL5:
 104 0000 70B5     		push	{r4, r5, r6, lr}
 105              		.cfi_def_cfa_offset 16
ARM GAS  C:\Users\Tim\AppData\Local\Temp\ccQ51pUU.s 			page 6


 106              		.cfi_offset 4, -16
 107              		.cfi_offset 5, -12
 108              		.cfi_offset 6, -8
 109              		.cfi_offset 14, -4
 110 0002 84B0     		sub	sp, sp, #16
 111              		.cfi_def_cfa_offset 32
 112 0004 041C     		mov	r4, r0
 113 0006 151C     		mov	r5, r2
 114 0008 1E1C     		mov	r6, r3
 115 000a 6B46     		mov	r3, sp
 116              	.LVL6:
 117 000c D971     		strb	r1, [r3, #7]
 118 000e 0733     		add	r3, r3, #7
 181:..\source/i2c.c ****     uint8 volatile status; /* copy of EZI2C activity status */
 182:..\source/i2c.c ****     
 183:..\source/i2c.c ****     status = MasterWriteSlave(address, &offset, 1);
 119              		.loc 1 183 0
 120 0010 191C     		mov	r1, r3
 121              	.LVL7:
 122 0012 0122     		mov	r2, #1
 123              	.LVL8:
 124 0014 FFF7FEFF 		bl	MasterWriteSlave
 125              	.LVL9:
 126 0018 0F23     		mov	r3, #15
 127 001a 6B44     		add	r3, r3, sp
 128 001c 1870     		strb	r0, [r3]
 184:..\source/i2c.c ****     if(!(status & I2C_Master_I2C_MSTAT_ERR_XFER))
 129              		.loc 1 184 0
 130 001e 1B78     		ldrb	r3, [r3]
 185:..\source/i2c.c ****     {
 186:..\source/i2c.c ****         status = I2C_Master_I2CMasterClearStatus();
 131              		.loc 1 186 0
 132 0020 FFF7FEFF 		bl	I2C_Master_I2CMasterClearStatus
 133              	.LVL10:
 134 0024 C0B2     		uxtb	r0, r0
 135 0026 0F23     		mov	r3, #15
 136 0028 6B44     		add	r3, r3, sp
 137 002a 1870     		strb	r0, [r3]
 187:..\source/i2c.c ****         if(!(status & I2C_Master_I2C_MSTAT_ERR_XFER))
 138              		.loc 1 187 0
 139 002c 1B78     		ldrb	r3, [r3]
 188:..\source/i2c.c ****         {
 189:..\source/i2c.c ****             status = I2C_Master_I2CMasterReadBuf(address, 
 140              		.loc 1 189 0
 141 002e 201C     		mov	r0, r4
 142 0030 311C     		mov	r1, r6
 143 0032 2A1C     		mov	r2, r5
 144 0034 0023     		mov	r3, #0
 145 0036 FFF7FEFF 		bl	I2C_Master_I2CMasterReadBuf
 146              	.LVL11:
 147 003a C0B2     		uxtb	r0, r0
 148 003c 0F23     		mov	r3, #15
 149 003e 6B44     		add	r3, r3, sp
 150 0040 1870     		strb	r0, [r3]
 190:..\source/i2c.c ****                                                  buf, 
 191:..\source/i2c.c ****                                                  len, 
 192:..\source/i2c.c ****                                                  I2C_Master_I2C_MODE_COMPLETE_XFER);
ARM GAS  C:\Users\Tim\AppData\Local\Temp\ccQ51pUU.s 			page 7


 193:..\source/i2c.c ****             if(status == I2C_Master_I2C_MSTR_NO_ERROR)
 151              		.loc 1 193 0
 152 0042 1B78     		ldrb	r3, [r3]
 153 0044 002B     		cmp	r3, #0
 154 0046 09D1     		bne	.L7
 155              	.L8:
 194:..\source/i2c.c ****             {
 195:..\source/i2c.c ****                 /* wait for read complete and no error */
 196:..\source/i2c.c ****                 do
 197:..\source/i2c.c ****                 {
 198:..\source/i2c.c ****                     status = I2C_Master_I2CMasterStatus();
 156              		.loc 1 198 0 discriminator 1
 157 0048 FFF7FEFF 		bl	I2C_Master_I2CMasterStatus
 158              	.LVL12:
 159 004c C0B2     		uxtb	r0, r0
 160 004e 0F23     		mov	r3, #15
 161 0050 6B44     		add	r3, r3, sp
 162 0052 1870     		strb	r0, [r3]
 199:..\source/i2c.c ****                 } while((status & (I2C_Master_I2C_MSTAT_RD_CMPLT | I2C_Master_I2C_MSTAT_ERR_XFER)) 
 163              		.loc 1 199 0 discriminator 1
 164 0054 1B78     		ldrb	r3, [r3]
 165 0056 DB07     		lsl	r3, r3, #31
 166 0058 F6D5     		bpl	.L8
 167 005a 03E0     		b	.L6
 168              	.L7:
 200:..\source/i2c.c ****             }
 201:..\source/i2c.c ****             else
 202:..\source/i2c.c ****             {
 203:..\source/i2c.c ****                 /* translate from I2C_Master_MasterReadBuf() error output to
 204:..\source/i2c.c ****                 *  I2CM_MasterStatus() error output */
 205:..\source/i2c.c ****                 status = (uint8)I2C_Master_I2C_MSTAT_ERR_XFER;
 169              		.loc 1 205 0
 170 005c 0022     		mov	r2, #0
 171 005e 0F23     		mov	r3, #15
 172 0060 6B44     		add	r3, r3, sp
 173 0062 1A70     		strb	r2, [r3]
 174              	.L6:
 206:..\source/i2c.c ****             }
 207:..\source/i2c.c ****         }
 208:..\source/i2c.c ****     }
 209:..\source/i2c.c ****     
 210:..\source/i2c.c ****     return status;
 175              		.loc 1 210 0
 176 0064 0F23     		mov	r3, #15
 177 0066 6B44     		add	r3, r3, sp
 178 0068 1878     		ldrb	r0, [r3]
 179 006a C0B2     		uxtb	r0, r0
 211:..\source/i2c.c **** }
 180              		.loc 1 211 0
 181 006c 04B0     		add	sp, sp, #16
 182              	.LVL13:
 183              		@ sp needed
 184              	.LVL14:
 185 006e 70BD     		pop	{r4, r5, r6, pc}
 186              		.cfi_endproc
 187              	.LFE37:
 188              		.size	MasterReadSlave, .-MasterReadSlave
ARM GAS  C:\Users\Tim\AppData\Local\Temp\ccQ51pUU.s 			page 8


 189              		.section	.text.I2c_Init,"ax",%progbits
 190              		.align	2
 191              		.global	I2c_Init
 192              		.code	16
 193              		.thumb_func
 194              		.type	I2c_Init, %function
 195              	I2c_Init:
 196              	.LFB38:
 212:..\source/i2c.c **** 
 213:..\source/i2c.c **** /*-------------------------------------------------------------------------------------------------
 214:..\source/i2c.c **** 
 215:..\source/i2c.c ****   Public Functions
 216:..\source/i2c.c **** 
 217:..\source/i2c.c ****  --------------------------------------------------------------------------------------------------
 218:..\source/i2c.c **** 
 219:..\source/i2c.c **** void I2c_Init()
 220:..\source/i2c.c **** {
 197              		.loc 1 220 0
 198              		.cfi_startproc
 221:..\source/i2c.c ****     memset( &i2c_buf, 0, sizeof(i2c_buf));
 199              		.loc 1 221 0
 200 0000 0A4B     		ldr	r3, .L10
 201 0002 0022     		mov	r2, #0
 202 0004 1A60     		str	r2, [r3]
 203 0006 5A60     		str	r2, [r3, #4]
 204 0008 9A60     		str	r2, [r3, #8]
 205 000a DA60     		str	r2, [r3, #12]
 206 000c 1A61     		str	r2, [r3, #16]
 207 000e 5A61     		str	r2, [r3, #20]
 208 0010 9A61     		str	r2, [r3, #24]
 209 0012 DA61     		str	r2, [r3, #28]
 210 0014 1A62     		str	r2, [r3, #32]
 211 0016 5A62     		str	r2, [r3, #36]
 212 0018 9A62     		str	r2, [r3, #40]
 213 001a DA62     		str	r2, [r3, #44]
 214 001c 1A86     		strh	r2, [r3, #48]
 215 001e 3221     		mov	r1, #50
 216 0020 0020     		mov	r0, #0
 217 0022 5854     		strb	r0, [r3, r1]
 222:..\source/i2c.c ****     memset( &i2c_slave_data, 0, sizeof(i2c_slave_data));
 218              		.loc 1 222 0
 219 0024 5A63     		str	r2, [r3, #52]
 223:..\source/i2c.c ****     i2c_status = 0;
 220              		.loc 1 223 0
 221 0026 1A87     		strh	r2, [r3, #56]
 224:..\source/i2c.c **** }
 222              		.loc 1 224 0
 223              		@ sp needed
 224 0028 7047     		bx	lr
 225              	.L11:
 226 002a C046     		.align	2
 227              	.L10:
 228 002c 00000000 		.word	.LANCHOR0
 229              		.cfi_endproc
 230              	.LFE38:
 231              		.size	I2c_Init, .-I2c_Init
 232              		.section	.text.I2c_Start,"ax",%progbits
ARM GAS  C:\Users\Tim\AppData\Local\Temp\ccQ51pUU.s 			page 9


 233              		.align	2
 234              		.global	I2c_Start
 235              		.code	16
 236              		.thumb_func
 237              		.type	I2c_Start, %function
 238              	I2c_Start:
 239              	.LFB39:
 225:..\source/i2c.c **** 
 226:..\source/i2c.c **** void I2c_Start()
 227:..\source/i2c.c **** {
 240              		.loc 1 227 0
 241              		.cfi_startproc
 242 0000 08B5     		push	{r3, lr}
 243              		.cfi_def_cfa_offset 8
 244              		.cfi_offset 3, -8
 245              		.cfi_offset 14, -4
 228:..\source/i2c.c ****     EZI2C_Slave_EzI2CSetAddress1(I2C_ADDRESS);
 246              		.loc 1 228 0
 247 0002 0820     		mov	r0, #8
 248 0004 FFF7FEFF 		bl	EZI2C_Slave_EzI2CSetAddress1
 249              	.LVL15:
 229:..\source/i2c.c ****     EZI2C_Slave_EzI2CSetBuffer1(sizeof(i2c_buf), sizeof(i2c_buf.read_only), (volatile uint8 *) &i2c
 250              		.loc 1 229 0
 251 0008 3320     		mov	r0, #51
 252 000a 2721     		mov	r1, #39
 253 000c 034A     		ldr	r2, .L13
 254 000e FFF7FEFF 		bl	EZI2C_Slave_EzI2CSetBuffer1
 255              	.LVL16:
 230:..\source/i2c.c ****     EZI2C_Slave_Start();
 256              		.loc 1 230 0
 257 0012 FFF7FEFF 		bl	EZI2C_Slave_Start
 258              	.LVL17:
 231:..\source/i2c.c ****     
 232:..\source/i2c.c ****     I2C_Master_Start();    
 259              		.loc 1 232 0
 260 0016 FFF7FEFF 		bl	I2C_Master_Start
 261              	.LVL18:
 233:..\source/i2c.c **** }
 262              		.loc 1 233 0
 263              		@ sp needed
 264 001a 08BD     		pop	{r3, pc}
 265              	.L14:
 266              		.align	2
 267              	.L13:
 268 001c 00000000 		.word	.LANCHOR0
 269              		.cfi_endproc
 270              	.LFE39:
 271              		.size	I2c_Start, .-I2c_Start
 272              		.section	.text.I2c_WriteCount,"ax",%progbits
 273              		.align	2
 274              		.global	I2c_WriteCount
 275              		.code	16
 276              		.thumb_func
 277              		.type	I2c_WriteCount, %function
 278              	I2c_WriteCount:
 279              	.LFB40:
 234:..\source/i2c.c **** 
ARM GAS  C:\Users\Tim\AppData\Local\Temp\ccQ51pUU.s 			page 10


 235:..\source/i2c.c **** void I2c_WriteCount(int32 count)
 236:..\source/i2c.c **** {
 280              		.loc 1 236 0
 281              		.cfi_startproc
 282              	.LVL19:
 237:..\source/i2c.c ****     i2c_buf.read_write.encoder_count = count;
 283              		.loc 1 237 0
 284 0000 014B     		ldr	r3, .L16
 285 0002 1860     		str	r0, [r3]
 238:..\source/i2c.c **** }
 286              		.loc 1 238 0
 287              		@ sp needed
 288 0004 7047     		bx	lr
 289              	.L17:
 290 0006 C046     		.align	2
 291              	.L16:
 292 0008 00000000 		.word	.LANCHOR0
 293              		.cfi_endproc
 294              	.LFE40:
 295              		.size	I2c_WriteCount, .-I2c_WriteCount
 296              		.section	.text.I2c_ReadCount,"ax",%progbits
 297              		.align	2
 298              		.global	I2c_ReadCount
 299              		.code	16
 300              		.thumb_func
 301              		.type	I2c_ReadCount, %function
 302              	I2c_ReadCount:
 303              	.LFB41:
 239:..\source/i2c.c **** 
 240:..\source/i2c.c **** int32 I2c_ReadCount()
 241:..\source/i2c.c **** {
 304              		.loc 1 241 0
 305              		.cfi_startproc
 306 0000 10B5     		push	{r4, lr}
 307              		.cfi_def_cfa_offset 8
 308              		.cfi_offset 4, -8
 309              		.cfi_offset 14, -4
 310              	.LVL20:
 242:..\source/i2c.c ****     uint16 status;
 243:..\source/i2c.c ****     uint32 retries_remaining = 10;
 311              		.loc 1 243 0
 312 0002 0A24     		mov	r4, #10
 313 0004 00E0     		b	.L20
 314              	.LVL21:
 315              	.L23:
 244:..\source/i2c.c **** 
 245:..\source/i2c.c ****     do
 246:..\source/i2c.c ****     {
 247:..\source/i2c.c ****         status = MasterReadSlave(OTHER_BOARD_ADDR, 0, sizeof(i2c_slave_data), (uint8 *) &i2c_slave_
 248:..\source/i2c.c ****     }
 249:..\source/i2c.c ****     while (status == I2C_Master_I2C_MSTAT_ERR_XFER && retries_remaining--);
 316              		.loc 1 249 0
 317 0006 1C1C     		mov	r4, r3
 318              	.LVL22:
 319              	.L20:
 247:..\source/i2c.c ****     }
 320              		.loc 1 247 0 discriminator 2
ARM GAS  C:\Users\Tim\AppData\Local\Temp\ccQ51pUU.s 			page 11


 321 0008 0920     		mov	r0, #9
 322 000a 0021     		mov	r1, #0
 323 000c 0422     		mov	r2, #4
 324 000e 0B4B     		ldr	r3, .L24
 325 0010 3433     		add	r3, r3, #52
 326 0012 FFF7FEFF 		bl	MasterReadSlave
 327              	.LVL23:
 328 0016 80B2     		uxth	r0, r0
 329              	.LVL24:
 330              		.loc 1 249 0 discriminator 2
 331 0018 8023     		mov	r3, #128
 332 001a 9B00     		lsl	r3, r3, #2
 333 001c 9842     		cmp	r0, r3
 334 001e 03D1     		bne	.L22
 335              		.loc 1 249 0 is_stmt 0 discriminator 1
 336 0020 631E     		sub	r3, r4, #1
 337              	.LVL25:
 338 0022 002C     		cmp	r4, #0
 339 0024 EFD1     		bne	.L23
 340 0026 00E0     		b	.L19
 341              	.LVL26:
 342              	.L22:
 343 0028 231C     		mov	r3, r4
 344              	.LVL27:
 345              	.L19:
 250:..\source/i2c.c ****     
 251:..\source/i2c.c ****     if (retries_remaining == 0)
 346              		.loc 1 251 0 is_stmt 1
 347 002a 002B     		cmp	r3, #0
 348 002c 02D1     		bne	.L21
 252:..\source/i2c.c ****     {
 253:..\source/i2c.c ****         i2c_slave_data.count = 0;
 349              		.loc 1 253 0
 350 002e 0022     		mov	r2, #0
 351 0030 024B     		ldr	r3, .L24
 352              	.LVL28:
 353 0032 5A63     		str	r2, [r3, #52]
 354              	.L21:
 254:..\source/i2c.c ****     }
 255:..\source/i2c.c ****     
 256:..\source/i2c.c ****     return i2c_slave_data.count;
 355              		.loc 1 256 0
 356 0034 014B     		ldr	r3, .L24
 357 0036 586B     		ldr	r0, [r3, #52]
 358              	.LVL29:
 257:..\source/i2c.c **** }
 359              		.loc 1 257 0
 360              		@ sp needed
 361 0038 10BD     		pop	{r4, pc}
 362              	.L25:
 363 003a C046     		.align	2
 364              	.L24:
 365 003c 00000000 		.word	.LANCHOR0
 366              		.cfi_endproc
 367              	.LFE41:
 368              		.size	I2c_ReadCount, .-I2c_ReadCount
 369              		.section	.text.I2c_ReadControl,"ax",%progbits
ARM GAS  C:\Users\Tim\AppData\Local\Temp\ccQ51pUU.s 			page 12


 370              		.align	2
 371              		.global	I2c_ReadControl
 372              		.code	16
 373              		.thumb_func
 374              		.type	I2c_ReadControl, %function
 375              	I2c_ReadControl:
 376              	.LFB42:
 258:..\source/i2c.c **** 
 259:..\source/i2c.c **** uint16 I2c_ReadControl()
 260:..\source/i2c.c **** {
 377              		.loc 1 260 0
 378              		.cfi_startproc
 261:..\source/i2c.c ****     uint16 value;
 262:..\source/i2c.c ****     
 263:..\source/i2c.c ****     value = i2c_buf.read_write.control;
 379              		.loc 1 263 0
 380 0000 024B     		ldr	r3, .L27
 381 0002 9888     		ldrh	r0, [r3, #4]
 382              	.LVL30:
 264:..\source/i2c.c ****     i2c_buf.read_write.control = 0;
 383              		.loc 1 264 0
 384 0004 0022     		mov	r2, #0
 385 0006 9A80     		strh	r2, [r3, #4]
 265:..\source/i2c.c ****     
 266:..\source/i2c.c ****     //value |= CONTROL_ENABLE_CALIBRATION_BIT;
 267:..\source/i2c.c ****     //value |= CONTROL_VALIDATE_CALIBRATION_BIT;
 268:..\source/i2c.c ****     
 269:..\source/i2c.c ****     return value;
 270:..\source/i2c.c **** }
 386              		.loc 1 270 0
 387              		@ sp needed
 388 0008 7047     		bx	lr
 389              	.L28:
 390 000a C046     		.align	2
 391              	.L27:
 392 000c 00000000 		.word	.LANCHOR0
 393              		.cfi_endproc
 394              	.LFE42:
 395              		.size	I2c_ReadControl, .-I2c_ReadControl
 396              		.section	.text.I2c_ReadVelocity,"ax",%progbits
 397              		.align	2
 398              		.global	I2c_ReadVelocity
 399              		.code	16
 400              		.thumb_func
 401              		.type	I2c_ReadVelocity, %function
 402              	I2c_ReadVelocity:
 403              	.LFB43:
 271:..\source/i2c.c **** 
 272:..\source/i2c.c **** void I2c_ReadVelocity(int16* velocity)
 273:..\source/i2c.c **** {
 404              		.loc 1 273 0
 405              		.cfi_startproc
 406              	.LVL31:
 274:..\source/i2c.c ****     *velocity = i2c_buf.read_write.cmd_velocity;
 275:..\source/i2c.c ****     *velocity = 400;
 407              		.loc 1 275 0
 408 0000 C823     		mov	r3, #200
ARM GAS  C:\Users\Tim\AppData\Local\Temp\ccQ51pUU.s 			page 13


 409 0002 5B00     		lsl	r3, r3, #1
 410 0004 0380     		strh	r3, [r0]
 276:..\source/i2c.c **** }
 411              		.loc 1 276 0
 412              		@ sp needed
 413 0006 7047     		bx	lr
 414              		.cfi_endproc
 415              	.LFE43:
 416              		.size	I2c_ReadVelocity, .-I2c_ReadVelocity
 417              		.section	.text.I2c_ReadAcceleration,"ax",%progbits
 418              		.align	2
 419              		.global	I2c_ReadAcceleration
 420              		.code	16
 421              		.thumb_func
 422              		.type	I2c_ReadAcceleration, %function
 423              	I2c_ReadAcceleration:
 424              	.LFB44:
 277:..\source/i2c.c **** 
 278:..\source/i2c.c **** void I2c_ReadAcceleration(int16* accel)
 279:..\source/i2c.c **** {
 425              		.loc 1 279 0
 426              		.cfi_startproc
 427              	.LVL32:
 280:..\source/i2c.c ****     *accel = i2c_buf.read_write.cmd_acceleration;
 428              		.loc 1 280 0
 429 0000 014B     		ldr	r3, .L31
 430 0002 1B89     		ldrh	r3, [r3, #8]
 431 0004 0380     		strh	r3, [r0]
 281:..\source/i2c.c **** }
 432              		.loc 1 281 0
 433              		@ sp needed
 434 0006 7047     		bx	lr
 435              	.L32:
 436              		.align	2
 437              	.L31:
 438 0008 00000000 		.word	.LANCHOR0
 439              		.cfi_endproc
 440              	.LFE44:
 441              		.size	I2c_ReadAcceleration, .-I2c_ReadAcceleration
 442              		.section	.text.I2c_WriteCalReg,"ax",%progbits
 443              		.align	2
 444              		.global	I2c_WriteCalReg
 445              		.code	16
 446              		.thumb_func
 447              		.type	I2c_WriteCalReg, %function
 448              	I2c_WriteCalReg:
 449              	.LFB45:
 282:..\source/i2c.c **** 
 283:..\source/i2c.c **** void I2c_WriteCalReg(uint16 value)
 284:..\source/i2c.c **** {
 450              		.loc 1 284 0
 451              		.cfi_startproc
 452              	.LVL33:
 285:..\source/i2c.c ****     i2c_buf.read_write.calibration_port = value;
 453              		.loc 1 285 0
 454 0000 014B     		ldr	r3, .L34
 455 0002 5881     		strh	r0, [r3, #10]
ARM GAS  C:\Users\Tim\AppData\Local\Temp\ccQ51pUU.s 			page 14


 286:..\source/i2c.c **** }
 456              		.loc 1 286 0
 457              		@ sp needed
 458 0004 7047     		bx	lr
 459              	.L35:
 460 0006 C046     		.align	2
 461              	.L34:
 462 0008 00000000 		.word	.LANCHOR0
 463              		.cfi_endproc
 464              	.LFE45:
 465              		.size	I2c_WriteCalReg, .-I2c_WriteCalReg
 466              		.section	.text.I2c_ReadCalReg,"ax",%progbits
 467              		.align	2
 468              		.global	I2c_ReadCalReg
 469              		.code	16
 470              		.thumb_func
 471              		.type	I2c_ReadCalReg, %function
 472              	I2c_ReadCalReg:
 473              	.LFB46:
 287:..\source/i2c.c **** 
 288:..\source/i2c.c **** uint16 I2c_ReadCalReg()
 289:..\source/i2c.c **** {
 474              		.loc 1 289 0
 475              		.cfi_startproc
 290:..\source/i2c.c ****     return i2c_buf.read_write.calibration_port;
 476              		.loc 1 290 0
 477 0000 014B     		ldr	r3, .L37
 478 0002 5889     		ldrh	r0, [r3, #10]
 291:..\source/i2c.c **** }
 479              		.loc 1 291 0
 480              		@ sp needed
 481 0004 7047     		bx	lr
 482              	.L38:
 483 0006 C046     		.align	2
 484              	.L37:
 485 0008 00000000 		.word	.LANCHOR0
 486              		.cfi_endproc
 487              	.LFE46:
 488              		.size	I2c_ReadCalReg, .-I2c_ReadCalReg
 489              		.section	.text.I2c_SetStatusBit,"ax",%progbits
 490              		.align	2
 491              		.global	I2c_SetStatusBit
 492              		.code	16
 493              		.thumb_func
 494              		.type	I2c_SetStatusBit, %function
 495              	I2c_SetStatusBit:
 496              	.LFB47:
 292:..\source/i2c.c **** 
 293:..\source/i2c.c **** void I2c_SetStatusBit(uint8 bit)
 294:..\source/i2c.c **** {
 497              		.loc 1 294 0
 498              		.cfi_startproc
 499              	.LVL34:
 295:..\source/i2c.c ****     i2c_status |= bit;
 500              		.loc 1 295 0
 501 0000 024A     		ldr	r2, .L40
 502 0002 138F     		ldrh	r3, [r2, #56]
ARM GAS  C:\Users\Tim\AppData\Local\Temp\ccQ51pUU.s 			page 15


 503 0004 1843     		orr	r0, r3
 504              	.LVL35:
 505 0006 1087     		strh	r0, [r2, #56]
 296:..\source/i2c.c ****     i2c_buf.read_only.status = i2c_status;
 506              		.loc 1 296 0
 507 0008 9081     		strh	r0, [r2, #12]
 297:..\source/i2c.c **** }
 508              		.loc 1 297 0
 509              		@ sp needed
 510 000a 7047     		bx	lr
 511              	.L41:
 512              		.align	2
 513              	.L40:
 514 000c 00000000 		.word	.LANCHOR0
 515              		.cfi_endproc
 516              	.LFE47:
 517              		.size	I2c_SetStatusBit, .-I2c_SetStatusBit
 518              		.section	.text.I2c_ClearStatusBit,"ax",%progbits
 519              		.align	2
 520              		.global	I2c_ClearStatusBit
 521              		.code	16
 522              		.thumb_func
 523              		.type	I2c_ClearStatusBit, %function
 524              	I2c_ClearStatusBit:
 525              	.LFB48:
 298:..\source/i2c.c **** 
 299:..\source/i2c.c **** void I2c_ClearStatusBit(uint8 bit)
 300:..\source/i2c.c **** {
 526              		.loc 1 300 0
 527              		.cfi_startproc
 528              	.LVL36:
 301:..\source/i2c.c ****     i2c_status &= ~bit;
 529              		.loc 1 301 0
 530 0000 024A     		ldr	r2, .L43
 531 0002 138F     		ldrh	r3, [r2, #56]
 532 0004 8343     		bic	r3, r0
 533 0006 1387     		strh	r3, [r2, #56]
 302:..\source/i2c.c ****     i2c_buf.read_only.status = i2c_status;
 534              		.loc 1 302 0
 535 0008 9381     		strh	r3, [r2, #12]
 303:..\source/i2c.c **** }
 536              		.loc 1 303 0
 537              		@ sp needed
 538 000a 7047     		bx	lr
 539              	.L44:
 540              		.align	2
 541              	.L43:
 542 000c 00000000 		.word	.LANCHOR0
 543              		.cfi_endproc
 544              	.LFE48:
 545              		.size	I2c_ClearStatusBit, .-I2c_ClearStatusBit
 546              		.section	.text.I2c_WriteWheelVelocity,"ax",%progbits
 547              		.align	2
 548              		.global	I2c_WriteWheelVelocity
 549              		.code	16
 550              		.thumb_func
 551              		.type	I2c_WriteWheelVelocity, %function
ARM GAS  C:\Users\Tim\AppData\Local\Temp\ccQ51pUU.s 			page 16


 552              	I2c_WriteWheelVelocity:
 553              	.LFB49:
 304:..\source/i2c.c **** 
 305:..\source/i2c.c **** void I2c_WriteWheelVelocity(int16 velocity)
 306:..\source/i2c.c **** {
 554              		.loc 1 306 0
 555              		.cfi_startproc
 556              	.LVL37:
 307:..\source/i2c.c ****     i2c_buf.read_only.wheel_velocity = velocity;
 557              		.loc 1 307 0
 558 0000 014B     		ldr	r3, .L46
 559 0002 D881     		strh	r0, [r3, #14]
 308:..\source/i2c.c **** }
 560              		.loc 1 308 0
 561              		@ sp needed
 562 0004 7047     		bx	lr
 563              	.L47:
 564 0006 C046     		.align	2
 565              	.L46:
 566 0008 00000000 		.word	.LANCHOR0
 567              		.cfi_endproc
 568              	.LFE49:
 569              		.size	I2c_WriteWheelVelocity, .-I2c_WriteWheelVelocity
 570              		.section	.text.I2c_WriteCountPerSecond,"ax",%progbits
 571              		.align	2
 572              		.global	I2c_WriteCountPerSecond
 573              		.code	16
 574              		.thumb_func
 575              		.type	I2c_WriteCountPerSecond, %function
 576              	I2c_WriteCountPerSecond:
 577              	.LFB50:
 309:..\source/i2c.c **** 
 310:..\source/i2c.c **** void I2c_WriteCountPerSecond(int16 count_per_sec)
 311:..\source/i2c.c **** {
 578              		.loc 1 311 0
 579              		.cfi_startproc
 580              	.LVL38:
 312:..\source/i2c.c ****     i2c_buf.read_only.count_per_sec = count_per_sec;
 581              		.loc 1 312 0
 582 0000 014B     		ldr	r3, .L49
 583 0002 1882     		strh	r0, [r3, #16]
 313:..\source/i2c.c **** }
 584              		.loc 1 313 0
 585              		@ sp needed
 586 0004 7047     		bx	lr
 587              	.L50:
 588 0006 C046     		.align	2
 589              	.L49:
 590 0008 00000000 		.word	.LANCHOR0
 591              		.cfi_endproc
 592              	.LFE50:
 593              		.size	I2c_WriteCountPerSecond, .-I2c_WriteCountPerSecond
 594              		.section	.text.I2c_WriteOdom,"ax",%progbits
 595              		.align	2
 596              		.global	I2c_WriteOdom
 597              		.code	16
 598              		.thumb_func
ARM GAS  C:\Users\Tim\AppData\Local\Temp\ccQ51pUU.s 			page 17


 599              		.type	I2c_WriteOdom, %function
 600              	I2c_WriteOdom:
 601              	.LFB51:
 314:..\source/i2c.c **** 
 315:..\source/i2c.c **** void I2c_WriteOdom(float x_dist, float y_dist, float heading, float linear_speed, float angular_spe
 316:..\source/i2c.c **** {
 602              		.loc 1 316 0
 603              		.cfi_startproc
 604              	.LVL39:
 605 0000 10B5     		push	{r4, lr}
 606              		.cfi_def_cfa_offset 8
 607              		.cfi_offset 4, -8
 608              		.cfi_offset 14, -4
 317:..\source/i2c.c ****     i2c_buf.read_only.odom.x_dist = x_dist;
 609              		.loc 1 317 0
 610 0002 094C     		ldr	r4, .L52
 611 0004 6082     		strh	r0, [r4, #18]
 612 0006 000C     		lsr	r0, r0, #16
 613              	.LVL40:
 614 0008 A082     		strh	r0, [r4, #20]
 318:..\source/i2c.c ****     i2c_buf.read_only.odom.y_dist = y_dist;
 615              		.loc 1 318 0
 616 000a E182     		strh	r1, [r4, #22]
 617 000c 090C     		lsr	r1, r1, #16
 618              	.LVL41:
 619 000e 2183     		strh	r1, [r4, #24]
 319:..\source/i2c.c ****     i2c_buf.read_only.odom.heading = heading;
 620              		.loc 1 319 0
 621 0010 6283     		strh	r2, [r4, #26]
 622 0012 120C     		lsr	r2, r2, #16
 623              	.LVL42:
 624 0014 A283     		strh	r2, [r4, #28]
 320:..\source/i2c.c ****     i2c_buf.read_only.odom.linear_velocity = linear_speed;
 625              		.loc 1 320 0
 626 0016 E383     		strh	r3, [r4, #30]
 627 0018 1B0C     		lsr	r3, r3, #16
 628              	.LVL43:
 629 001a 2384     		strh	r3, [r4, #32]
 321:..\source/i2c.c ****     i2c_buf.read_only.odom.angular_velocity = angular_speed;
 630              		.loc 1 321 0
 631 001c 029B     		ldr	r3, [sp, #8]
 632 001e 6384     		strh	r3, [r4, #34]
 633 0020 1B0C     		lsr	r3, r3, #16
 634 0022 A384     		strh	r3, [r4, #36]
 322:..\source/i2c.c **** }
 635              		.loc 1 322 0
 636              		@ sp needed
 637 0024 10BD     		pop	{r4, pc}
 638              	.L53:
 639 0026 C046     		.align	2
 640              	.L52:
 641 0028 00000000 		.word	.LANCHOR0
 642              		.cfi_endproc
 643              	.LFE51:
 644              		.size	I2c_WriteOdom, .-I2c_WriteOdom
 645              		.section	.text.I2c_WriteUltrasonicDistance,"ax",%progbits
 646              		.align	2
ARM GAS  C:\Users\Tim\AppData\Local\Temp\ccQ51pUU.s 			page 18


 647              		.global	I2c_WriteUltrasonicDistance
 648              		.code	16
 649              		.thumb_func
 650              		.type	I2c_WriteUltrasonicDistance, %function
 651              	I2c_WriteUltrasonicDistance:
 652              	.LFB52:
 323:..\source/i2c.c **** 
 324:..\source/i2c.c **** void I2c_WriteUltrasonicDistance(uint8 offset, uint16 distance)
 325:..\source/i2c.c **** {
 653              		.loc 1 325 0
 654              		.cfi_startproc
 655              	.LVL44:
 326:..\source/i2c.c ****     i2c_buf.read_only.us.values[offset] = distance;
 656              		.loc 1 326 0
 657 0000 1030     		add	r0, r0, #16
 658              	.LVL45:
 659 0002 4000     		lsl	r0, r0, #1
 660 0004 014B     		ldr	r3, .L55
 661 0006 1818     		add	r0, r3, r0
 662 0008 C180     		strh	r1, [r0, #6]
 327:..\source/i2c.c **** }
 663              		.loc 1 327 0
 664              		@ sp needed
 665 000a 7047     		bx	lr
 666              	.L56:
 667              		.align	2
 668              	.L55:
 669 000c 00000000 		.word	.LANCHOR0
 670              		.cfi_endproc
 671              	.LFE52:
 672              		.size	I2c_WriteUltrasonicDistance, .-I2c_WriteUltrasonicDistance
 673              		.section	.text.I2c_WriteInfraredDistance,"ax",%progbits
 674              		.align	2
 675              		.global	I2c_WriteInfraredDistance
 676              		.code	16
 677              		.thumb_func
 678              		.type	I2c_WriteInfraredDistance, %function
 679              	I2c_WriteInfraredDistance:
 680              	.LFB53:
 328:..\source/i2c.c **** 
 329:..\source/i2c.c **** void I2c_WriteInfraredDistance(uint8 offset, uint8 distance)
 330:..\source/i2c.c **** {
 681              		.loc 1 330 0
 682              		.cfi_startproc
 683              	.LVL46:
 331:..\source/i2c.c ****     i2c_buf.read_only.ir.values[offset] = distance;
 684              		.loc 1 331 0
 685 0000 024B     		ldr	r3, .L58
 686 0002 1818     		add	r0, r3, r0
 687              	.LVL47:
 688 0004 2830     		add	r0, r0, #40
 689 0006 8171     		strb	r1, [r0, #6]
 332:..\source/i2c.c **** }
 690              		.loc 1 332 0
 691              		@ sp needed
 692 0008 7047     		bx	lr
 693              	.L59:
ARM GAS  C:\Users\Tim\AppData\Local\Temp\ccQ51pUU.s 			page 19


 694 000a C046     		.align	2
 695              	.L58:
 696 000c 00000000 		.word	.LANCHOR0
 697              		.cfi_endproc
 698              	.LFE53:
 699              		.size	I2c_WriteInfraredDistance, .-I2c_WriteInfraredDistance
 700              		.section	.text.I2c_WriteTest,"ax",%progbits
 701              		.align	2
 702              		.global	I2c_WriteTest
 703              		.code	16
 704              		.thumb_func
 705              		.type	I2c_WriteTest, %function
 706              	I2c_WriteTest:
 707              	.LFB54:
 333:..\source/i2c.c **** 
 334:..\source/i2c.c **** void I2c_WriteTest()
 335:..\source/i2c.c **** {
 708              		.loc 1 335 0
 709              		.cfi_startproc
 710 0000 08B5     		push	{r3, lr}
 711              		.cfi_def_cfa_offset 8
 712              		.cfi_offset 3, -8
 713              		.cfi_offset 14, -4
 336:..\source/i2c.c ****     static uint32 last_time = 0;
 337:..\source/i2c.c ****     static uint8 test_count = 1;
 338:..\source/i2c.c ****     
 339:..\source/i2c.c ****     if (millis() - last_time > 1000)
 714              		.loc 1 339 0
 715 0002 FFF7FEFF 		bl	millis
 716              	.LVL48:
 717 0006 094B     		ldr	r3, .L62
 718 0008 DB6B     		ldr	r3, [r3, #60]
 719 000a C01A     		sub	r0, r0, r3
 720 000c FA23     		mov	r3, #250
 721 000e 9B00     		lsl	r3, r3, #2
 722 0010 9842     		cmp	r0, r3
 723 0012 09D9     		bls	.L60
 340:..\source/i2c.c ****     {
 341:..\source/i2c.c ****         last_time = millis();
 724              		.loc 1 341 0
 725 0014 FFF7FEFF 		bl	millis
 726              	.LVL49:
 727 0018 044B     		ldr	r3, .L62
 728 001a D863     		str	r0, [r3, #60]
 342:..\source/i2c.c ****         i2c_buf.read_only.test = test_count++;
 729              		.loc 1 342 0
 730 001c 0449     		ldr	r1, .L62+4
 731 001e 0A78     		ldrb	r2, [r1]
 732 0020 501C     		add	r0, r2, #1
 733 0022 0870     		strb	r0, [r1]
 734 0024 3221     		mov	r1, #50
 735 0026 5A54     		strb	r2, [r3, r1]
 736              	.L60:
 343:..\source/i2c.c ****     }
 344:..\source/i2c.c **** }
 737              		.loc 1 344 0
 738              		@ sp needed
ARM GAS  C:\Users\Tim\AppData\Local\Temp\ccQ51pUU.s 			page 20


 739 0028 08BD     		pop	{r3, pc}
 740              	.L63:
 741 002a C046     		.align	2
 742              	.L62:
 743 002c 00000000 		.word	.LANCHOR0
 744 0030 00000000 		.word	.LANCHOR1
 745              		.cfi_endproc
 746              	.LFE54:
 747              		.size	I2c_WriteTest, .-I2c_WriteTest
 748              		.data
 749              		.set	.LANCHOR1,. + 0
 750              		.type	test_count.6614, %object
 751              		.size	test_count.6614, 1
 752              	test_count.6614:
 753 0000 01       		.byte	1
 754              		.bss
 755              		.align	2
 756              		.set	.LANCHOR0,. + 0
 757              		.type	i2c_buf, %object
 758              		.size	i2c_buf, 51
 759              	i2c_buf:
 760 0000 00000000 		.space	51
 760      00000000 
 760      00000000 
 760      00000000 
 760      00000000 
 761 0033 00       		.space	1
 762              		.type	i2c_slave_data, %object
 763              		.size	i2c_slave_data, 4
 764              	i2c_slave_data:
 765 0034 00000000 		.space	4
 766              		.type	i2c_status, %object
 767              		.size	i2c_status, 2
 768              	i2c_status:
 769 0038 0000     		.space	2
 770 003a 0000     		.space	2
 771              		.type	last_time.6613, %object
 772              		.size	last_time.6613, 4
 773              	last_time.6613:
 774 003c 00000000 		.space	4
 775              		.text
 776              	.Letext0:
 777              		.file 2 "Generated_Source\\PSoC4/cytypes.h"
 778              		.file 3 "Generated_Source\\PSoC4/I2C_Master_I2C.h"
 779              		.file 4 "Generated_Source\\PSoC4/EZI2C_Slave_EZI2C.h"
 780              		.file 5 "Generated_Source\\PSoC4/EZI2C_Slave.h"
 781              		.file 6 "Generated_Source\\PSoC4/I2C_Master.h"
 782              		.file 7 "..\\source\\time.h"