ARM GAS  C:\Users\Tim\AppData\Local\Temp\ccYb0r1o.s 			page 1


   1              		.cpu cortex-m0
   2              		.fpu softvfp
   3              		.eabi_attribute 20, 1
   4              		.eabi_attribute 21, 1
   5              		.eabi_attribute 23, 3
   6              		.eabi_attribute 24, 1
   7              		.eabi_attribute 25, 1
   8              		.eabi_attribute 26, 1
   9              		.eabi_attribute 30, 1
  10              		.eabi_attribute 34, 0
  11              		.eabi_attribute 18, 4
  12              		.code	16
  13              		.file	"motor.c"
  14              		.text
  15              	.Ltext0:
  16              		.cfi_sections	.debug_frame
  17              		.global	__aeabi_idiv
  18              		.section	.text.CalculateAverageCountPerSec,"ax",%progbits
  19              		.align	2
  20              		.code	16
  21              		.thumb_func
  22              		.type	CalculateAverageCountPerSec, %function
  23              	CalculateAverageCountPerSec:
  24              	.LFB40:
  25              		.file 1 "..\\source\\motor.c"
   1:..\source/motor.c **** /* ========================================
   2:..\source/motor.c ****  *
   3:..\source/motor.c ****  * Copyright YOUR COMPANY, THE YEAR
   4:..\source/motor.c ****  * All Rights Reserved
   5:..\source/motor.c ****  * UNPUBLISHED, LICENSED SOFTWARE.
   6:..\source/motor.c ****  *
   7:..\source/motor.c ****  * CONFIDENTIAL AND PROPRIETARY INFORMATION
   8:..\source/motor.c ****  * WHICH IS THE PROPERTY OF your company.
   9:..\source/motor.c ****  *
  10:..\source/motor.c ****  * ========================================
  11:..\source/motor.c **** */
  12:..\source/motor.c **** 
  13:..\source/motor.c **** #include "motor.h"
  14:..\source/motor.c **** #include "utils.h"
  15:..\source/motor.c **** #include "debug.h"
  16:..\source/motor.c **** #include "hwconfig.h"
  17:..\source/motor.c **** #include "encoder.h"
  18:..\source/motor.c **** #include "time.h"
  19:..\source/motor.c **** #include <math.h>
  20:..\source/motor.c **** 
  21:..\source/motor.c **** /* Add a link to the HB25 data sheet
  22:..\source/motor.c ****    Ref: https://www.parallax.com/sites/default/files/downloads/HB-25-Motor-Controller-Guide-v1.3.pd
  23:..\source/motor.c ****  */
  24:..\source/motor.c **** 
  25:..\source/motor.c **** #define HB25_ENABLE_BIT (0)
  26:..\source/motor.c **** #define HB25_PWM_BIT (1)
  27:..\source/motor.c **** #define HB25_ENABLE (0)
  28:..\source/motor.c **** #define HB25_DISABLE (1)
  29:..\source/motor.c **** 
  30:..\source/motor.c **** /* Note: While technically the motors are reverse relative to each other, it is clearer to hide thi
  31:..\source/motor.c ****    the code.  Therefore, while the pwm values will be different, for a code perspective the functio
  32:..\source/motor.c ****    same between the boards driving the motors.  For example, the pwm constants refer to forward and
ARM GAS  C:\Users\Tim\AppData\Local\Temp\ccYb0r1o.s 			page 2


  33:..\source/motor.c ****    the actual values are different and the motors are moving oppositely.
  34:..\source/motor.c **** 
  35:..\source/motor.c ****                             Left    Right
  36:..\source/motor.c ****         PWM_FULL_FORWARD |  2000  | 1000  |
  37:..\source/motor.c ****         PWM_STOP         |  1500  | 1500  |
  38:..\source/motor.c ****         PWM_FULL_REVERSE |  1000  | 2000  |
  39:..\source/motor.c ****         PWM_DECREMENT    |   -1   |   1   |
  40:..\source/motor.c ****         PWM_INCREMENT    |    1   |  -1   |
  41:..\source/motor.c ****         PWM_CAL_STEP     |   10   |  10   |
  42:..\source/motor.c ****         PWM_MIN          |  2000  | 1500  |
  43:..\source/motor.c ****         PWM_MAX          |  1500  | 1000  |
  44:..\source/motor.c ****  */
  45:..\source/motor.c **** 
  46:..\source/motor.c **** #define PWM_BUFFER (200)
  47:..\source/motor.c **** #define MAX_PWM_VALUE  (2000)
  48:..\source/motor.c **** #define MID_PWM_VALUE  (1500)
  49:..\source/motor.c **** #define MIN_PWM_VALUE  (1000)
  50:..\source/motor.c **** 
  51:..\source/motor.c **** #ifdef LEFT_BOARD
  52:..\source/motor.c **** /* Per the HB-25 data sheet: 
  53:..\source/motor.c **** 	1.0 ms Full Reverse 
  54:..\source/motor.c **** 	1.5 ms Neutral (Off) 
  55:..\source/motor.c ****     2.0 ms Full Forward
  56:..\source/motor.c ****     
  57:..\source/motor.c ****    Note: The datasheet is in error, it should be 1000 ms, 1500 ms and 2000 ms
  58:..\source/motor.c ****  */
  59:..\source/motor.c **** #define PWM_MAX_FULL_FORWARD (MAX_PWM_VALUE)
  60:..\source/motor.c **** #define PWM_MAX_FULL_REVERSE (MIN_PWM_VALUE)
  61:..\source/motor.c **** #define PWM_FULL_FORWARD (PWM_MAX_FULL_FORWARD - PWM_BUFFER)
  62:..\source/motor.c **** #define PWM_STOP         (MID_PWM_VALUE)    
  63:..\source/motor.c **** #define PWM_FULL_REVERSE (PWM_MAX_FULL_REVERSE + PWM_BUFFER)
  64:..\source/motor.c **** #define PWM_DECREMENT    (-1)
  65:..\source/motor.c **** #define PWM_INCREMENT    (1)
  66:..\source/motor.c **** #define PWM_MIN          (PWM_FULL_FORWARD)
  67:..\source/motor.c **** #define PWM_MAX          (PWM_STOP)   
  68:..\source/motor.c **** #define CAL_PWM_EVAL(limit) (pwm > limit)
  69:..\source/motor.c **** #define DELTA_X             (1.0 - (-1.0))
  70:..\source/motor.c **** #define DELTA_Y             (PWM_FULL_FORWARD - PWM_FULL_REVERSE)
  71:..\source/motor.c **** #define UNITY_TO_PWM(value) ( ((DELTA_Y * value)/DELTA_X) + MID_PWM_VALUE )
  72:..\source/motor.c **** #elif defined RIGHT_BOARD
  73:..\source/motor.c **** #define PWM_MAX_FULL_FORWARD (MIN_PWM_VALUE)
  74:..\source/motor.c **** #define PWM_MAX_FULL_REVERSE (MAX_PWM_VALUE)
  75:..\source/motor.c **** #define PWM_FULL_FORWARD (PWM_MAX_FULL_FORWARD + PWM_BUFFER)
  76:..\source/motor.c **** #define PWM_STOP         (MID_PWM_VALUE)    
  77:..\source/motor.c **** #define PWM_FULL_REVERSE (PWM_MAX_FULL_REVERSE - PWM_BUFFER)
  78:..\source/motor.c **** #define PWM_DECREMENT     (1)
  79:..\source/motor.c **** #define PWM_INCREMENT    (-1)
  80:..\source/motor.c **** #define PWM_MIN          (PWM_STOP)
  81:..\source/motor.c **** #define PWM_MAX          (PWM_FULL_FORWARD)
  82:..\source/motor.c **** #define CAL_PWM_EVAL(limit) (pwm < limit)
  83:..\source/motor.c **** #define DELTA_X             (1.0 - (-1.0))
  84:..\source/motor.c **** #define DELTA_Y             (PWM_FULL_FORWARD - PWM_FULL_REVERSE)
  85:..\source/motor.c **** #define UNITY_TO_PWM(value) ( ((DELTA_Y * value)/DELTA_X) + MID_PWM_VALUE )
  86:..\source/motor.c **** #else
  87:..\source/motor.c ****     #error "You haven't defined a board, e.g. LEFT_BOARD or RIGHT_BOARD"
  88:..\source/motor.c **** #endif
  89:..\source/motor.c **** 
ARM GAS  C:\Users\Tim\AppData\Local\Temp\ccYb0r1o.s 			page 3


  90:..\source/motor.c **** /* Calibration is performed only in the forward direction.  This gives a mapping between count/sec 
  91:..\source/motor.c ****    assumed that motor movement is symetric about the stop pwm between forward and reverse.  Therefo
  92:..\source/motor.c ****    mapping generated by calibration in the forward direction can be used for generating reverse mot
  93:..\source/motor.c ****    and time during calibration.
  94:..\source/motor.c ****     
  95:..\source/motor.c ****     If the direction is forward (positive) then index the array using cps.  
  96:..\source/motor.c ****     If the direction is reverse (negative) then reflect the pwm selected by cps onto the reverse si
  97:..\source/motor.c ****     
  98:..\source/motor.c ****             delta = 1600 - 1500 = 100
  99:..\source/motor.c ****             reverse pwm = 1500 - delta
 100:..\source/motor.c ****     
 101:..\source/motor.c ****        1000                            1500                           2000
 102:..\source/motor.c ****          |                               |                              |
 103:..\source/motor.c ****     |-------------------------------------------------------------------------|
 104:..\source/motor.c ****                                 |                  |
 105:..\source/motor.c ****                                 |                 cps yields 1600
 106:..\source/motor.c ****                   corresponding reverse value
 107:..\source/motor.c ****                               1400
 108:..\source/motor.c ****     
 109:..\source/motor.c ****     More generally, 2 * PWM_STOP - pwm
 110:..\source/motor.c **** 
 111:..\source/motor.c ****  */
 112:..\source/motor.c **** #define PWM_REFLECT(mms, pwm) ((mms < 0) ? 2 * PWM_STOP - pwm : pwm)
 113:..\source/motor.c **** 
 114:..\source/motor.c **** #define PWM_RANGE        (500) // 2000 - 1500 = 500, 1500 - 1000 = 500
 115:..\source/motor.c **** 
 116:..\source/motor.c **** // Empirical step value that balances time, space, and accuracy
 117:..\source/motor.c **** #define PWM_CAL_STEP     (10)
 118:..\source/motor.c **** /* Empirical values to allow the pwm to settle.  Probably not particularly relevant since the pwm i
 119:..\source/motor.c ****    but it doesn't hurt (just adds little more time to calibration
 120:..\source/motor.c ****  */
 121:..\source/motor.c **** #define PWM_SETTLE_TIME  (1000)
 122:..\source/motor.c **** 
 123:..\source/motor.c **** /* 
 124:..\source/motor.c ****     Calibration Constants
 125:..\source/motor.c **** 
 126:..\source/motor.c ****     Number of entries depends on the range and step size, e.g., smaller step more values and vice v
 127:..\source/motor.c ****  */
 128:..\source/motor.c **** #define MAX_NUM_CAL_ENTRY (PWM_RANGE/PWM_CAL_STEP)
 129:..\source/motor.c **** #define MIN_CAL_ENTRY (0)
 130:..\source/motor.c **** #define MAX_CAL_ENTRY (MAX_NUM_CAL_ENTRY - 1)
 131:..\source/motor.c **** 
 132:..\source/motor.c **** /* The number of samples to take when measuring speed */
 133:..\source/motor.c **** #define MAX_SPEED_SAMPLES (5)
 134:..\source/motor.c **** 
 135:..\source/motor.c **** #define CAL_PWM_START (PWM_FULL_FORWARD)
 136:..\source/motor.c **** #define CAL_PWM_END (PWM_STOP)
 137:..\source/motor.c **** #define CAL_PWM_STEP (PWM_DECREMENT*PWM_CAL_STEP)
 138:..\source/motor.c **** 
 139:..\source/motor.c **** #define CAL_VAL_CPS_START (20)
 140:..\source/motor.c **** #define CAL_VAL_STEP (10)
 141:..\source/motor.c **** #define CAL_VAL_NUM_SAMPLES (2)
 142:..\source/motor.c **** #define CAL_VAL_SAMPLE_PERIOD (250) // milliseconds
 143:..\source/motor.c **** 
 144:..\source/motor.c **** /* Structure used to capture pwm and cps samples during calibration
 145:..\source/motor.c ****  */
 146:..\source/motor.c **** typedef struct
ARM GAS  C:\Users\Tim\AppData\Local\Temp\ccYb0r1o.s 			page 4


 147:..\source/motor.c **** {
 148:..\source/motor.c ****     int16 cps;
 149:..\source/motor.c ****     uint16 pwm;
 150:..\source/motor.c **** } CALIBRATION_ENTRY;
 151:..\source/motor.c **** 
 152:..\source/motor.c **** /* Mapping between count/sec and pwm derived during calibration
 153:..\source/motor.c ****  */
 154:..\source/motor.c **** static CALIBRATION_ENTRY cal_cps_to_pwm[MAX_NUM_CAL_ENTRY];
 155:..\source/motor.c **** 
 156:..\source/motor.c **** /* Count/Second to PWM Map
 157:..\source/motor.c **** 
 158:..\source/motor.c ****     Per the motor specification (https://www.parallax.com/product/28962):
 159:..\source/motor.c ****         Approx. Max Speed: 95 RPM (1.53 RPS)
 160:..\source/motor.c ****         Encoder Resolution: 36 position (quadrature encoding yields 144 counts per revolution)
 161:..\source/motor.c ****         Wheel Circumference: 479 mm
 162:..\source/motor.c **** 
 163:..\source/motor.c ****     From the above, the motor has a max count/sec of 228 and max speed of 733 mm/s.  
 164:..\source/motor.c ****     Empirical measurement gives a usable range of 0 .. 200 count/s and 655 mm/s.  Typically, the ca
 165:..\source/motor.c ****     max count/sec between 180-190.  Your mileage may vary :-)
 166:..\source/motor.c **** 
 167:..\source/motor.c ****  */
 168:..\source/motor.c **** #define MIN_CPS_VALUE (1)
 169:..\source/motor.c **** #define MAX_CPS_VALUE (200)
 170:..\source/motor.c **** 
 171:..\source/motor.c **** #define MAX_NUM_CPS_ENTRY (MAX_CPS_VALUE)
 172:..\source/motor.c **** #define MIN_CPS_ENTRY (0)
 173:..\source/motor.c **** #define MAX_CPS_ENTRY (MAX_NUM_CPS_ENTRY - 1)
 174:..\source/motor.c **** 
 175:..\source/motor.c **** 
 176:..\source/motor.c **** /* Note: The following array contains entries that were derived during calibration.  These values a
 177:..\source/motor.c ****    a particular wheel, encoder, and motor driver and stored in flash so there are defaults.  Calibr
 178:..\source/motor.c ****    values to be updated and stored on the Raspberry Pi, and uploaded on startup which will allow fo
 179:..\source/motor.c ****    mechanical differences.
 180:..\source/motor.c ****  */
 181:..\source/motor.c **** #ifdef LEFT_BOARD
 182:..\source/motor.c **** static uint16 map_cps_to_pwm[MAX_NUM_CPS_ENTRY] = {1500, 1504, 1508, 1512, 1516, 1520, 1524, 1528, 
 183:..\source/motor.c ****                                                    1540, 1542, 1544, 1546, 1548, 1550, 1552, 1554, 
 184:..\source/motor.c ****                                                    1560, 1561, 1562, 1563, 1564, 1565, 1566, 1567, 
 185:..\source/motor.c ****                                                    1570, 1572, 1574, 1576, 1578, 1580, 1582, 1584, 
 186:..\source/motor.c ****                                                    1590, 1591, 1592, 1593, 1594, 1595, 1596, 1597, 
 187:..\source/motor.c ****                                                    1600, 1602, 1604, 1606, 1608, 1610, 1612, 1614, 
 188:..\source/motor.c ****                                                    1620, 1621, 1622, 1623, 1624, 1625, 1626, 1627, 
 189:..\source/motor.c ****                                                    1630, 1633, 1636, 1639, 1642, 1645, 1648, 1651, 
 190:..\source/motor.c ****                                                    1660, 1661, 1662, 1663, 1664, 1665, 1666, 1667, 
 191:..\source/motor.c ****                                                    1670, 1671, 1672, 1673, 1674, 1675, 1676, 1677, 
 192:..\source/motor.c ****                                                    1680, 1682, 1684, 1686, 1688, 1690, 1692, 1694, 
 193:..\source/motor.c ****                                                    1700, 1701, 1702, 1703, 1704, 1705, 1706, 1707, 
 194:..\source/motor.c ****                                                    1710, 1711, 1712, 1713, 1714, 1715, 1716, 1717, 
 195:..\source/motor.c ****                                                    1720, 1722, 1724, 1726, 1728, 1730, 1732, 1734, 
 196:..\source/motor.c ****                                                    1740, 1742, 1744, 1746, 1748, 1750, 1752, 1754, 
 197:..\source/motor.c ****                                                    1760, 1762, 1764, 1766, 1768, 1770, 1772, 1774, 
 198:..\source/motor.c ****                                                    1780, 1782, 1784, 1786, 1788, 1790, 1792, 1794, 
 199:..\source/motor.c ****                                                    1800, 1801, 1802, 1803, 1804, 1805, 1806, 1807, 
 200:..\source/motor.c ****                                                    1810, 1811, 1812, 1813, 1814, 1815, 1816, 1817, 
 201:..\source/motor.c ****                                                    1820, 1500, 1500, 1500, 1500, 1500, 1500, 1500, 
 202:..\source/motor.c ****                                                    };
 203:..\source/motor.c **** #elif defined RIGHT_BOARD
ARM GAS  C:\Users\Tim\AppData\Local\Temp\ccYb0r1o.s 			page 5


 204:..\source/motor.c **** static uint16 map_cps_to_pwm[MAX_NUM_CPS_ENTRY] = {1500, 1496, 1492, 1488, 1484, 1480, 1476, 1472, 
 205:..\source/motor.c ****                                                    1460, 1456, 1452, 1448, 1444, 1440, 1436, 1432, 
 206:..\source/motor.c ****                                                    1420, 1419, 1418, 1417, 1416, 1415, 1414, 1413, 
 207:..\source/motor.c ****                                                    1410, 1408, 1406, 1404, 1402, 1400, 1398, 1396, 
 208:..\source/motor.c ****                                                    1390, 1388, 1386, 1384, 1382, 1380, 1378, 1376, 
 209:..\source/motor.c ****                                                    1370, 1368, 1366, 1364, 1362, 1360, 1358, 1356, 
 210:..\source/motor.c ****                                                    1350, 1349, 1348, 1347, 1346, 1345, 1344, 1343, 
 211:..\source/motor.c ****                                                    1340, 1338, 1336, 1334, 1332, 1330, 1328, 1326, 
 212:..\source/motor.c ****                                                    1320, 1319, 1318, 1317, 1316, 1315, 1314, 1313, 
 213:..\source/motor.c ****                                                    1310, 1308, 1306, 1304, 1302, 1300, 1298, 1296, 
 214:..\source/motor.c ****                                                    1290, 1288, 1286, 1284, 1282, 1280, 1278, 1276, 
 215:..\source/motor.c ****                                                    1270, 1268, 1266, 1264, 1262, 1260, 1258, 1256, 
 216:..\source/motor.c ****                                                    1250, 1249, 1248, 1247, 1246, 1245, 1244, 1243, 
 217:..\source/motor.c ****                                                    1240, 1238, 1236, 1234, 1232, 1230, 1228, 1226, 
 218:..\source/motor.c ****                                                    1220, 1219, 1218, 1217, 1216, 1215, 1214, 1213, 
 219:..\source/motor.c ****                                                    1210, 1208, 1206, 1204, 1202, 1200, 1198, 1196, 
 220:..\source/motor.c ****                                                    1190, 1188, 1186, 1184, 1182, 1180, 1178, 1176, 
 221:..\source/motor.c ****                                                    1170, 1169, 1168, 1167, 1166, 1165, 1164, 1163, 
 222:..\source/motor.c ****                                                    1160, 1158, 1156, 1154, 1152, 1150, 1148, 1146, 
 223:..\source/motor.c ****                                                    1140, 1500, 1500, 1500, 1500, 1500, 1500, 1500, 
 224:..\source/motor.c ****                                                    };
 225:..\source/motor.c **** #else
 226:..\source/motor.c ****     #error "You haven't defined a board, e.g. LEFT_BOARD or RIGHT_BOARD"
 227:..\source/motor.c **** #endif
 228:..\source/motor.c ****     
 229:..\source/motor.c **** static uint8 cps_to_pwm_last_entry;
 230:..\source/motor.c **** 
 231:..\source/motor.c **** void Motor_Init()
 232:..\source/motor.c **** {
 233:..\source/motor.c ****     int ii;
 234:..\source/motor.c ****     
 235:..\source/motor.c ****     HB25_Enable_Pin_Write(HB25_DISABLE);
 236:..\source/motor.c ****     
 237:..\source/motor.c ****     // Initialize the balance of the array
 238:..\source/motor.c ****     for (ii = MIN_CAL_ENTRY; ii < MAX_NUM_CAL_ENTRY; ++ii)
 239:..\source/motor.c ****     {
 240:..\source/motor.c ****         /* Need to figure out how to handle min/max for right motor case */
 241:..\source/motor.c ****         cal_cps_to_pwm[ii].pwm = PWM_MIN;
 242:..\source/motor.c ****         cal_cps_to_pwm[ii].cps = -1;
 243:..\source/motor.c ****     }
 244:..\source/motor.c ****     
 245:..\source/motor.c ****     // Note: map_cps_to_pwm contains default pwm values and so it should not be initialized
 246:..\source/motor.c ****     
 247:..\source/motor.c ****     // Find the last non-stop value entry in the cps-to-pwm map
 248:..\source/motor.c ****     for (ii = MAX_CPS_ENTRY; ii > MIN_CPS_ENTRY; --ii)
 249:..\source/motor.c ****     {
 250:..\source/motor.c ****         if (map_cps_to_pwm[ii] != PWM_STOP)
 251:..\source/motor.c ****         {
 252:..\source/motor.c ****             cps_to_pwm_last_entry = ii;
 253:..\source/motor.c ****             break;
 254:..\source/motor.c ****         }
 255:..\source/motor.c ****     }
 256:..\source/motor.c ****         
 257:..\source/motor.c **** }
 258:..\source/motor.c **** 
 259:..\source/motor.c **** void Motor_Start()
 260:..\source/motor.c **** {
ARM GAS  C:\Users\Tim\AppData\Local\Temp\ccYb0r1o.s 			page 6


 261:..\source/motor.c ****     /* Enable the power on the HB-25 motor 
 262:..\source/motor.c ****        Note: The HB-25 has a specific initialization sequence that is handled in hardware (see HB-2
 263:..\source/motor.c ****        that is necessary in software is to enable power to the HB-25 motor controller and start the
 264:..\source/motor.c ****        be enabled on to the HB-25 signal pin when initialization completes.
 265:..\source/motor.c ****      */
 266:..\source/motor.c ****     HB25_Enable_Pin_Write(HB25_ENABLE);    
 267:..\source/motor.c ****     HB25_PWM_Start();
 268:..\source/motor.c ****     Motor_SetOutput(0);
 269:..\source/motor.c **** }
 270:..\source/motor.c **** 
 271:..\source/motor.c **** //void Motor_SetOutput(int16 value)
 272:..\source/motor.c **** void Motor_SetOutput(float value)
 273:..\source/motor.c **** /* Translate value, in millimeter per second to pwm via count/sec mapping
 274:..\source/motor.c ****  */
 275:..\source/motor.c **** {
 276:..\source/motor.c ****     uint16 pwm;
 277:..\source/motor.c ****     
 278:..\source/motor.c ****     /* Map unity to pwm 
 279:..\source/motor.c ****     
 280:..\source/motor.c ****         -1.0 ... 1.0
 281:..\source/motor.c ****         1000 ... 2000
 282:..\source/motor.c ****     
 283:..\source/motor.c ****          y = f(x), where y is 1000 ... 2000 and x is -1.0 ... 1.0
 284:..\source/motor.c ****     
 285:..\source/motor.c ****       Left Wheel          Right Wheel
 286:..\source/motor.c ****         x      y            x    y
 287:..\source/motor.c ****        -1.0   1000        -1.0  2000
 288:..\source/motor.c ****         0.0   1500         0.0  1500
 289:..\source/motor.c ****         1.0   2000         1.0  1000
 290:..\source/motor.c ****     
 291:..\source/motor.c ****       Yleft = 500x + 1500
 292:..\source/motor.c ****       Yright = -500x + 1500
 293:..\source/motor.c ****     
 294:..\source/motor.c ****     */
 295:..\source/motor.c ****     
 296:..\source/motor.c ****     pwm = UNITY_TO_PWM(value);
 297:..\source/motor.c ****     
 298:..\source/motor.c ****     HB25_PWM_WriteCompare(pwm);
 299:..\source/motor.c **** }
 300:..\source/motor.c **** 
 301:..\source/motor.c **** void Motor_Stop()
 302:..\source/motor.c **** {
 303:..\source/motor.c ****     HB25_PWM_Stop();
 304:..\source/motor.c ****     HB25_Enable_Pin_Write(HB25_DISABLE);
 305:..\source/motor.c **** }
 306:..\source/motor.c **** 
 307:..\source/motor.c **** static int16 CalculateAverageCountPerSec(uint8 samples, uint16 delay)
 308:..\source/motor.c **** {
  26              		.loc 1 308 0
  27              		.cfi_startproc
  28              	.LVL0:
  29 0000 F0B5     		push	{r4, r5, r6, r7, lr}
  30              		.cfi_def_cfa_offset 20
  31              		.cfi_offset 4, -20
  32              		.cfi_offset 5, -16
  33              		.cfi_offset 6, -12
  34              		.cfi_offset 7, -8
ARM GAS  C:\Users\Tim\AppData\Local\Temp\ccYb0r1o.s 			page 7


  35              		.cfi_offset 14, -4
  36 0002 83B0     		sub	sp, sp, #12
  37              		.cfi_def_cfa_offset 32
  38 0004 051C     		mov	r5, r0
  39 0006 0191     		str	r1, [sp, #4]
  40              	.LVL1:
 309:..\source/motor.c ****     uint8 ii;
 310:..\source/motor.c ****     int32 count_start;
 311:..\source/motor.c ****     int32 count_end;
 312:..\source/motor.c ****     int32 deltas = 0;
  41              		.loc 1 312 0
  42 0008 0026     		mov	r6, #0
 313:..\source/motor.c ****     
 314:..\source/motor.c ****     for (ii = 0; ii < samples; ++ii)
  43              		.loc 1 314 0
  44 000a 0024     		mov	r4, #0
  45 000c 0BE0     		b	.L2
  46              	.LVL2:
  47              	.L3:
 315:..\source/motor.c ****     {
 316:..\source/motor.c ****         count_start = Encoder_GetCount();
  48              		.loc 1 316 0 discriminator 3
  49 000e FFF7FEFF 		bl	Encoder_GetCount
  50              	.LVL3:
  51 0012 071C     		mov	r7, r0
  52              	.LVL4:
 317:..\source/motor.c ****         CyDelay(delay);
  53              		.loc 1 317 0 discriminator 3
  54 0014 0198     		ldr	r0, [sp, #4]
  55              	.LVL5:
  56 0016 FFF7FEFF 		bl	CyDelay
  57              	.LVL6:
 318:..\source/motor.c ****         count_end = Encoder_GetCount();
  58              		.loc 1 318 0 discriminator 3
  59 001a FFF7FEFF 		bl	Encoder_GetCount
  60              	.LVL7:
 319:..\source/motor.c ****         deltas += count_end - count_start;
  61              		.loc 1 319 0 discriminator 3
  62 001e C01B     		sub	r0, r0, r7
  63              	.LVL8:
  64 0020 3618     		add	r6, r6, r0
  65              	.LVL9:
 314:..\source/motor.c ****     {
  66              		.loc 1 314 0 discriminator 3
  67 0022 0134     		add	r4, r4, #1
  68              	.LVL10:
  69 0024 E4B2     		uxtb	r4, r4
  70              	.LVL11:
  71              	.L2:
 314:..\source/motor.c ****     {
  72              		.loc 1 314 0 is_stmt 0 discriminator 1
  73 0026 AC42     		cmp	r4, r5
  74 0028 F1D3     		bcc	.L3
 320:..\source/motor.c ****     }
 321:..\source/motor.c ****     deltas /= samples;
  75              		.loc 1 321 0 is_stmt 1
  76 002a 301C     		mov	r0, r6
ARM GAS  C:\Users\Tim\AppData\Local\Temp\ccYb0r1o.s 			page 8


  77 002c 291C     		mov	r1, r5
  78 002e FFF7FEFF 		bl	__aeabi_idiv
  79              	.LVL12:
 322:..\source/motor.c ****     return (abs(deltas) * MS_IN_SEC) / delay;
  80              		.loc 1 322 0
  81 0032 C317     		asr	r3, r0, #31
  82 0034 C018     		add	r0, r0, r3
  83              	.LVL13:
  84 0036 5840     		eor	r0, r3
  85 0038 FA23     		mov	r3, #250
  86 003a 9B00     		lsl	r3, r3, #2
  87 003c 5843     		mul	r0, r3
  88 003e 0199     		ldr	r1, [sp, #4]
  89 0040 FFF7FEFF 		bl	__aeabi_idiv
  90              	.LVL14:
  91 0044 00B2     		sxth	r0, r0
 323:..\source/motor.c **** }
  92              		.loc 1 323 0
  93 0046 03B0     		add	sp, sp, #12
  94              		@ sp needed
  95              	.LVL15:
  96 0048 F0BD     		pop	{r4, r5, r6, r7, pc}
  97              		.cfi_endproc
  98              	.LFE40:
  99              		.size	CalculateAverageCountPerSec, .-CalculateAverageCountPerSec
 100 004a C046     		.section	.text.Motor_Init,"ax",%progbits
 101              		.align	2
 102              		.global	Motor_Init
 103              		.code	16
 104              		.thumb_func
 105              		.type	Motor_Init, %function
 106              	Motor_Init:
 107              	.LFB36:
 232:..\source/motor.c ****     int ii;
 108              		.loc 1 232 0
 109              		.cfi_startproc
 110 0000 10B5     		push	{r4, lr}
 111              		.cfi_def_cfa_offset 8
 112              		.cfi_offset 4, -8
 113              		.cfi_offset 14, -4
 235:..\source/motor.c ****     
 114              		.loc 1 235 0
 115 0002 0120     		mov	r0, #1
 116 0004 FFF7FEFF 		bl	HB25_Enable_Pin_Write
 117              	.LVL16:
 238:..\source/motor.c ****     {
 118              		.loc 1 238 0
 119 0008 0023     		mov	r3, #0
 120 000a 09E0     		b	.L5
 121              	.LVL17:
 122              	.L6:
 241:..\source/motor.c ****         cal_cps_to_pwm[ii].cps = -1;
 123              		.loc 1 241 0 discriminator 3
 124 000c 0D4A     		ldr	r2, .L11
 125 000e 9900     		lsl	r1, r3, #2
 126 0010 5018     		add	r0, r2, r1
 127 0012 E124     		mov	r4, #225
ARM GAS  C:\Users\Tim\AppData\Local\Temp\ccYb0r1o.s 			page 9


 128 0014 E400     		lsl	r4, r4, #3
 129 0016 4480     		strh	r4, [r0, #2]
 242:..\source/motor.c ****     }
 130              		.loc 1 242 0 discriminator 3
 131 0018 0120     		mov	r0, #1
 132 001a 4042     		neg	r0, r0
 133 001c 8852     		strh	r0, [r1, r2]
 238:..\source/motor.c ****     {
 134              		.loc 1 238 0 discriminator 3
 135 001e 0133     		add	r3, r3, #1
 136              	.LVL18:
 137              	.L5:
 238:..\source/motor.c ****     {
 138              		.loc 1 238 0 is_stmt 0 discriminator 1
 139 0020 312B     		cmp	r3, #49
 140 0022 F3DD     		ble	.L6
 141 0024 C723     		mov	r3, #199
 142              	.LVL19:
 143 0026 0AE0     		b	.L7
 144              	.LVL20:
 145              	.L10:
 250:..\source/motor.c ****         {
 146              		.loc 1 250 0 is_stmt 1
 147 0028 5A00     		lsl	r2, r3, #1
 148 002a 0749     		ldr	r1, .L11+4
 149 002c 515A     		ldrh	r1, [r2, r1]
 150 002e 074A     		ldr	r2, .L11+8
 151 0030 9142     		cmp	r1, r2
 152 0032 03D0     		beq	.L8
 252:..\source/motor.c ****             break;
 153              		.loc 1 252 0
 154 0034 4822     		mov	r2, #72
 155 0036 0649     		ldr	r1, .L11+12
 156 0038 8B54     		strb	r3, [r1, r2]
 253:..\source/motor.c ****         }
 157              		.loc 1 253 0
 158 003a 02E0     		b	.L4
 159              	.L8:
 248:..\source/motor.c ****     {
 160              		.loc 1 248 0 discriminator 2
 161 003c 013B     		sub	r3, r3, #1
 162              	.LVL21:
 163              	.L7:
 248:..\source/motor.c ****     {
 164              		.loc 1 248 0 is_stmt 0 discriminator 1
 165 003e 002B     		cmp	r3, #0
 166 0040 F2DC     		bgt	.L10
 167              	.L4:
 257:..\source/motor.c **** 
 168              		.loc 1 257 0 is_stmt 1
 169              		@ sp needed
 170 0042 10BD     		pop	{r4, pc}
 171              	.L12:
 172              		.align	2
 173              	.L11:
 174 0044 00000000 		.word	.LANCHOR0
 175 0048 00000000 		.word	.LANCHOR1
ARM GAS  C:\Users\Tim\AppData\Local\Temp\ccYb0r1o.s 			page 10


 176 004c DC050000 		.word	1500
 177 0050 80000000 		.word	.LANCHOR2
 178              		.cfi_endproc
 179              	.LFE36:
 180              		.size	Motor_Init, .-Motor_Init
 181              		.global	__aeabi_fmul
 182              		.global	__aeabi_f2d
 183              		.global	__aeabi_dmul
 184              		.global	__aeabi_dadd
 185              		.global	__aeabi_d2uiz
 186              		.section	.text.Motor_SetOutput,"ax",%progbits
 187              		.align	2
 188              		.global	Motor_SetOutput
 189              		.code	16
 190              		.thumb_func
 191              		.type	Motor_SetOutput, %function
 192              	Motor_SetOutput:
 193              	.LFB38:
 275:..\source/motor.c ****     uint16 pwm;
 194              		.loc 1 275 0
 195              		.cfi_startproc
 196              	.LVL22:
 197 0000 08B5     		push	{r3, lr}
 198              		.cfi_def_cfa_offset 8
 199              		.cfi_offset 3, -8
 200              		.cfi_offset 14, -4
 296:..\source/motor.c ****     
 201              		.loc 1 296 0
 202 0002 0949     		ldr	r1, .L14
 203 0004 FFF7FEFF 		bl	__aeabi_fmul
 204              	.LVL23:
 205 0008 FFF7FEFF 		bl	__aeabi_f2d
 206              	.LVL24:
 207 000c 0022     		mov	r2, #0
 208 000e 074B     		ldr	r3, .L14+4
 209 0010 FFF7FEFF 		bl	__aeabi_dmul
 210              	.LVL25:
 211 0014 0022     		mov	r2, #0
 212 0016 064B     		ldr	r3, .L14+8
 213 0018 FFF7FEFF 		bl	__aeabi_dadd
 214              	.LVL26:
 215 001c FFF7FEFF 		bl	__aeabi_d2uiz
 216              	.LVL27:
 217 0020 80B2     		uxth	r0, r0
 218              	.LVL28:
 298:..\source/motor.c **** }
 219              		.loc 1 298 0
 220 0022 FFF7FEFF 		bl	HB25_PWM_WriteCompare
 221              	.LVL29:
 299:..\source/motor.c **** 
 222              		.loc 1 299 0
 223              		@ sp needed
 224 0026 08BD     		pop	{r3, pc}
 225              	.L15:
 226              		.align	2
 227              	.L14:
 228 0028 00001644 		.word	1142292480
ARM GAS  C:\Users\Tim\AppData\Local\Temp\ccYb0r1o.s 			page 11


 229 002c 0000E03F 		.word	1071644672
 230 0030 00709740 		.word	1083666432
 231              		.cfi_endproc
 232              	.LFE38:
 233              		.size	Motor_SetOutput, .-Motor_SetOutput
 234              		.section	.text.Motor_Start,"ax",%progbits
 235              		.align	2
 236              		.global	Motor_Start
 237              		.code	16
 238              		.thumb_func
 239              		.type	Motor_Start, %function
 240              	Motor_Start:
 241              	.LFB37:
 260:..\source/motor.c ****     /* Enable the power on the HB-25 motor 
 242              		.loc 1 260 0
 243              		.cfi_startproc
 244 0000 08B5     		push	{r3, lr}
 245              		.cfi_def_cfa_offset 8
 246              		.cfi_offset 3, -8
 247              		.cfi_offset 14, -4
 266:..\source/motor.c ****     HB25_PWM_Start();
 248              		.loc 1 266 0
 249 0002 0020     		mov	r0, #0
 250 0004 FFF7FEFF 		bl	HB25_Enable_Pin_Write
 251              	.LVL30:
 267:..\source/motor.c ****     Motor_SetOutput(0);
 252              		.loc 1 267 0
 253 0008 FFF7FEFF 		bl	HB25_PWM_Start
 254              	.LVL31:
 268:..\source/motor.c **** }
 255              		.loc 1 268 0
 256 000c 0020     		mov	r0, #0
 257 000e FFF7FEFF 		bl	Motor_SetOutput
 258              	.LVL32:
 269:..\source/motor.c **** 
 259              		.loc 1 269 0
 260              		@ sp needed
 261 0012 08BD     		pop	{r3, pc}
 262              		.cfi_endproc
 263              	.LFE37:
 264              		.size	Motor_Start, .-Motor_Start
 265              		.section	.text.Motor_Stop,"ax",%progbits
 266              		.align	2
 267              		.global	Motor_Stop
 268              		.code	16
 269              		.thumb_func
 270              		.type	Motor_Stop, %function
 271              	Motor_Stop:
 272              	.LFB39:
 302:..\source/motor.c ****     HB25_PWM_Stop();
 273              		.loc 1 302 0
 274              		.cfi_startproc
 275 0000 08B5     		push	{r3, lr}
 276              		.cfi_def_cfa_offset 8
 277              		.cfi_offset 3, -8
 278              		.cfi_offset 14, -4
 303:..\source/motor.c ****     HB25_Enable_Pin_Write(HB25_DISABLE);
ARM GAS  C:\Users\Tim\AppData\Local\Temp\ccYb0r1o.s 			page 12


 279              		.loc 1 303 0
 280 0002 FFF7FEFF 		bl	HB25_PWM_Stop
 281              	.LVL33:
 304:..\source/motor.c **** }
 282              		.loc 1 304 0
 283 0006 0120     		mov	r0, #1
 284 0008 FFF7FEFF 		bl	HB25_Enable_Pin_Write
 285              	.LVL34:
 305:..\source/motor.c **** 
 286              		.loc 1 305 0
 287              		@ sp needed
 288 000c 08BD     		pop	{r3, pc}
 289              		.cfi_endproc
 290              	.LFE39:
 291              		.size	Motor_Stop, .-Motor_Stop
 292 000e C046     		.section	.text.Motor_Calibrate,"ax",%progbits
 293              		.align	2
 294              		.global	Motor_Calibrate
 295              		.code	16
 296              		.thumb_func
 297              		.type	Motor_Calibrate, %function
 298              	Motor_Calibrate:
 299              	.LFB41:
 324:..\source/motor.c **** 
 325:..\source/motor.c **** void Motor_Calibrate()
 326:..\source/motor.c **** /* The purpose of calibration is to find the maximum controllable PWM value
 327:..\source/motor.c **** 
 328:..\source/motor.c ****    Calibration is performed in three steps:
 329:..\source/motor.c **** 
 330:..\source/motor.c ****     1. Run the motor over the range of PWM values, calculating the speed at each pwm sample and sto
 331:..\source/motor.c ****        value in both forward and reverse.
 332:..\source/motor.c **** 
 333:..\source/motor.c ****  */
 334:..\source/motor.c **** {
 300              		.loc 1 334 0
 301              		.cfi_startproc
 302 0000 10B5     		push	{r4, lr}
 303              		.cfi_def_cfa_offset 8
 304              		.cfi_offset 4, -8
 305              		.cfi_offset 14, -4
 335:..\source/motor.c ****     uint16 pwm;
 336:..\source/motor.c ****     int16 meas_cps;
 337:..\source/motor.c ****     static int16 max_fwd_meas_cps;
 338:..\source/motor.c ****     static int16 max_rvs_meas_cps;
 339:..\source/motor.c ****     static uint16 max_pwm;
 340:..\source/motor.c ****     static uint16 min_pwm;
 341:..\source/motor.c ****     
 342:..\source/motor.c ****     /* Run the motor from stop to full forward pwm */
 343:..\source/motor.c ****     
 344:..\source/motor.c ****     max_fwd_meas_cps = 0;
 306              		.loc 1 344 0
 307 0002 0021     		mov	r1, #0
 308 0004 4A23     		mov	r3, #74
 309 0006 224A     		ldr	r2, .L25
 310 0008 D152     		strh	r1, [r2, r3]
 345:..\source/motor.c ****     
 346:..\source/motor.c ****     HB25_PWM_WriteCompare(PWM_STOP);
ARM GAS  C:\Users\Tim\AppData\Local\Temp\ccYb0r1o.s 			page 13


 311              		.loc 1 346 0
 312 000a 224C     		ldr	r4, .L25+4
 313 000c 201C     		mov	r0, r4
 314 000e FFF7FEFF 		bl	HB25_PWM_WriteCompare
 315              	.LVL35:
 347:..\source/motor.c ****     
 348:..\source/motor.c ****     for (pwm = PWM_STOP; pwm <= PWM_FULL_FORWARD; pwm += 20)
 316              		.loc 1 348 0
 317 0012 16E0     		b	.L19
 318              	.LVL36:
 319              	.L21:
 349:..\source/motor.c ****     {   
 350:..\source/motor.c ****         HB25_PWM_WriteCompare(pwm);
 320              		.loc 1 350 0
 321 0014 201C     		mov	r0, r4
 322 0016 FFF7FEFF 		bl	HB25_PWM_WriteCompare
 323              	.LVL37:
 351:..\source/motor.c ****         /* Allow the motor to settle before measuing the speed.  Same thing here as above regarding
 352:..\source/motor.c ****            the motor was stopped, here we're just changing the speed to be slightly slower.  I woul
 353:..\source/motor.c ****            200ms would be sufficient, but, again, 1sec gives the best and more accurate results.
 354:..\source/motor.c ****          */
 355:..\source/motor.c ****         CyDelay(PWM_SETTLE_TIME);
 324              		.loc 1 355 0
 325 001a FA20     		mov	r0, #250
 326 001c 8000     		lsl	r0, r0, #2
 327 001e FFF7FEFF 		bl	CyDelay
 328              	.LVL38:
 356:..\source/motor.c **** 
 357:..\source/motor.c ****         /* Measure the speed and calculate an average
 358:..\source/motor.c ****            Note: Averaging the delta counts proved more consistent than averaging cps
 359:..\source/motor.c ****          */
 360:..\source/motor.c ****         meas_cps = CalculateAverageCountPerSec(MAX_SPEED_SAMPLES, 200);
 329              		.loc 1 360 0
 330 0022 0520     		mov	r0, #5
 331 0024 C821     		mov	r1, #200
 332 0026 FFF7FEFF 		bl	CalculateAverageCountPerSec
 333              	.LVL39:
 361:..\source/motor.c ****         if (meas_cps > max_fwd_meas_cps)
 334              		.loc 1 361 0
 335 002a 4A23     		mov	r3, #74
 336 002c 184A     		ldr	r2, .L25
 337 002e D35E     		ldrsh	r3, [r2, r3]
 338 0030 9842     		cmp	r0, r3
 339 0032 04DD     		ble	.L20
 362:..\source/motor.c ****         {
 363:..\source/motor.c ****             max_fwd_meas_cps = meas_cps;
 340              		.loc 1 363 0
 341 0034 164B     		ldr	r3, .L25
 342 0036 4A22     		mov	r2, #74
 343 0038 9852     		strh	r0, [r3, r2]
 364:..\source/motor.c ****             max_pwm = pwm;
 344              		.loc 1 364 0
 345 003a 0232     		add	r2, r2, #2
 346 003c 9C52     		strh	r4, [r3, r2]
 347              	.L20:
 348:..\source/motor.c ****     {   
 348              		.loc 1 348 0 discriminator 2
ARM GAS  C:\Users\Tim\AppData\Local\Temp\ccYb0r1o.s 			page 14


 349 003e 1434     		add	r4, r4, #20
 350              	.LVL40:
 351 0040 A4B2     		uxth	r4, r4
 352              	.LVL41:
 353              	.L19:
 348:..\source/motor.c ****     {   
 354              		.loc 1 348 0 is_stmt 0 discriminator 1
 355 0042 E123     		mov	r3, #225
 356 0044 DB00     		lsl	r3, r3, #3
 357 0046 9C42     		cmp	r4, r3
 358 0048 E4D9     		bls	.L21
 365:..\source/motor.c ****         }
 366:..\source/motor.c ****         
 367:..\source/motor.c ****     }
 368:..\source/motor.c ****     
 369:..\source/motor.c ****     HB25_PWM_WriteCompare(PWM_STOP);
 359              		.loc 1 369 0 is_stmt 1
 360 004a 124C     		ldr	r4, .L25+4
 361              	.LVL42:
 362 004c 201C     		mov	r0, r4
 363 004e FFF7FEFF 		bl	HB25_PWM_WriteCompare
 364              	.LVL43:
 370:..\source/motor.c ****     
 371:..\source/motor.c ****     for (pwm = PWM_STOP; pwm >= PWM_FULL_REVERSE; pwm -= 20)
 365              		.loc 1 371 0
 366 0052 16E0     		b	.L22
 367              	.LVL44:
 368              	.L24:
 372:..\source/motor.c ****     {   
 373:..\source/motor.c ****         HB25_PWM_WriteCompare(pwm);
 369              		.loc 1 373 0
 370 0054 201C     		mov	r0, r4
 371 0056 FFF7FEFF 		bl	HB25_PWM_WriteCompare
 372              	.LVL45:
 374:..\source/motor.c ****         /* Allow the motor to settle before measuing the speed.  Same thing here as above regarding
 375:..\source/motor.c ****            the motor was stopped, here we're just changing the speed to be slightly slower.  I woul
 376:..\source/motor.c ****            200ms would be sufficient, but, again, 1sec gives the best and more accurate results.
 377:..\source/motor.c ****          */
 378:..\source/motor.c ****         CyDelay(PWM_SETTLE_TIME);
 373              		.loc 1 378 0
 374 005a FA20     		mov	r0, #250
 375 005c 8000     		lsl	r0, r0, #2
 376 005e FFF7FEFF 		bl	CyDelay
 377              	.LVL46:
 379:..\source/motor.c **** 
 380:..\source/motor.c ****         /* Measure the speed and calculate an average
 381:..\source/motor.c ****            Note: Averaging the delta counts proved more consistent than averaging cps
 382:..\source/motor.c ****          */
 383:..\source/motor.c ****         meas_cps = CalculateAverageCountPerSec(MAX_SPEED_SAMPLES, 200);
 378              		.loc 1 383 0
 379 0062 0520     		mov	r0, #5
 380 0064 C821     		mov	r1, #200
 381 0066 FFF7FEFF 		bl	CalculateAverageCountPerSec
 382              	.LVL47:
 384:..\source/motor.c ****         if (meas_cps > max_rvs_meas_cps)
 383              		.loc 1 384 0
 384 006a 4E23     		mov	r3, #78
ARM GAS  C:\Users\Tim\AppData\Local\Temp\ccYb0r1o.s 			page 15


 385 006c 084A     		ldr	r2, .L25
 386 006e D35E     		ldrsh	r3, [r2, r3]
 387 0070 9842     		cmp	r0, r3
 388 0072 04DD     		ble	.L23
 385:..\source/motor.c ****         {
 386:..\source/motor.c ****             max_rvs_meas_cps = meas_cps;
 389              		.loc 1 386 0
 390 0074 064B     		ldr	r3, .L25
 391 0076 4E22     		mov	r2, #78
 392 0078 9852     		strh	r0, [r3, r2]
 387:..\source/motor.c ****             min_pwm = pwm;
 393              		.loc 1 387 0
 394 007a 0232     		add	r2, r2, #2
 395 007c 9C52     		strh	r4, [r3, r2]
 396              	.L23:
 371:..\source/motor.c ****     {   
 397              		.loc 1 371 0 discriminator 2
 398 007e 143C     		sub	r4, r4, #20
 399              	.LVL48:
 400 0080 A4B2     		uxth	r4, r4
 401              	.LVL49:
 402              	.L22:
 371:..\source/motor.c ****     {   
 403              		.loc 1 371 0 is_stmt 0 discriminator 1
 404 0082 054B     		ldr	r3, .L25+8
 405 0084 9C42     		cmp	r4, r3
 406 0086 E5D8     		bhi	.L24
 388:..\source/motor.c ****         }
 389:..\source/motor.c ****         
 390:..\source/motor.c ****     }
 391:..\source/motor.c ****     
 392:..\source/motor.c ****     HB25_PWM_WriteCompare(PWM_STOP);
 407              		.loc 1 392 0 is_stmt 1
 408 0088 0248     		ldr	r0, .L25+4
 409 008a FFF7FEFF 		bl	HB25_PWM_WriteCompare
 410              	.LVL50:
 393:..\source/motor.c **** }
 411              		.loc 1 393 0
 412              		@ sp needed
 413              	.LVL51:
 414 008e 10BD     		pop	{r4, pc}
 415              	.L26:
 416              		.align	2
 417              	.L25:
 418 0090 80000000 		.word	.LANCHOR2
 419 0094 DC050000 		.word	1500
 420 0098 AF040000 		.word	1199
 421              		.cfi_endproc
 422              	.LFE41:
 423              		.size	Motor_Calibrate, .-Motor_Calibrate
 424              		.section	.text.Motor_ValidateCalibration,"ax",%progbits
 425              		.align	2
 426              		.global	Motor_ValidateCalibration
 427              		.code	16
 428              		.thumb_func
 429              		.type	Motor_ValidateCalibration, %function
 430              	Motor_ValidateCalibration:
ARM GAS  C:\Users\Tim\AppData\Local\Temp\ccYb0r1o.s 			page 16


 431              	.LFB42:
 394:..\source/motor.c **** 
 395:..\source/motor.c **** void Motor_ValidateCalibration()
 396:..\source/motor.c **** {
 432              		.loc 1 396 0
 433              		.cfi_startproc
 434 0000 38B5     		push	{r3, r4, r5, lr}
 435              		.cfi_def_cfa_offset 16
 436              		.cfi_offset 3, -16
 437              		.cfi_offset 4, -12
 438              		.cfi_offset 5, -8
 439              		.cfi_offset 14, -4
 440              	.LVL52:
 397:..\source/motor.c ****     int ii;
 398:..\source/motor.c ****     int16 meas_cps;
 399:..\source/motor.c ****     static int16 values[20] = {0};
 400:..\source/motor.c ****     uint8 index = 0;
 401:..\source/motor.c ****     
 402:..\source/motor.c ****     
 403:..\source/motor.c ****     /* The following code tests that each entry selects a pwm value and results in a matching count
 404:..\source/motor.c ****      */
 405:..\source/motor.c ****     
 406:..\source/motor.c ****     Encoder_Reset();
 441              		.loc 1 406 0
 442 0002 FFF7FEFF 		bl	Encoder_Reset
 443              	.LVL53:
 400:..\source/motor.c ****     
 444              		.loc 1 400 0
 445 0006 0024     		mov	r4, #0
 407:..\source/motor.c ****     
 408:..\source/motor.c ****     for (ii = CAL_VAL_CPS_START; ii <= cps_to_pwm_last_entry; ii += CAL_VAL_STEP)
 446              		.loc 1 408 0
 447 0008 1425     		mov	r5, #20
 448 000a 14E0     		b	.L28
 449              	.LVL54:
 450              	.L29:
 409:..\source/motor.c ****     {
 410:..\source/motor.c ****         HB25_PWM_WriteCompare(map_cps_to_pwm[ii]);
 451              		.loc 1 410 0 discriminator 3
 452 000c 6A00     		lsl	r2, r5, #1
 453 000e 0E4B     		ldr	r3, .L30
 454 0010 D05A     		ldrh	r0, [r2, r3]
 455 0012 FFF7FEFF 		bl	HB25_PWM_WriteCompare
 456              	.LVL55:
 411:..\source/motor.c ****         CyDelay(PWM_SETTLE_TIME);
 457              		.loc 1 411 0 discriminator 3
 458 0016 FA20     		mov	r0, #250
 459 0018 8000     		lsl	r0, r0, #2
 460 001a FFF7FEFF 		bl	CyDelay
 461              	.LVL56:
 412:..\source/motor.c ****         
 413:..\source/motor.c ****         meas_cps = CalculateAverageCountPerSec(CAL_VAL_NUM_SAMPLES, CAL_VAL_SAMPLE_PERIOD);
 462              		.loc 1 413 0 discriminator 3
 463 001e 0220     		mov	r0, #2
 464 0020 FA21     		mov	r1, #250
 465 0022 FFF7FEFF 		bl	CalculateAverageCountPerSec
 466              	.LVL57:
ARM GAS  C:\Users\Tim\AppData\Local\Temp\ccYb0r1o.s 			page 17


 414:..\source/motor.c ****         
 415:..\source/motor.c ****         /* Report via the serial port the commanded cps and the meas_cps
 416:..\source/motor.c ****           Commanded       Measured
 417:..\source/motor.c ****             <cps>   ->   <meas_cps>
 418:..\source/motor.c ****          */
 419:..\source/motor.c ****         values[index] = meas_cps;
 467              		.loc 1 419 0 discriminator 3
 468 0026 6300     		lsl	r3, r4, #1
 469 0028 084A     		ldr	r2, .L30+4
 470 002a D318     		add	r3, r2, r3
 471 002c 5422     		mov	r2, #84
 472 002e 9852     		strh	r0, [r3, r2]
 420:..\source/motor.c ****         index++;
 473              		.loc 1 420 0 discriminator 3
 474 0030 0134     		add	r4, r4, #1
 475              	.LVL58:
 476 0032 E4B2     		uxtb	r4, r4
 477              	.LVL59:
 408:..\source/motor.c ****     {
 478              		.loc 1 408 0 discriminator 3
 479 0034 0A35     		add	r5, r5, #10
 480              	.LVL60:
 481              	.L28:
 408:..\source/motor.c ****     {
 482              		.loc 1 408 0 is_stmt 0 discriminator 1
 483 0036 4823     		mov	r3, #72
 484 0038 044A     		ldr	r2, .L30+4
 485 003a D35C     		ldrb	r3, [r2, r3]
 486 003c AB42     		cmp	r3, r5
 487 003e E5DA     		bge	.L29
 421:..\source/motor.c ****     }
 422:..\source/motor.c ****     
 423:..\source/motor.c ****     HB25_PWM_WriteCompare(PWM_STOP);      
 488              		.loc 1 423 0 is_stmt 1
 489 0040 0348     		ldr	r0, .L30+8
 490 0042 FFF7FEFF 		bl	HB25_PWM_WriteCompare
 491              	.LVL61:
 424:..\source/motor.c **** }
 492              		.loc 1 424 0
 493              		@ sp needed
 494              	.LVL62:
 495              	.LVL63:
 496 0046 38BD     		pop	{r3, r4, r5, pc}
 497              	.L31:
 498              		.align	2
 499              	.L30:
 500 0048 00000000 		.word	.LANCHOR1
 501 004c 80000000 		.word	.LANCHOR2
 502 0050 DC050000 		.word	1500
 503              		.cfi_endproc
 504              	.LFE42:
 505              		.size	Motor_ValidateCalibration, .-Motor_ValidateCalibration
 506              		.section	.text.Motor_GetCalValues,"ax",%progbits
 507              		.align	2
 508              		.global	Motor_GetCalValues
 509              		.code	16
 510              		.thumb_func
ARM GAS  C:\Users\Tim\AppData\Local\Temp\ccYb0r1o.s 			page 18


 511              		.type	Motor_GetCalValues, %function
 512              	Motor_GetCalValues:
 513              	.LFB43:
 425:..\source/motor.c **** 
 426:..\source/motor.c **** void Motor_GetCalValues(int16** cal_values, uint16* num_entries)
 427:..\source/motor.c **** {
 514              		.loc 1 427 0
 515              		.cfi_startproc
 516              	.LVL64:
 428:..\source/motor.c ****     *cal_values = (int16 *) map_cps_to_pwm;
 517              		.loc 1 428 0
 518 0000 034B     		ldr	r3, .L33
 519 0002 0360     		str	r3, [r0]
 429:..\source/motor.c ****     *num_entries = cps_to_pwm_last_entry + 1;
 520              		.loc 1 429 0
 521 0004 4823     		mov	r3, #72
 522 0006 034A     		ldr	r2, .L33+4
 523 0008 D35C     		ldrb	r3, [r2, r3]
 524 000a 0133     		add	r3, r3, #1
 525 000c 0B80     		strh	r3, [r1]
 430:..\source/motor.c **** }
 526              		.loc 1 430 0
 527              		@ sp needed
 528 000e 7047     		bx	lr
 529              	.L34:
 530              		.align	2
 531              	.L33:
 532 0010 00000000 		.word	.LANCHOR1
 533 0014 80000000 		.word	.LANCHOR2
 534              		.cfi_endproc
 535              	.LFE43:
 536              		.size	Motor_GetCalValues, .-Motor_GetCalValues
 537              		.comm	formatted_string,256,4
 538              		.data
 539              		.align	2
 540              		.set	.LANCHOR1,. + 0
 541              		.type	map_cps_to_pwm, %object
 542              		.size	map_cps_to_pwm, 400
 543              	map_cps_to_pwm:
 544 0000 DC05     		.short	1500
 545 0002 E005     		.short	1504
 546 0004 E405     		.short	1508
 547 0006 E805     		.short	1512
 548 0008 EC05     		.short	1516
 549 000a F005     		.short	1520
 550 000c F405     		.short	1524
 551 000e F805     		.short	1528
 552 0010 FC05     		.short	1532
 553 0012 0006     		.short	1536
 554 0014 0406     		.short	1540
 555 0016 0606     		.short	1542
 556 0018 0806     		.short	1544
 557 001a 0A06     		.short	1546
 558 001c 0C06     		.short	1548
 559 001e 0E06     		.short	1550
 560 0020 1006     		.short	1552
 561 0022 1206     		.short	1554
ARM GAS  C:\Users\Tim\AppData\Local\Temp\ccYb0r1o.s 			page 19


 562 0024 1406     		.short	1556
 563 0026 1606     		.short	1558
 564 0028 1806     		.short	1560
 565 002a 1906     		.short	1561
 566 002c 1A06     		.short	1562
 567 002e 1B06     		.short	1563
 568 0030 1C06     		.short	1564
 569 0032 1D06     		.short	1565
 570 0034 1E06     		.short	1566
 571 0036 1F06     		.short	1567
 572 0038 2006     		.short	1568
 573 003a 2106     		.short	1569
 574 003c 2206     		.short	1570
 575 003e 2406     		.short	1572
 576 0040 2606     		.short	1574
 577 0042 2806     		.short	1576
 578 0044 2A06     		.short	1578
 579 0046 2C06     		.short	1580
 580 0048 2E06     		.short	1582
 581 004a 3006     		.short	1584
 582 004c 3206     		.short	1586
 583 004e 3406     		.short	1588
 584 0050 3606     		.short	1590
 585 0052 3706     		.short	1591
 586 0054 3806     		.short	1592
 587 0056 3906     		.short	1593
 588 0058 3A06     		.short	1594
 589 005a 3B06     		.short	1595
 590 005c 3C06     		.short	1596
 591 005e 3D06     		.short	1597
 592 0060 3E06     		.short	1598
 593 0062 3F06     		.short	1599
 594 0064 4006     		.short	1600
 595 0066 4206     		.short	1602
 596 0068 4406     		.short	1604
 597 006a 4606     		.short	1606
 598 006c 4806     		.short	1608
 599 006e 4A06     		.short	1610
 600 0070 4C06     		.short	1612
 601 0072 4E06     		.short	1614
 602 0074 5006     		.short	1616
 603 0076 5206     		.short	1618
 604 0078 5406     		.short	1620
 605 007a 5506     		.short	1621
 606 007c 5606     		.short	1622
 607 007e 5706     		.short	1623
 608 0080 5806     		.short	1624
 609 0082 5906     		.short	1625
 610 0084 5A06     		.short	1626
 611 0086 5B06     		.short	1627
 612 0088 5C06     		.short	1628
 613 008a 5D06     		.short	1629
 614 008c 5E06     		.short	1630
 615 008e 6106     		.short	1633
 616 0090 6406     		.short	1636
 617 0092 6706     		.short	1639
 618 0094 6A06     		.short	1642
ARM GAS  C:\Users\Tim\AppData\Local\Temp\ccYb0r1o.s 			page 20


 619 0096 6D06     		.short	1645
 620 0098 7006     		.short	1648
 621 009a 7306     		.short	1651
 622 009c 7606     		.short	1654
 623 009e 7906     		.short	1657
 624 00a0 7C06     		.short	1660
 625 00a2 7D06     		.short	1661
 626 00a4 7E06     		.short	1662
 627 00a6 7F06     		.short	1663
 628 00a8 8006     		.short	1664
 629 00aa 8106     		.short	1665
 630 00ac 8206     		.short	1666
 631 00ae 8306     		.short	1667
 632 00b0 8406     		.short	1668
 633 00b2 8506     		.short	1669
 634 00b4 8606     		.short	1670
 635 00b6 8706     		.short	1671
 636 00b8 8806     		.short	1672
 637 00ba 8906     		.short	1673
 638 00bc 8A06     		.short	1674
 639 00be 8B06     		.short	1675
 640 00c0 8C06     		.short	1676
 641 00c2 8D06     		.short	1677
 642 00c4 8E06     		.short	1678
 643 00c6 8F06     		.short	1679
 644 00c8 9006     		.short	1680
 645 00ca 9206     		.short	1682
 646 00cc 9406     		.short	1684
 647 00ce 9606     		.short	1686
 648 00d0 9806     		.short	1688
 649 00d2 9A06     		.short	1690
 650 00d4 9C06     		.short	1692
 651 00d6 9E06     		.short	1694
 652 00d8 A006     		.short	1696
 653 00da A206     		.short	1698
 654 00dc A406     		.short	1700
 655 00de A506     		.short	1701
 656 00e0 A606     		.short	1702
 657 00e2 A706     		.short	1703
 658 00e4 A806     		.short	1704
 659 00e6 A906     		.short	1705
 660 00e8 AA06     		.short	1706
 661 00ea AB06     		.short	1707
 662 00ec AC06     		.short	1708
 663 00ee AD06     		.short	1709
 664 00f0 AE06     		.short	1710
 665 00f2 AF06     		.short	1711
 666 00f4 B006     		.short	1712
 667 00f6 B106     		.short	1713
 668 00f8 B206     		.short	1714
 669 00fa B306     		.short	1715
 670 00fc B406     		.short	1716
 671 00fe B506     		.short	1717
 672 0100 B606     		.short	1718
 673 0102 B706     		.short	1719
 674 0104 B806     		.short	1720
 675 0106 BA06     		.short	1722
ARM GAS  C:\Users\Tim\AppData\Local\Temp\ccYb0r1o.s 			page 21


 676 0108 BC06     		.short	1724
 677 010a BE06     		.short	1726
 678 010c C006     		.short	1728
 679 010e C206     		.short	1730
 680 0110 C406     		.short	1732
 681 0112 C606     		.short	1734
 682 0114 C806     		.short	1736
 683 0116 CA06     		.short	1738
 684 0118 CC06     		.short	1740
 685 011a CE06     		.short	1742
 686 011c D006     		.short	1744
 687 011e D206     		.short	1746
 688 0120 D406     		.short	1748
 689 0122 D606     		.short	1750
 690 0124 D806     		.short	1752
 691 0126 DA06     		.short	1754
 692 0128 DC06     		.short	1756
 693 012a DE06     		.short	1758
 694 012c E006     		.short	1760
 695 012e E206     		.short	1762
 696 0130 E406     		.short	1764
 697 0132 E606     		.short	1766
 698 0134 E806     		.short	1768
 699 0136 EA06     		.short	1770
 700 0138 EC06     		.short	1772
 701 013a EE06     		.short	1774
 702 013c F006     		.short	1776
 703 013e F206     		.short	1778
 704 0140 F406     		.short	1780
 705 0142 F606     		.short	1782
 706 0144 F806     		.short	1784
 707 0146 FA06     		.short	1786
 708 0148 FC06     		.short	1788
 709 014a FE06     		.short	1790
 710 014c 0007     		.short	1792
 711 014e 0207     		.short	1794
 712 0150 0407     		.short	1796
 713 0152 0607     		.short	1798
 714 0154 0807     		.short	1800
 715 0156 0907     		.short	1801
 716 0158 0A07     		.short	1802
 717 015a 0B07     		.short	1803
 718 015c 0C07     		.short	1804
 719 015e 0D07     		.short	1805
 720 0160 0E07     		.short	1806
 721 0162 0F07     		.short	1807
 722 0164 1007     		.short	1808
 723 0166 1107     		.short	1809
 724 0168 1207     		.short	1810
 725 016a 1307     		.short	1811
 726 016c 1407     		.short	1812
 727 016e 1507     		.short	1813
 728 0170 1607     		.short	1814
 729 0172 1707     		.short	1815
 730 0174 1807     		.short	1816
 731 0176 1907     		.short	1817
 732 0178 1A07     		.short	1818
ARM GAS  C:\Users\Tim\AppData\Local\Temp\ccYb0r1o.s 			page 22


 733 017a 1B07     		.short	1819
 734 017c 1C07     		.short	1820
 735 017e DC05     		.short	1500
 736 0180 DC05     		.short	1500
 737 0182 DC05     		.short	1500
 738 0184 DC05     		.short	1500
 739 0186 DC05     		.short	1500
 740 0188 DC05     		.short	1500
 741 018a DC05     		.short	1500
 742 018c DC05     		.short	1500
 743 018e DC05     		.short	1500
 744              		.bss
 745              		.align	2
 746              		.set	.LANCHOR0,. + 0
 747              		.set	.LANCHOR2,. + 128
 748              		.type	cal_cps_to_pwm, %object
 749              		.size	cal_cps_to_pwm, 200
 750              	cal_cps_to_pwm:
 751 0000 00000000 		.space	200
 751      00000000 
 751      00000000 
 751      00000000 
 751      00000000 
 752              		.type	cps_to_pwm_last_entry, %object
 753              		.size	cps_to_pwm_last_entry, 1
 754              	cps_to_pwm_last_entry:
 755 00c8 00       		.space	1
 756 00c9 00       		.space	1
 757              		.type	max_fwd_meas_cps.7835, %object
 758              		.size	max_fwd_meas_cps.7835, 2
 759              	max_fwd_meas_cps.7835:
 760 00ca 0000     		.space	2
 761              		.type	max_pwm.7837, %object
 762              		.size	max_pwm.7837, 2
 763              	max_pwm.7837:
 764 00cc 0000     		.space	2
 765              		.type	max_rvs_meas_cps.7836, %object
 766              		.size	max_rvs_meas_cps.7836, 2
 767              	max_rvs_meas_cps.7836:
 768 00ce 0000     		.space	2
 769              		.type	min_pwm.7838, %object
 770              		.size	min_pwm.7838, 2
 771              	min_pwm.7838:
 772 00d0 0000     		.space	2
 773 00d2 0000     		.space	2
 774              		.type	values.7849, %object
 775              		.size	values.7849, 40
 776              	values.7849:
 777 00d4 00000000 		.space	40
 777      00000000 
 777      00000000 
 777      00000000 
 777      00000000 
 778              		.text
 779              	.Letext0:
 780              		.file 2 "Generated_Source\\PSoC4/cytypes.h"
 781              		.file 3 "..\\source\\encoder.h"
ARM GAS  C:\Users\Tim\AppData\Local\Temp\ccYb0r1o.s 			page 23


 782              		.file 4 "Generated_Source\\PSoC4/CyLib.h"
 783              		.file 5 "Generated_Source\\PSoC4/HB25_Enable_Pin.h"
 784              		.file 6 "Generated_Source\\PSoC4/HB25_PWM.h"
 785              		.file 7 "..\\source\\debug.h"