ARM GAS  C:\Users\Tim\AppData\Local\Temp\ccpaosjb.s 			page 1


   1              		.cpu cortex-m0
   2              		.fpu softvfp
   3              		.eabi_attribute 20, 1
   4              		.eabi_attribute 21, 1
   5              		.eabi_attribute 23, 3
   6              		.eabi_attribute 24, 1
   7              		.eabi_attribute 25, 1
   8              		.eabi_attribute 26, 1
   9              		.eabi_attribute 30, 1
  10              		.eabi_attribute 34, 0
  11              		.eabi_attribute 18, 4
  12              		.code	16
  13              		.file	"odom.c"
  14              		.text
  15              	.Ltext0:
  16              		.cfi_sections	.debug_frame
  17              		.section	.text.Odom_Init,"ax",%progbits
  18              		.align	2
  19              		.global	Odom_Init
  20              		.code	16
  21              		.thumb_func
  22              		.type	Odom_Init, %function
  23              	Odom_Init:
  24              	.LFB36:
  25              		.file 1 "..\\source\\odom.c"
   1:..\source/odom.c **** /* ========================================
   2:..\source/odom.c ****  *
   3:..\source/odom.c ****  * Copyright YOUR COMPANY, THE YEAR
   4:..\source/odom.c ****  * All Rights Reserved
   5:..\source/odom.c ****  * UNPUBLISHED, LICENSED SOFTWARE.
   6:..\source/odom.c ****  *
   7:..\source/odom.c ****  * CONFIDENTIAL AND PROPRIETARY INFORMATION
   8:..\source/odom.c ****  * WHICH IS THE PROPERTY OF your company.
   9:..\source/odom.c ****  *
  10:..\source/odom.c ****  * ========================================
  11:..\source/odom.c **** */
  12:..\source/odom.c **** 
  13:..\source/odom.c **** #include "hwconfig.h"
  14:..\source/odom.c **** #include "odom.h"
  15:..\source/odom.c **** #include "encoder.h"
  16:..\source/odom.c **** #include "math.h"
  17:..\source/odom.c **** #include "time.h"
  18:..\source/odom.c **** #include "i2c.h"
  19:..\source/odom.c **** #include "utils.h"
  20:..\source/odom.c **** 
  21:..\source/odom.c **** #define SAMPLE_RATE (10) /* Hz */
  22:..\source/odom.c **** #define SAMPLE_PERIOD (1000/SAMPLE_RATE) /* milliseconds */
  23:..\source/odom.c **** 
  24:..\source/odom.c **** #define MILLIMETER_COUNT_SAMPLE_MILLIMETER (MILLIMETER_PER_COUNT / TRACK_WIDTH)
  25:..\source/odom.c **** 
  26:..\source/odom.c **** static int32 last_left_count;
  27:..\source/odom.c **** static int32 last_right_count;
  28:..\source/odom.c **** static float heading;
  29:..\source/odom.c **** static float x_dist;
  30:..\source/odom.c **** static float y_dist;
  31:..\source/odom.c **** static float linear_speed;
  32:..\source/odom.c **** static float angular_speed;
ARM GAS  C:\Users\Tim\AppData\Local\Temp\ccpaosjb.s 			page 2


  33:..\source/odom.c **** static float left_speed;
  34:..\source/odom.c **** static float right_speed;
  35:..\source/odom.c **** 
  36:..\source/odom.c **** void Odom_Init()
  37:..\source/odom.c **** {
  26              		.loc 1 37 0
  27              		.cfi_startproc
  38:..\source/odom.c ****     last_left_count = 0;
  28              		.loc 1 38 0
  29 0000 064B     		ldr	r3, .L2
  30 0002 0022     		mov	r2, #0
  31 0004 1A60     		str	r2, [r3]
  39:..\source/odom.c ****     last_right_count = 0;
  32              		.loc 1 39 0
  33 0006 5A60     		str	r2, [r3, #4]
  40:..\source/odom.c ****     heading = 0;
  34              		.loc 1 40 0
  35 0008 0022     		mov	r2, #0
  36 000a 9A60     		str	r2, [r3, #8]
  41:..\source/odom.c ****     x_dist = 0;
  37              		.loc 1 41 0
  38 000c DA60     		str	r2, [r3, #12]
  42:..\source/odom.c ****     y_dist = 0;
  39              		.loc 1 42 0
  40 000e 1A61     		str	r2, [r3, #16]
  43:..\source/odom.c ****     linear_speed = 0;
  41              		.loc 1 43 0
  42 0010 5A61     		str	r2, [r3, #20]
  44:..\source/odom.c ****     angular_speed = 0;
  43              		.loc 1 44 0
  44 0012 9A61     		str	r2, [r3, #24]
  45:..\source/odom.c ****     left_speed = 0;
  45              		.loc 1 45 0
  46 0014 DA61     		str	r2, [r3, #28]
  46:..\source/odom.c ****     right_speed = 0;
  47              		.loc 1 46 0
  48 0016 1A62     		str	r2, [r3, #32]
  47:..\source/odom.c **** }
  49              		.loc 1 47 0
  50              		@ sp needed
  51 0018 7047     		bx	lr
  52              	.L3:
  53 001a C046     		.align	2
  54              	.L2:
  55 001c 00000000 		.word	.LANCHOR0
  56              		.cfi_endproc
  57              	.LFE36:
  58              		.size	Odom_Init, .-Odom_Init
  59              		.section	.text.Odom_Start,"ax",%progbits
  60              		.align	2
  61              		.global	Odom_Start
  62              		.code	16
  63              		.thumb_func
  64              		.type	Odom_Start, %function
  65              	Odom_Start:
  66              	.LFB37:
  48:..\source/odom.c **** 
ARM GAS  C:\Users\Tim\AppData\Local\Temp\ccpaosjb.s 			page 3


  49:..\source/odom.c **** void Odom_Start()
  50:..\source/odom.c **** {
  67              		.loc 1 50 0
  68              		.cfi_startproc
  51:..\source/odom.c **** }
  69              		.loc 1 51 0
  70              		@ sp needed
  71 0000 7047     		bx	lr
  72              		.cfi_endproc
  73              	.LFE37:
  74              		.size	Odom_Start, .-Odom_Start
  75              		.global	__aeabi_i2d
  76              		.global	__aeabi_dmul
  77              		.global	__aeabi_d2f
  78              		.global	__aeabi_fadd
  79              		.global	__aeabi_f2d
  80              		.global	__aeabi_i2f
  81              		.global	__aeabi_ddiv
  82 0002 C046     		.section	.text.calc_odom,"ax",%progbits
  83              		.align	2
  84              		.global	calc_odom
  85              		.code	16
  86              		.thumb_func
  87              		.type	calc_odom, %function
  88              	calc_odom:
  89              	.LFB38:
  52:..\source/odom.c **** 
  53:..\source/odom.c **** void calc_odom()
  54:..\source/odom.c **** /*
  55:..\source/odom.c ****     Calculate the following:
  56:..\source/odom.c ****         heading
  57:..\source/odom.c ****             Requires: left/right delta count
  58:..\source/odom.c ****         x/y distance
  59:..\source/odom.c ****             Requires: heading and dist per count
  60:..\source/odom.c ****         linear/angular velocity
  61:..\source/odom.c ****             Requires: left/right delta count, left/right speed and track width
  62:..\source/odom.c ****  */
  63:..\source/odom.c **** {
  90              		.loc 1 63 0
  91              		.cfi_startproc
  92 0000 F0B5     		push	{r4, r5, r6, r7, lr}
  93              		.cfi_def_cfa_offset 20
  94              		.cfi_offset 4, -20
  95              		.cfi_offset 5, -16
  96              		.cfi_offset 6, -12
  97              		.cfi_offset 7, -8
  98              		.cfi_offset 14, -4
  99 0002 5746     		mov	r7, r10
 100 0004 4E46     		mov	r6, r9
 101 0006 C0B4     		push	{r6, r7}
 102              		.cfi_def_cfa_offset 28
 103              		.cfi_offset 9, -28
 104              		.cfi_offset 10, -24
 105 0008 8BB0     		sub	sp, sp, #44
 106              		.cfi_def_cfa_offset 72
  64:..\source/odom.c ****     static int32 last_left_count;
  65:..\source/odom.c ****     static int32 last_right_count;
ARM GAS  C:\Users\Tim\AppData\Local\Temp\ccpaosjb.s 			page 4


  66:..\source/odom.c ****     int32 left_count;
  67:..\source/odom.c ****     int32 right_count;
  68:..\source/odom.c ****     int32 delta_left_count;
  69:..\source/odom.c ****     int32 delta_right_count;
  70:..\source/odom.c ****     float delta_heading;
  71:..\source/odom.c ****     float delta_dist;
  72:..\source/odom.c ****     float delta_x_dist;
  73:..\source/odom.c ****     float delta_y_dist;
  74:..\source/odom.c ****     int16 left_speed;
  75:..\source/odom.c ****     int16 right_speed;
  76:..\source/odom.c ****     
  77:..\source/odom.c ****     Encoder_GetLRSpeed(&left_speed, &right_speed);
 107              		.loc 1 77 0
 108 000a 0E23     		mov	r3, #14
 109 000c 04AA     		add	r2, sp, #16
 110 000e 9446     		mov	ip, r2
 111 0010 6344     		add	r3, r3, ip
 112 0012 9A46     		mov	r10, r3
 113 0014 07AB     		add	r3, sp, #28
 114 0016 9946     		mov	r9, r3
 115 0018 5046     		mov	r0, r10
 116 001a 191C     		mov	r1, r3
 117 001c FFF7FEFF 		bl	Encoder_GetLRSpeed
 118              	.LVL0:
  78:..\source/odom.c ****     Encoder_GetLRCount(&left_count, &right_count);
 119              		.loc 1 78 0
 120 0020 09A8     		add	r0, sp, #36
 121 0022 08A9     		add	r1, sp, #32
 122 0024 FFF7FEFF 		bl	Encoder_GetLRCount
 123              	.LVL1:
  79:..\source/odom.c ****     
  80:..\source/odom.c ****     delta_left_count = left_count - last_left_count;
 124              		.loc 1 80 0
 125 0028 3C4C     		ldr	r4, .L6
 126 002a 099B     		ldr	r3, [sp, #36]
 127 002c 626A     		ldr	r2, [r4, #36]
 128 002e 9E1A     		sub	r6, r3, r2
 129              	.LVL2:
  81:..\source/odom.c ****     delta_right_count = right_count - last_right_count;
 130              		.loc 1 81 0
 131 0030 089B     		ldr	r3, [sp, #32]
 132 0032 A26A     		ldr	r2, [r4, #40]
 133 0034 9D1A     		sub	r5, r3, r2
 134              	.LVL3:
  82:..\source/odom.c ****     
  83:..\source/odom.c ****     Encoder_GetLRCount(&last_left_count, &last_right_count);
 135              		.loc 1 83 0
 136 0036 201C     		mov	r0, r4
 137 0038 2430     		add	r0, r0, #36
 138 003a 211C     		mov	r1, r4
 139 003c 2831     		add	r1, r1, #40
 140 003e FFF7FEFF 		bl	Encoder_GetLRCount
 141              	.LVL4:
  84:..\source/odom.c ****     
  85:..\source/odom.c ****     /* Calculate heading, limit heading to -Pi <= heading < Pi, and update
  86:..\source/odom.c ****                        delta count diff   meter   sample
  87:..\source/odom.c ****        delta heading = ----------------- X ----- X ------
ARM GAS  C:\Users\Tim\AppData\Local\Temp\ccpaosjb.s 			page 5


  88:..\source/odom.c ****                           sample           count   meter
  89:..\source/odom.c ****     */
  90:..\source/odom.c ****     delta_heading = (delta_right_count - delta_left_count) * MILLIMETER_COUNT_SAMPLE_MILLIMETER;
 142              		.loc 1 90 0
 143 0042 A81B     		sub	r0, r5, r6
 144 0044 FFF7FEFF 		bl	__aeabi_i2d
 145              	.LVL5:
 146 0048 354A     		ldr	r2, .L6+4
 147 004a 364B     		ldr	r3, .L6+8
 148 004c FFF7FEFF 		bl	__aeabi_dmul
 149              	.LVL6:
 150 0050 FFF7FEFF 		bl	__aeabi_d2f
 151              	.LVL7:
  91:..\source/odom.c ****     heading += delta_heading;
 152              		.loc 1 91 0
 153 0054 A168     		ldr	r1, [r4, #8]
 154 0056 FFF7FEFF 		bl	__aeabi_fadd
 155              	.LVL8:
 156 005a 071C     		add	r7, r0, #0
 157 005c A060     		str	r0, [r4, #8]
  92:..\source/odom.c **** 
  93:..\source/odom.c ****     // Calculate x/y distance and update
  94:..\source/odom.c ****     delta_dist = 0.5 * (delta_left_count + delta_right_count) * MILLIMETER_PER_COUNT;
 158              		.loc 1 94 0
 159 005e 7019     		add	r0, r6, r5
 160 0060 FFF7FEFF 		bl	__aeabi_i2d
 161              	.LVL9:
 162 0064 0022     		mov	r2, #0
 163 0066 304B     		ldr	r3, .L6+12
 164 0068 FFF7FEFF 		bl	__aeabi_dmul
 165              	.LVL10:
 166 006c 2F4A     		ldr	r2, .L6+16
 167 006e 304B     		ldr	r3, .L6+20
 168 0070 FFF7FEFF 		bl	__aeabi_dmul
 169              	.LVL11:
 170 0074 FFF7FEFF 		bl	__aeabi_d2f
 171              	.LVL12:
  95:..\source/odom.c ****     delta_x_dist = delta_dist * cos(heading);
 172              		.loc 1 95 0
 173 0078 FFF7FEFF 		bl	__aeabi_f2d
 174              	.LVL13:
 175 007c 0290     		str	r0, [sp, #8]
 176 007e 0391     		str	r1, [sp, #12]
 177 0080 0497     		str	r7, [sp, #16]
 178 0082 381C     		add	r0, r7, #0
 179 0084 FFF7FEFF 		bl	__aeabi_f2d
 180              	.LVL14:
 181 0088 061C     		mov	r6, r0
 182              	.LVL15:
 183 008a 0F1C     		mov	r7, r1
 184 008c FFF7FEFF 		bl	cos
 185              	.LVL16:
 186 0090 021C     		mov	r2, r0
 187 0092 0B1C     		mov	r3, r1
 188 0094 0298     		ldr	r0, [sp, #8]
 189 0096 0399     		ldr	r1, [sp, #12]
 190 0098 FFF7FEFF 		bl	__aeabi_dmul
ARM GAS  C:\Users\Tim\AppData\Local\Temp\ccpaosjb.s 			page 6


 191              	.LVL17:
 192 009c FFF7FEFF 		bl	__aeabi_d2f
 193              	.LVL18:
 194 00a0 051C     		add	r5, r0, #0
 195              	.LVL19:
  96:..\source/odom.c ****     delta_y_dist = delta_dist * sin(heading);
 196              		.loc 1 96 0
 197 00a2 301C     		mov	r0, r6
 198              	.LVL20:
 199 00a4 391C     		mov	r1, r7
 200 00a6 FFF7FEFF 		bl	sin
 201              	.LVL21:
 202 00aa 021C     		mov	r2, r0
 203 00ac 0B1C     		mov	r3, r1
 204 00ae 0298     		ldr	r0, [sp, #8]
 205 00b0 0399     		ldr	r1, [sp, #12]
 206 00b2 FFF7FEFF 		bl	__aeabi_dmul
 207              	.LVL22:
 208 00b6 FFF7FEFF 		bl	__aeabi_d2f
 209              	.LVL23:
 210 00ba 061C     		add	r6, r0, #0
 211              	.LVL24:
  97:..\source/odom.c **** 
  98:..\source/odom.c ****     x_dist += delta_x_dist;
 212              		.loc 1 98 0
 213 00bc 281C     		add	r0, r5, #0
 214              	.LVL25:
 215 00be E168     		ldr	r1, [r4, #12]
 216 00c0 FFF7FEFF 		bl	__aeabi_fadd
 217              	.LVL26:
 218 00c4 071C     		add	r7, r0, #0
 219 00c6 E060     		str	r0, [r4, #12]
  99:..\source/odom.c ****     y_dist += delta_y_dist;
 220              		.loc 1 99 0
 221 00c8 301C     		add	r0, r6, #0
 222 00ca 2169     		ldr	r1, [r4, #16]
 223 00cc FFF7FEFF 		bl	__aeabi_fadd
 224              	.LVL27:
 225 00d0 0590     		str	r0, [sp, #20]
 226 00d2 2061     		str	r0, [r4, #16]
 100:..\source/odom.c ****     
 101:..\source/odom.c ****     linear_speed = (right_speed + left_speed) / 2;
 227              		.loc 1 101 0
 228 00d4 4846     		mov	r0, r9
 229 00d6 0026     		mov	r6, #0
 230 00d8 865F     		ldrsh	r6, [r0, r6]
 231              	.LVL28:
 232 00da 5046     		mov	r0, r10
 233 00dc 0025     		mov	r5, #0
 234 00de 455F     		ldrsh	r5, [r0, r5]
 235              	.LVL29:
 236 00e0 7319     		add	r3, r6, r5
 237 00e2 D80F     		lsr	r0, r3, #31
 238 00e4 C018     		add	r0, r0, r3
 239 00e6 4010     		asr	r0, r0, #1
 240 00e8 FFF7FEFF 		bl	__aeabi_i2f
 241              	.LVL30:
ARM GAS  C:\Users\Tim\AppData\Local\Temp\ccpaosjb.s 			page 7


 242 00ec 0290     		str	r0, [sp, #8]
 243 00ee 6061     		str	r0, [r4, #20]
 102:..\source/odom.c ****     angular_speed = (right_speed - left_speed) / TRACK_WIDTH;
 244              		.loc 1 102 0
 245 00f0 701B     		sub	r0, r6, r5
 246 00f2 FFF7FEFF 		bl	__aeabi_i2d
 247              	.LVL31:
 248 00f6 0022     		mov	r2, #0
 249 00f8 0E4B     		ldr	r3, .L6+24
 250 00fa FFF7FEFF 		bl	__aeabi_ddiv
 251              	.LVL32:
 252 00fe FFF7FEFF 		bl	__aeabi_d2f
 253              	.LVL33:
 254 0102 A061     		str	r0, [r4, #24]
 103:..\source/odom.c ****     
 104:..\source/odom.c ****     I2c_WriteOdom(x_dist, y_dist, heading, linear_speed, angular_speed);
 255              		.loc 1 104 0
 256 0104 0090     		str	r0, [sp]
 257 0106 381C     		add	r0, r7, #0
 258 0108 0599     		ldr	r1, [sp, #20]
 259 010a 049A     		ldr	r2, [sp, #16]
 260 010c 029B     		ldr	r3, [sp, #8]
 261 010e FFF7FEFF 		bl	I2c_WriteOdom
 262              	.LVL34:
 105:..\source/odom.c ****         
 106:..\source/odom.c **** }
 263              		.loc 1 106 0
 264 0112 0BB0     		add	sp, sp, #44
 265              		@ sp needed
 266 0114 0CBC     		pop	{r2, r3}
 267 0116 9146     		mov	r9, r2
 268 0118 9A46     		mov	r10, r3
 269 011a F0BD     		pop	{r4, r5, r6, r7, pc}
 270              	.L7:
 271              		.align	2
 272              	.L6:
 273 011c 00000000 		.word	.LANCHOR0
 274 0120 578A0815 		.word	352881239
 275 0124 82E7803F 		.word	1065412482
 276 0128 0000E03F 		.word	1071644672
 277 012c C7711CC7 		.word	-954437177
 278 0130 719C0A40 		.word	1074437233
 279 0134 00307940 		.word	1081683968
 280              		.cfi_endproc
 281              	.LFE38:
 282              		.size	calc_odom, .-calc_odom
 283              		.section	.text.Odom_Update,"ax",%progbits
 284              		.align	2
 285              		.global	Odom_Update
 286              		.code	16
 287              		.thumb_func
 288              		.type	Odom_Update, %function
 289              	Odom_Update:
 290              	.LFB39:
 107:..\source/odom.c **** 
 108:..\source/odom.c **** void Odom_Update()
 109:..\source/odom.c **** {
ARM GAS  C:\Users\Tim\AppData\Local\Temp\ccpaosjb.s 			page 8


 291              		.loc 1 109 0
 292              		.cfi_startproc
 293 0000 08B5     		push	{r3, lr}
 294              		.cfi_def_cfa_offset 8
 295              		.cfi_offset 3, -8
 296              		.cfi_offset 14, -4
 110:..\source/odom.c ****     static uint32 last_odom_time = 0;
 111:..\source/odom.c ****     uint32 delta_time;
 112:..\source/odom.c ****     
 113:..\source/odom.c ****     delta_time = millis() - last_odom_time;
 297              		.loc 1 113 0
 298 0002 FFF7FEFF 		bl	millis
 299              	.LVL35:
 300 0006 064B     		ldr	r3, .L10
 301 0008 DB6A     		ldr	r3, [r3, #44]
 302 000a C01A     		sub	r0, r0, r3
 303              	.LVL36:
 114:..\source/odom.c ****     if (delta_time > SAMPLE_PERIOD)
 304              		.loc 1 114 0
 305 000c 6428     		cmp	r0, #100
 306 000e 05D9     		bls	.L8
 115:..\source/odom.c ****     {
 116:..\source/odom.c ****         last_odom_time = millis();
 307              		.loc 1 116 0
 308 0010 FFF7FEFF 		bl	millis
 309              	.LVL37:
 310 0014 024B     		ldr	r3, .L10
 311 0016 D862     		str	r0, [r3, #44]
 117:..\source/odom.c ****         calc_odom();
 312              		.loc 1 117 0
 313 0018 FFF7FEFF 		bl	calc_odom
 314              	.LVL38:
 315              	.L8:
 118:..\source/odom.c ****     }
 119:..\source/odom.c **** }
 316              		.loc 1 119 0
 317              		@ sp needed
 318 001c 08BD     		pop	{r3, pc}
 319              	.L11:
 320 001e C046     		.align	2
 321              	.L10:
 322 0020 00000000 		.word	.LANCHOR0
 323              		.cfi_endproc
 324              	.LFE39:
 325              		.size	Odom_Update, .-Odom_Update
 326              		.bss
 327              		.align	2
 328              		.set	.LANCHOR0,. + 0
 329              		.type	last_left_count, %object
 330              		.size	last_left_count, 4
 331              	last_left_count:
 332 0000 00000000 		.space	4
 333              		.type	last_right_count, %object
 334              		.size	last_right_count, 4
 335              	last_right_count:
 336 0004 00000000 		.space	4
 337              		.type	heading, %object
ARM GAS  C:\Users\Tim\AppData\Local\Temp\ccpaosjb.s 			page 9


 338              		.size	heading, 4
 339              	heading:
 340 0008 00000000 		.space	4
 341              		.type	x_dist, %object
 342              		.size	x_dist, 4
 343              	x_dist:
 344 000c 00000000 		.space	4
 345              		.type	y_dist, %object
 346              		.size	y_dist, 4
 347              	y_dist:
 348 0010 00000000 		.space	4
 349              		.type	linear_speed, %object
 350              		.size	linear_speed, 4
 351              	linear_speed:
 352 0014 00000000 		.space	4
 353              		.type	angular_speed, %object
 354              		.size	angular_speed, 4
 355              	angular_speed:
 356 0018 00000000 		.space	4
 357              		.type	left_speed, %object
 358              		.size	left_speed, 4
 359              	left_speed:
 360 001c 00000000 		.space	4
 361              		.type	right_speed, %object
 362              		.size	right_speed, 4
 363              	right_speed:
 364 0020 00000000 		.space	4
 365              		.type	last_left_count.7017, %object
 366              		.size	last_left_count.7017, 4
 367              	last_left_count.7017:
 368 0024 00000000 		.space	4
 369              		.type	last_right_count.7018, %object
 370              		.size	last_right_count.7018, 4
 371              	last_right_count.7018:
 372 0028 00000000 		.space	4
 373              		.type	last_odom_time.7031, %object
 374              		.size	last_odom_time.7031, 4
 375              	last_odom_time.7031:
 376 002c 00000000 		.space	4
 377              		.text
 378              	.Letext0:
 379              		.file 2 "Generated_Source\\PSoC4/cytypes.h"
 380              		.file 3 "..\\source\\encoder.h"
 381              		.file 4 "c:\\program files (x86)\\cypress\\psoc creator\\3.3\\psoc creator\\import\\gnu\\arm\\4.9.
 382              		.file 5 "..\\source\\i2c.h"
 383              		.file 6 "..\\source\\time.h"