ARM GAS  C:\Users\Tim\AppData\Local\Temp\ccrB1xge.s 			page 1


   1              		.cpu cortex-m0
   2              		.fpu softvfp
   3              		.eabi_attribute 20, 1
   4              		.eabi_attribute 21, 1
   5              		.eabi_attribute 23, 3
   6              		.eabi_attribute 24, 1
   7              		.eabi_attribute 25, 1
   8              		.eabi_attribute 26, 1
   9              		.eabi_attribute 30, 1
  10              		.eabi_attribute 34, 0
  11              		.eabi_attribute 18, 4
  12              		.code	16
  13              		.file	"pid.c"
  14              		.text
  15              	.Ltext0:
  16              		.cfi_sections	.debug_frame
  17              		.global	__aeabi_dadd
  18              		.global	__aeabi_dcmplt
  19              		.global	__aeabi_dcmpgt
  20              		.global	__aeabi_dsub
  21              		.global	__aeabi_dmul
  22              		.section	.text.pid_calc,"ax",%progbits
  23              		.align	2
  24              		.global	pid_calc
  25              		.code	16
  26              		.thumb_func
  27              		.type	pid_calc, %function
  28              	pid_calc:
  29              	.LFB36:
  30              		.file 1 "..\\source\\pid.c"
   1:..\source/pid.c **** /* ========================================
   2:..\source/pid.c ****  *
   3:..\source/pid.c ****  * Copyright YOUR COMPANY, THE YEAR
   4:..\source/pid.c ****  * All Rights Reserved
   5:..\source/pid.c ****  * UNPUBLISHED, LICENSED SOFTWARE.
   6:..\source/pid.c ****  *
   7:..\source/pid.c ****  * CONFIDENTIAL AND PROPRIETARY INFORMATION
   8:..\source/pid.c ****  * WHICH IS THE PROPERTY OF your company.
   9:..\source/pid.c ****  *
  10:..\source/pid.c ****  * ========================================
  11:..\source/pid.c **** */
  12:..\source/pid.c **** 
  13:..\source/pid.c **** #include <math.h>
  14:..\source/pid.c **** #include "pid.h"
  15:..\source/pid.c **** #include "encoder.h"
  16:..\source/pid.c **** #include "motor.h"
  17:..\source/pid.c **** #include "i2c.h"
  18:..\source/pid.c **** #include "utils.h"
  19:..\source/pid.c **** #include "debug.h"
  20:..\source/pid.c **** #include "time.h"
  21:..\source/pid.c **** 
  22:..\source/pid.c **** #define SAMPLE_RATE (20) // Hz
  23:..\source/pid.c **** #define SAMPLE_PERIOD (1000/SAMPLE_RATE) /* milliseconds */
  24:..\source/pid.c **** 
  25:..\source/pid.c **** #define MIN_KP (0)
  26:..\source/pid.c **** #define MAX_KP (1)
  27:..\source/pid.c **** #define MIN_KI (0)
ARM GAS  C:\Users\Tim\AppData\Local\Temp\ccrB1xge.s 			page 2


  28:..\source/pid.c **** #define MAX_KI (1)
  29:..\source/pid.c **** #define MIN_KD (0)
  30:..\source/pid.c **** #define MAX_KD (1)
  31:..\source/pid.c **** #define MIN_SAMPLE_RATE (0)
  32:..\source/pid.c **** #define MAX_SAMPLE_RATE (1)
  33:..\source/pid.c **** 
  34:..\source/pid.c **** #define DEFAULT_KP (1.0)
  35:..\source/pid.c **** #define DEFAULT_KI (0.5)
  36:..\source/pid.c **** #define DEFAULT_KD (0.0)
  37:..\source/pid.c **** 
  38:..\source/pid.c **** static float Kp;
  39:..\source/pid.c **** static float Ki;
  40:..\source/pid.c **** static float Kd;
  41:..\source/pid.c **** 
  42:..\source/pid.c **** /*---------------------------------*/
  43:..\source/pid.c **** 
  44:..\source/pid.c **** 
  45:..\source/pid.c **** typedef struct {
  46:..\source/pid.c ****     double windup_guard;
  47:..\source/pid.c ****     double proportional_gain;
  48:..\source/pid.c ****     double integral_gain;
  49:..\source/pid.c ****     double derivative_gain;
  50:..\source/pid.c ****     double prev_error;
  51:..\source/pid.c ****     double int_error;
  52:..\source/pid.c ****     double control;
  53:..\source/pid.c **** } PID;
  54:..\source/pid.c **** 
  55:..\source/pid.c **** static PID pid = {0.1, DEFAULT_KP, DEFAULT_KI, DEFAULT_KD, 0.0, 0.01, 0.0};
  56:..\source/pid.c **** 
  57:..\source/pid.c **** void pid_calc(PID* pid, double curr_error)
  58:..\source/pid.c **** {
  31              		.loc 1 58 0
  32              		.cfi_startproc
  33              	.LVL0:
  34 0000 F0B5     		push	{r4, r5, r6, r7, lr}
  35              		.cfi_def_cfa_offset 20
  36              		.cfi_offset 4, -20
  37              		.cfi_offset 5, -16
  38              		.cfi_offset 6, -12
  39              		.cfi_offset 7, -8
  40              		.cfi_offset 14, -4
  41 0002 87B0     		sub	sp, sp, #28
  42              		.cfi_def_cfa_offset 48
  43 0004 061C     		mov	r6, r0
  44 0006 0092     		str	r2, [sp]
  45 0008 0193     		str	r3, [sp, #4]
  59:..\source/pid.c ****     double diff;
  60:..\source/pid.c ****     double p_term;
  61:..\source/pid.c ****     double i_term;
  62:..\source/pid.c ****     double d_term;
  63:..\source/pid.c ****  
  64:..\source/pid.c ****     // integration with windup guarding
  65:..\source/pid.c ****     pid->int_error += curr_error;
  46              		.loc 1 65 0
  47 000a 101C     		mov	r0, r2
  48              	.LVL1:
  49 000c 191C     		mov	r1, r3
ARM GAS  C:\Users\Tim\AppData\Local\Temp\ccrB1xge.s 			page 3


  50 000e B26A     		ldr	r2, [r6, #40]
  51 0010 F36A     		ldr	r3, [r6, #44]
  52              	.LVL2:
  53 0012 FFF7FEFF 		bl	__aeabi_dadd
  54              	.LVL3:
  55 0016 041C     		mov	r4, r0
  56 0018 0D1C     		mov	r5, r1
  57 001a B462     		str	r4, [r6, #40]
  58 001c F562     		str	r5, [r6, #44]
  66:..\source/pid.c ****     if (pid->int_error < -(pid->windup_guard))
  59              		.loc 1 66 0
  60 001e 3368     		ldr	r3, [r6]
  61 0020 0293     		str	r3, [sp, #8]
  62 0022 7768     		ldr	r7, [r6, #4]
  63 0024 8022     		mov	r2, #128
  64 0026 1206     		lsl	r2, r2, #24
  65 0028 9446     		mov	ip, r2
  66 002a BC44     		add	ip, ip, r7
  67 002c 6246     		mov	r2, ip
  68 002e 0492     		str	r2, [sp, #16]
  69 0030 029A     		ldr	r2, [sp, #8]
  70 0032 6346     		mov	r3, ip
  71 0034 FFF7FEFF 		bl	__aeabi_dcmplt
  72              	.LVL4:
  73 0038 0028     		cmp	r0, #0
  74 003a 04D0     		beq	.L8
  67:..\source/pid.c ****         pid->int_error = -(pid->windup_guard);
  75              		.loc 1 67 0
  76 003c 029A     		ldr	r2, [sp, #8]
  77 003e 049B     		ldr	r3, [sp, #16]
  78 0040 B262     		str	r2, [r6, #40]
  79 0042 F362     		str	r3, [r6, #44]
  80 0044 0CE0     		b	.L4
  81              	.L8:
  68:..\source/pid.c ****     else if (pid->int_error > pid->windup_guard)
  82              		.loc 1 68 0
  83 0046 201C     		mov	r0, r4
  84 0048 291C     		mov	r1, r5
  85 004a 029C     		ldr	r4, [sp, #8]
  86 004c 221C     		mov	r2, r4
  87 004e 3B1C     		mov	r3, r7
  88 0050 FFF7FEFF 		bl	__aeabi_dcmpgt
  89              	.LVL5:
  90 0054 0028     		cmp	r0, #0
  91 0056 03D0     		beq	.L4
  69:..\source/pid.c ****         pid->int_error = pid->windup_guard;
  92              		.loc 1 69 0
  93 0058 221C     		mov	r2, r4
  94 005a 3B1C     		mov	r3, r7
  95 005c B262     		str	r2, [r6, #40]
  96 005e F362     		str	r3, [r6, #44]
  97              	.L4:
  70:..\source/pid.c ****  
  71:..\source/pid.c ****     // differentiation
  72:..\source/pid.c ****     diff = curr_error - pid->prev_error;
  98              		.loc 1 72 0
  99 0060 009C     		ldr	r4, [sp]
ARM GAS  C:\Users\Tim\AppData\Local\Temp\ccrB1xge.s 			page 4


 100 0062 019D     		ldr	r5, [sp, #4]
 101 0064 201C     		mov	r0, r4
 102 0066 291C     		mov	r1, r5
 103 0068 326A     		ldr	r2, [r6, #32]
 104 006a 736A     		ldr	r3, [r6, #36]
 105 006c FFF7FEFF 		bl	__aeabi_dsub
 106              	.LVL6:
 107 0070 0290     		str	r0, [sp, #8]
 108 0072 0391     		str	r1, [sp, #12]
 109              	.LVL7:
  73:..\source/pid.c ****  
  74:..\source/pid.c ****     // scaling
  75:..\source/pid.c ****     p_term = (pid->proportional_gain * curr_error);
 110              		.loc 1 75 0
 111 0074 B068     		ldr	r0, [r6, #8]
 112 0076 F168     		ldr	r1, [r6, #12]
 113              	.LVL8:
 114 0078 0094     		str	r4, [sp]
 115 007a 0195     		str	r5, [sp, #4]
 116              	.LVL9:
 117 007c 221C     		mov	r2, r4
 118 007e 2B1C     		mov	r3, r5
 119 0080 FFF7FEFF 		bl	__aeabi_dmul
 120              	.LVL10:
 121 0084 041C     		mov	r4, r0
 122 0086 0D1C     		mov	r5, r1
 123              	.LVL11:
  76:..\source/pid.c ****     i_term = (pid->integral_gain     * pid->int_error);
 124              		.loc 1 76 0
 125 0088 3069     		ldr	r0, [r6, #16]
 126 008a 7169     		ldr	r1, [r6, #20]
 127 008c B26A     		ldr	r2, [r6, #40]
 128 008e F36A     		ldr	r3, [r6, #44]
 129 0090 FFF7FEFF 		bl	__aeabi_dmul
 130              	.LVL12:
 131 0094 0490     		str	r0, [sp, #16]
 132 0096 0591     		str	r1, [sp, #20]
 133              	.LVL13:
  77:..\source/pid.c ****     d_term = (pid->derivative_gain   * diff);
 134              		.loc 1 77 0
 135 0098 B069     		ldr	r0, [r6, #24]
 136 009a F169     		ldr	r1, [r6, #28]
 137              	.LVL14:
 138 009c 029A     		ldr	r2, [sp, #8]
 139 009e 039B     		ldr	r3, [sp, #12]
 140 00a0 FFF7FEFF 		bl	__aeabi_dmul
 141              	.LVL15:
 142 00a4 0290     		str	r0, [sp, #8]
 143 00a6 0391     		str	r1, [sp, #12]
 144              	.LVL16:
  78:..\source/pid.c ****  
  79:..\source/pid.c ****     // summation of terms
  80:..\source/pid.c ****     pid->control = p_term + i_term + d_term;
 145              		.loc 1 80 0
 146 00a8 201C     		mov	r0, r4
 147              	.LVL17:
 148 00aa 291C     		mov	r1, r5
ARM GAS  C:\Users\Tim\AppData\Local\Temp\ccrB1xge.s 			page 5


 149 00ac 049A     		ldr	r2, [sp, #16]
 150 00ae 059B     		ldr	r3, [sp, #20]
 151 00b0 FFF7FEFF 		bl	__aeabi_dadd
 152              	.LVL18:
 153 00b4 029A     		ldr	r2, [sp, #8]
 154 00b6 039B     		ldr	r3, [sp, #12]
 155 00b8 FFF7FEFF 		bl	__aeabi_dadd
 156              	.LVL19:
 157 00bc 3063     		str	r0, [r6, #48]
 158 00be 7163     		str	r1, [r6, #52]
  81:..\source/pid.c ****  
  82:..\source/pid.c ****     // save current error as previous error for next iteration
  83:..\source/pid.c ****     pid->prev_error = curr_error;
 159              		.loc 1 83 0
 160 00c0 009B     		ldr	r3, [sp]
 161 00c2 019C     		ldr	r4, [sp, #4]
 162 00c4 3362     		str	r3, [r6, #32]
 163 00c6 7462     		str	r4, [r6, #36]
  84:..\source/pid.c **** }
 164              		.loc 1 84 0
 165 00c8 07B0     		add	sp, sp, #28
 166              		@ sp needed
 167              	.LVL20:
 168              	.LVL21:
 169 00ca F0BD     		pop	{r4, r5, r6, r7, pc}
 170              		.cfi_endproc
 171              	.LFE36:
 172              		.size	pid_calc, .-pid_calc
 173              		.section	.text.PID_Init,"ax",%progbits
 174              		.align	2
 175              		.global	PID_Init
 176              		.code	16
 177              		.thumb_func
 178              		.type	PID_Init, %function
 179              	PID_Init:
 180              	.LFB37:
  85:..\source/pid.c **** 
  86:..\source/pid.c **** void PID_Init(float p, float i, float d, uint8 sample_rate)
  87:..\source/pid.c **** {
 181              		.loc 1 87 0
 182              		.cfi_startproc
 183              	.LVL22:
  88:..\source/pid.c ****     Kp = p;
 184              		.loc 1 88 0
 185 0000 054B     		ldr	r3, .L10
 186              	.LVL23:
 187 0002 1860     		str	r0, [r3]
  89:..\source/pid.c ****     Ki = i;
 188              		.loc 1 89 0
 189 0004 5960     		str	r1, [r3, #4]
  90:..\source/pid.c ****     Kd = d;
 190              		.loc 1 90 0
 191 0006 9A60     		str	r2, [r3, #8]
 192              	.LVL24:
  91:..\source/pid.c ****     sample_rate = constrain(sample_rate, MIN_SAMPLE_RATE, MAX_SAMPLE_RATE);
  92:..\source/pid.c ****     pid.prev_error = 0;
 193              		.loc 1 92 0
ARM GAS  C:\Users\Tim\AppData\Local\Temp\ccrB1xge.s 			page 6


 194 0008 044B     		ldr	r3, .L10+4
 195 000a 0020     		mov	r0, #0
 196              	.LVL25:
 197 000c 0021     		mov	r1, #0
 198              	.LVL26:
 199 000e 1862     		str	r0, [r3, #32]
 200 0010 5962     		str	r1, [r3, #36]
  93:..\source/pid.c ****     pid.int_error = 0;
 201              		.loc 1 93 0
 202 0012 9862     		str	r0, [r3, #40]
 203 0014 D962     		str	r1, [r3, #44]
  94:..\source/pid.c **** }
 204              		.loc 1 94 0
 205              		@ sp needed
 206 0016 7047     		bx	lr
 207              	.L11:
 208              		.align	2
 209              	.L10:
 210 0018 00000000 		.word	.LANCHOR0
 211 001c 00000000 		.word	.LANCHOR1
 212              		.cfi_endproc
 213              	.LFE37:
 214              		.size	PID_Init, .-PID_Init
 215              		.section	.text.PID_Start,"ax",%progbits
 216              		.align	2
 217              		.global	PID_Start
 218              		.code	16
 219              		.thumb_func
 220              		.type	PID_Start, %function
 221              	PID_Start:
 222              	.LFB38:
  95:..\source/pid.c **** 
  96:..\source/pid.c **** void PID_Start()
  97:..\source/pid.c **** {
 223              		.loc 1 97 0
 224              		.cfi_startproc
  98:..\source/pid.c ****     Kp = DEFAULT_KP;
 225              		.loc 1 98 0
 226 0000 044B     		ldr	r3, .L13
 227 0002 FE22     		mov	r2, #254
 228 0004 9205     		lsl	r2, r2, #22
 229 0006 1A60     		str	r2, [r3]
  99:..\source/pid.c ****     Ki = DEFAULT_KI;
 230              		.loc 1 99 0
 231 0008 FC22     		mov	r2, #252
 232 000a 9205     		lsl	r2, r2, #22
 233 000c 5A60     		str	r2, [r3, #4]
 100:..\source/pid.c ****     Kd = DEFAULT_KD;
 234              		.loc 1 100 0
 235 000e 0022     		mov	r2, #0
 236 0010 9A60     		str	r2, [r3, #8]
 101:..\source/pid.c **** }
 237              		.loc 1 101 0
 238              		@ sp needed
 239 0012 7047     		bx	lr
 240              	.L14:
 241              		.align	2
ARM GAS  C:\Users\Tim\AppData\Local\Temp\ccrB1xge.s 			page 7


 242              	.L13:
 243 0014 00000000 		.word	.LANCHOR0
 244              		.cfi_endproc
 245              	.LFE38:
 246              		.size	PID_Start, .-PID_Start
 247              		.global	__aeabi_i2d
 248              		.global	__aeabi_d2iz
 249              		.section	.text.PID_Update,"ax",%progbits
 250              		.align	2
 251              		.global	PID_Update
 252              		.code	16
 253              		.thumb_func
 254              		.type	PID_Update, %function
 255              	PID_Update:
 256              	.LFB40:
 102:..\source/pid.c **** 
 103:..\source/pid.c **** static void PrintPid(PID *pid, int16 velocity)
 104:..\source/pid.c **** {
 105:..\source/pid.c ****     //COMMS_DEBUG_PRINT(0, "v: %d, i: %d, o: %2.1f, a: %d\n\r", velocity, input, output, adjust);
 106:..\source/pid.c ****     {
 107:..\source/pid.c ****     char buffer[256];
 108:..\source/pid.c ****     memset(buffer, 0, sizeof(buffer));
 109:..\source/pid.c ****     snprintf(buffer, sizeof(buffer), "\r\nc: %2.1f, dg: %2.1f, ie: %2.1f, ig: %2.1f, pe: %2.1f, pg:
 110:..\source/pid.c ****              pid->control, pid->derivative_gain, pid->int_error, pid->integral_gain,
 111:..\source/pid.c ****              pid->prev_error, pid->proportional_gain, pid->windup_guard, velocity);
 112:..\source/pid.c ****     UARTCOMMS_UartPutString(buffer);
 113:..\source/pid.c ****     }
 114:..\source/pid.c **** }
 115:..\source/pid.c **** 
 116:..\source/pid.c **** void PID_Update()
 117:..\source/pid.c **** {
 257              		.loc 1 117 0
 258              		.cfi_startproc
 259 0000 F0B5     		push	{r4, r5, r6, r7, lr}
 260              		.cfi_def_cfa_offset 20
 261              		.cfi_offset 4, -20
 262              		.cfi_offset 5, -16
 263              		.cfi_offset 6, -12
 264              		.cfi_offset 7, -8
 265              		.cfi_offset 14, -4
 266 0002 83B0     		sub	sp, sp, #12
 267              		.cfi_def_cfa_offset 32
 268              	.LVL27:
 118:..\source/pid.c **** #ifndef PID_BYPASS
 119:..\source/pid.c ****     static uint32 last_time = 0;
 120:..\source/pid.c ****     static int16 new_velocity = 0;
 121:..\source/pid.c ****     int16 velocity;
 122:..\source/pid.c ****     int16 input = 0;
 123:..\source/pid.c ****     uint32 delta_time;
 124:..\source/pid.c ****     
 125:..\source/pid.c ****     /* Read the velocity command */
 126:..\source/pid.c ****     I2c_ReadVelocity(&velocity);
 269              		.loc 1 126 0
 270 0004 6B46     		mov	r3, sp
 271 0006 981D     		add	r0, r3, #6
 272 0008 FFF7FEFF 		bl	I2c_ReadVelocity
 273              	.LVL28:
ARM GAS  C:\Users\Tim\AppData\Local\Temp\ccrB1xge.s 			page 8


 127:..\source/pid.c ****     //velocity = -200;
 128:..\source/pid.c ****     
 129:..\source/pid.c ****     delta_time = millis() - last_time;
 274              		.loc 1 129 0
 275 000c FFF7FEFF 		bl	millis
 276              	.LVL29:
 277 0010 154B     		ldr	r3, .L17
 278 0012 DB68     		ldr	r3, [r3, #12]
 279 0014 C01A     		sub	r0, r0, r3
 280              	.LVL30:
 130:..\source/pid.c ****     //if (DELTA_TIME(millis(), last_time, SAMPLE_PERIOD))
 131:..\source/pid.c ****     if (delta_time > SAMPLE_PERIOD)
 281              		.loc 1 131 0
 282 0016 3228     		cmp	r0, #50
 283 0018 23D9     		bls	.L15
 132:..\source/pid.c ****     {    
 133:..\source/pid.c ****         last_time = millis();
 284              		.loc 1 133 0
 285 001a FFF7FEFF 		bl	millis
 286              	.LVL31:
 287 001e 124D     		ldr	r5, .L17
 288 0020 E860     		str	r0, [r5, #12]
 134:..\source/pid.c ****         
 135:..\source/pid.c ****         input = Encoder_GetWheelSpeed();       
 289              		.loc 1 135 0
 290 0022 FFF7FEFF 		bl	Encoder_GetWheelSpeed
 291              	.LVL32:
 292 0026 041C     		mov	r4, r0
 293              	.LVL33:
 136:..\source/pid.c ****         pid_calc(&pid, velocity - input); 
 294              		.loc 1 136 0
 295 0028 6B46     		mov	r3, sp
 296 002a 0633     		add	r3, r3, #6
 297 002c 0020     		mov	r0, #0
 298 002e 185E     		ldrsh	r0, [r3, r0]
 299 0030 001B     		sub	r0, r0, r4
 300 0032 0E4E     		ldr	r6, .L17+4
 301 0034 FFF7FEFF 		bl	__aeabi_i2d
 302              	.LVL34:
 303 0038 021C     		mov	r2, r0
 304 003a 0B1C     		mov	r3, r1
 305 003c 301C     		mov	r0, r6
 306 003e FFF7FEFF 		bl	pid_calc
 307              	.LVL35:
 137:..\source/pid.c ****         new_velocity = input + pid.control;        
 308              		.loc 1 137 0
 309 0042 776B     		ldr	r7, [r6, #52]
 310 0044 366B     		ldr	r6, [r6, #48]
 311 0046 201C     		mov	r0, r4
 312 0048 FFF7FEFF 		bl	__aeabi_i2d
 313              	.LVL36:
 314 004c 321C     		mov	r2, r6
 315 004e 3B1C     		mov	r3, r7
 316 0050 FFF7FEFF 		bl	__aeabi_dadd
 317              	.LVL37:
 318 0054 FFF7FEFF 		bl	__aeabi_d2iz
 319              	.LVL38:
ARM GAS  C:\Users\Tim\AppData\Local\Temp\ccrB1xge.s 			page 9


 320 0058 80B2     		uxth	r0, r0
 321 005a 2882     		strh	r0, [r5, #16]
 138:..\source/pid.c ****         Motor_SetOutput(new_velocity);
 322              		.loc 1 138 0
 323 005c 00B2     		sxth	r0, r0
 324 005e FFF7FEFF 		bl	Motor_SetOutput
 325              	.LVL39:
 326              	.L15:
 139:..\source/pid.c ****         //PrintPid(&pid, new_velocity);
 140:..\source/pid.c ****     }
 141:..\source/pid.c ****     
 142:..\source/pid.c **** #else
 143:..\source/pid.c ****     Motor_SetOutput(velocity);
 144:..\source/pid.c **** #endif
 145:..\source/pid.c **** }
 327              		.loc 1 145 0
 328 0062 03B0     		add	sp, sp, #12
 329              		@ sp needed
 330 0064 F0BD     		pop	{r4, r5, r6, r7, pc}
 331              	.L18:
 332 0066 C046     		.align	2
 333              	.L17:
 334 0068 00000000 		.word	.LANCHOR0
 335 006c 00000000 		.word	.LANCHOR1
 336              		.cfi_endproc
 337              	.LFE40:
 338              		.size	PID_Update, .-PID_Update
 339              		.comm	formatted_string,256,4
 340              		.data
 341              		.align	3
 342              		.set	.LANCHOR1,. + 0
 343              		.type	pid, %object
 344              		.size	pid, 56
 345              	pid:
 346 0000 9A999999 		.word	-1717986918
 347 0004 9999B93F 		.word	1069128089
 348 0008 00000000 		.word	0
 349 000c 0000F03F 		.word	1072693248
 350 0010 00000000 		.word	0
 351 0014 0000E03F 		.word	1071644672
 352 0018 00000000 		.word	0
 353 001c 00000000 		.word	0
 354 0020 00000000 		.word	0
 355 0024 00000000 		.word	0
 356 0028 7B14AE47 		.word	1202590843
 357 002c E17A843F 		.word	1065646817
 358 0030 00000000 		.word	0
 359 0034 00000000 		.word	0
 360              		.bss
 361              		.align	2
 362              		.set	.LANCHOR0,. + 0
 363              		.type	Kp, %object
 364              		.size	Kp, 4
 365              	Kp:
 366 0000 00000000 		.space	4
 367              		.type	Ki, %object
 368              		.size	Ki, 4
ARM GAS  C:\Users\Tim\AppData\Local\Temp\ccrB1xge.s 			page 10


 369              	Ki:
 370 0004 00000000 		.space	4
 371              		.type	Kd, %object
 372              		.size	Kd, 4
 373              	Kd:
 374 0008 00000000 		.space	4
 375              		.type	last_time.7835, %object
 376              		.size	last_time.7835, 4
 377              	last_time.7835:
 378 000c 00000000 		.space	4
 379              		.type	new_velocity.7836, %object
 380              		.size	new_velocity.7836, 2
 381              	new_velocity.7836:
 382 0010 0000     		.space	2
 383 0012 0000     		.text
 384              	.Letext0:
 385              		.file 2 "Generated_Source\\PSoC4/cytypes.h"
 386              		.file 3 "..\\source\\i2c.h"
 387              		.file 4 "..\\source\\time.h"
 388              		.file 5 "..\\source\\encoder.h"
 389              		.file 6 "..\\source\\debug.h"
 390              		.file 7 "..\\source\\motor.h"