ARM GAS  C:\Users\Tim\AppData\Local\Temp\cccxbV1a.s 			page 1


   1              		.cpu cortex-m0
   2              		.fpu softvfp
   3              		.eabi_attribute 20, 1
   4              		.eabi_attribute 21, 1
   5              		.eabi_attribute 23, 3
   6              		.eabi_attribute 24, 1
   7              		.eabi_attribute 25, 1
   8              		.eabi_attribute 26, 1
   9              		.eabi_attribute 30, 1
  10              		.eabi_attribute 34, 0
  11              		.eabi_attribute 18, 4
  12              		.code	16
  13              		.file	"UARTCOMMS_SPI_UART.c"
  14              		.text
  15              	.Ltext0:
  16              		.cfi_sections	.debug_frame
  17              		.section	.text.UARTCOMMS_SpiUartReadRxData,"ax",%progbits
  18              		.align	2
  19              		.global	UARTCOMMS_SpiUartReadRxData
  20              		.code	16
  21              		.thumb_func
  22              		.type	UARTCOMMS_SpiUartReadRxData, %function
  23              	UARTCOMMS_SpiUartReadRxData:
  24              	.LFB1:
  25              		.file 1 ".\\Generated_Source\\PSoC4\\UARTCOMMS_SPI_UART.c"
   1:.\Generated_Source\PSoC4/UARTCOMMS_SPI_UART.c **** /*******************************************************************************
   2:.\Generated_Source\PSoC4/UARTCOMMS_SPI_UART.c **** * File Name: UARTCOMMS_SPI_UART.c
   3:.\Generated_Source\PSoC4/UARTCOMMS_SPI_UART.c **** * Version 3.10
   4:.\Generated_Source\PSoC4/UARTCOMMS_SPI_UART.c **** *
   5:.\Generated_Source\PSoC4/UARTCOMMS_SPI_UART.c **** * Description:
   6:.\Generated_Source\PSoC4/UARTCOMMS_SPI_UART.c **** *  This file provides the source code to the API for the SCB Component in
   7:.\Generated_Source\PSoC4/UARTCOMMS_SPI_UART.c **** *  SPI and UART modes.
   8:.\Generated_Source\PSoC4/UARTCOMMS_SPI_UART.c **** *
   9:.\Generated_Source\PSoC4/UARTCOMMS_SPI_UART.c **** * Note:
  10:.\Generated_Source\PSoC4/UARTCOMMS_SPI_UART.c **** *
  11:.\Generated_Source\PSoC4/UARTCOMMS_SPI_UART.c **** *******************************************************************************
  12:.\Generated_Source\PSoC4/UARTCOMMS_SPI_UART.c **** * Copyright 2013-2015, Cypress Semiconductor Corporation.  All rights reserved.
  13:.\Generated_Source\PSoC4/UARTCOMMS_SPI_UART.c **** * You may use this file only in accordance with the license, terms, conditions,
  14:.\Generated_Source\PSoC4/UARTCOMMS_SPI_UART.c **** * disclaimers, and limitations in the end user license agreement accompanying
  15:.\Generated_Source\PSoC4/UARTCOMMS_SPI_UART.c **** * the software package with which this file was provided.
  16:.\Generated_Source\PSoC4/UARTCOMMS_SPI_UART.c **** *******************************************************************************/
  17:.\Generated_Source\PSoC4/UARTCOMMS_SPI_UART.c **** 
  18:.\Generated_Source\PSoC4/UARTCOMMS_SPI_UART.c **** #include "UARTCOMMS_PVT.h"
  19:.\Generated_Source\PSoC4/UARTCOMMS_SPI_UART.c **** #include "UARTCOMMS_SPI_UART_PVT.h"
  20:.\Generated_Source\PSoC4/UARTCOMMS_SPI_UART.c **** 
  21:.\Generated_Source\PSoC4/UARTCOMMS_SPI_UART.c **** /***************************************
  22:.\Generated_Source\PSoC4/UARTCOMMS_SPI_UART.c **** *        SPI/UART Private Vars
  23:.\Generated_Source\PSoC4/UARTCOMMS_SPI_UART.c **** ***************************************/
  24:.\Generated_Source\PSoC4/UARTCOMMS_SPI_UART.c **** 
  25:.\Generated_Source\PSoC4/UARTCOMMS_SPI_UART.c **** #if(UARTCOMMS_INTERNAL_RX_SW_BUFFER_CONST)
  26:.\Generated_Source\PSoC4/UARTCOMMS_SPI_UART.c ****     volatile uint32 UARTCOMMS_rxBufferHead;
  27:.\Generated_Source\PSoC4/UARTCOMMS_SPI_UART.c ****     volatile uint32 UARTCOMMS_rxBufferTail;
  28:.\Generated_Source\PSoC4/UARTCOMMS_SPI_UART.c ****     volatile uint8  UARTCOMMS_rxBufferOverflow;
  29:.\Generated_Source\PSoC4/UARTCOMMS_SPI_UART.c **** #endif /* (UARTCOMMS_INTERNAL_RX_SW_BUFFER_CONST) */
  30:.\Generated_Source\PSoC4/UARTCOMMS_SPI_UART.c **** 
  31:.\Generated_Source\PSoC4/UARTCOMMS_SPI_UART.c **** #if(UARTCOMMS_INTERNAL_TX_SW_BUFFER_CONST)
  32:.\Generated_Source\PSoC4/UARTCOMMS_SPI_UART.c ****     volatile uint32 UARTCOMMS_txBufferHead;
ARM GAS  C:\Users\Tim\AppData\Local\Temp\cccxbV1a.s 			page 2


  33:.\Generated_Source\PSoC4/UARTCOMMS_SPI_UART.c ****     volatile uint32 UARTCOMMS_txBufferTail;
  34:.\Generated_Source\PSoC4/UARTCOMMS_SPI_UART.c **** #endif /* (UARTCOMMS_INTERNAL_TX_SW_BUFFER_CONST) */
  35:.\Generated_Source\PSoC4/UARTCOMMS_SPI_UART.c **** 
  36:.\Generated_Source\PSoC4/UARTCOMMS_SPI_UART.c **** #if(UARTCOMMS_INTERNAL_RX_SW_BUFFER)
  37:.\Generated_Source\PSoC4/UARTCOMMS_SPI_UART.c ****     /* Add one element to the buffer to receive full packet. One byte in receive buffer is always e
  38:.\Generated_Source\PSoC4/UARTCOMMS_SPI_UART.c ****     volatile uint8 UARTCOMMS_rxBufferInternal[UARTCOMMS_INTERNAL_RX_BUFFER_SIZE];
  39:.\Generated_Source\PSoC4/UARTCOMMS_SPI_UART.c **** #endif /* (UARTCOMMS_INTERNAL_RX_SW_BUFFER) */
  40:.\Generated_Source\PSoC4/UARTCOMMS_SPI_UART.c **** 
  41:.\Generated_Source\PSoC4/UARTCOMMS_SPI_UART.c **** #if(UARTCOMMS_INTERNAL_TX_SW_BUFFER)
  42:.\Generated_Source\PSoC4/UARTCOMMS_SPI_UART.c ****     volatile uint8 UARTCOMMS_txBufferInternal[UARTCOMMS_TX_BUFFER_SIZE];
  43:.\Generated_Source\PSoC4/UARTCOMMS_SPI_UART.c **** #endif /* (UARTCOMMS_INTERNAL_TX_SW_BUFFER) */
  44:.\Generated_Source\PSoC4/UARTCOMMS_SPI_UART.c **** 
  45:.\Generated_Source\PSoC4/UARTCOMMS_SPI_UART.c **** 
  46:.\Generated_Source\PSoC4/UARTCOMMS_SPI_UART.c **** #if(UARTCOMMS_RX_DIRECTION)
  47:.\Generated_Source\PSoC4/UARTCOMMS_SPI_UART.c ****     /*******************************************************************************
  48:.\Generated_Source\PSoC4/UARTCOMMS_SPI_UART.c ****     * Function Name: UARTCOMMS_SpiUartReadRxData
  49:.\Generated_Source\PSoC4/UARTCOMMS_SPI_UART.c ****     ********************************************************************************
  50:.\Generated_Source\PSoC4/UARTCOMMS_SPI_UART.c ****     *
  51:.\Generated_Source\PSoC4/UARTCOMMS_SPI_UART.c ****     * Summary:
  52:.\Generated_Source\PSoC4/UARTCOMMS_SPI_UART.c ****     *  Retrieves the next data element from the receive buffer.
  53:.\Generated_Source\PSoC4/UARTCOMMS_SPI_UART.c ****     *   - RX software buffer is disabled: Returns data element retrieved from
  54:.\Generated_Source\PSoC4/UARTCOMMS_SPI_UART.c ****     *     RX FIFO. Undefined data will be returned if the RX FIFO is empty.
  55:.\Generated_Source\PSoC4/UARTCOMMS_SPI_UART.c ****     *   - RX software buffer is enabled: Returns data element from the software
  56:.\Generated_Source\PSoC4/UARTCOMMS_SPI_UART.c ****     *     receive buffer. Zero value is returned if the software receive buffer
  57:.\Generated_Source\PSoC4/UARTCOMMS_SPI_UART.c ****     *     is empty.
  58:.\Generated_Source\PSoC4/UARTCOMMS_SPI_UART.c ****     *
  59:.\Generated_Source\PSoC4/UARTCOMMS_SPI_UART.c ****     * Parameters:
  60:.\Generated_Source\PSoC4/UARTCOMMS_SPI_UART.c ****     *  None
  61:.\Generated_Source\PSoC4/UARTCOMMS_SPI_UART.c ****     *
  62:.\Generated_Source\PSoC4/UARTCOMMS_SPI_UART.c ****     * Return:
  63:.\Generated_Source\PSoC4/UARTCOMMS_SPI_UART.c ****     *  Next data element from the receive buffer.
  64:.\Generated_Source\PSoC4/UARTCOMMS_SPI_UART.c ****     *
  65:.\Generated_Source\PSoC4/UARTCOMMS_SPI_UART.c ****     * Global Variables:
  66:.\Generated_Source\PSoC4/UARTCOMMS_SPI_UART.c ****     *  Look into UARTCOMMS_SpiInit for description.
  67:.\Generated_Source\PSoC4/UARTCOMMS_SPI_UART.c ****     *
  68:.\Generated_Source\PSoC4/UARTCOMMS_SPI_UART.c ****     *******************************************************************************/
  69:.\Generated_Source\PSoC4/UARTCOMMS_SPI_UART.c ****     uint32 UARTCOMMS_SpiUartReadRxData(void)
  70:.\Generated_Source\PSoC4/UARTCOMMS_SPI_UART.c ****     {
  26              		.loc 1 70 0
  27              		.cfi_startproc
  28              	.LVL0:
  71:.\Generated_Source\PSoC4/UARTCOMMS_SPI_UART.c ****         uint32 rxData = 0u;
  72:.\Generated_Source\PSoC4/UARTCOMMS_SPI_UART.c **** 
  73:.\Generated_Source\PSoC4/UARTCOMMS_SPI_UART.c ****     #if (UARTCOMMS_INTERNAL_RX_SW_BUFFER_CONST)
  74:.\Generated_Source\PSoC4/UARTCOMMS_SPI_UART.c ****         uint32 locTail;
  75:.\Generated_Source\PSoC4/UARTCOMMS_SPI_UART.c ****     #endif /* (UARTCOMMS_INTERNAL_RX_SW_BUFFER_CONST) */
  76:.\Generated_Source\PSoC4/UARTCOMMS_SPI_UART.c **** 
  77:.\Generated_Source\PSoC4/UARTCOMMS_SPI_UART.c ****         #if (UARTCOMMS_CHECK_RX_SW_BUFFER)
  78:.\Generated_Source\PSoC4/UARTCOMMS_SPI_UART.c ****         {
  79:.\Generated_Source\PSoC4/UARTCOMMS_SPI_UART.c ****             if (UARTCOMMS_rxBufferHead != UARTCOMMS_rxBufferTail)
  80:.\Generated_Source\PSoC4/UARTCOMMS_SPI_UART.c ****             {
  81:.\Generated_Source\PSoC4/UARTCOMMS_SPI_UART.c ****                 /* There is data in RX software buffer */
  82:.\Generated_Source\PSoC4/UARTCOMMS_SPI_UART.c **** 
  83:.\Generated_Source\PSoC4/UARTCOMMS_SPI_UART.c ****                 /* Calculate index to read from */
  84:.\Generated_Source\PSoC4/UARTCOMMS_SPI_UART.c ****                 locTail = (UARTCOMMS_rxBufferTail + 1u);
  85:.\Generated_Source\PSoC4/UARTCOMMS_SPI_UART.c **** 
  86:.\Generated_Source\PSoC4/UARTCOMMS_SPI_UART.c ****                 if (UARTCOMMS_INTERNAL_RX_BUFFER_SIZE == locTail)
ARM GAS  C:\Users\Tim\AppData\Local\Temp\cccxbV1a.s 			page 3


  87:.\Generated_Source\PSoC4/UARTCOMMS_SPI_UART.c ****                 {
  88:.\Generated_Source\PSoC4/UARTCOMMS_SPI_UART.c ****                     locTail = 0u;
  89:.\Generated_Source\PSoC4/UARTCOMMS_SPI_UART.c ****                 }
  90:.\Generated_Source\PSoC4/UARTCOMMS_SPI_UART.c **** 
  91:.\Generated_Source\PSoC4/UARTCOMMS_SPI_UART.c ****                 /* Get data from RX software buffer */
  92:.\Generated_Source\PSoC4/UARTCOMMS_SPI_UART.c ****                 rxData = UARTCOMMS_GetWordFromRxBuffer(locTail);
  93:.\Generated_Source\PSoC4/UARTCOMMS_SPI_UART.c **** 
  94:.\Generated_Source\PSoC4/UARTCOMMS_SPI_UART.c ****                 /* Change index in the buffer */
  95:.\Generated_Source\PSoC4/UARTCOMMS_SPI_UART.c ****                 UARTCOMMS_rxBufferTail = locTail;
  96:.\Generated_Source\PSoC4/UARTCOMMS_SPI_UART.c **** 
  97:.\Generated_Source\PSoC4/UARTCOMMS_SPI_UART.c ****                 #if (UARTCOMMS_CHECK_UART_RTS_CONTROL_FLOW)
  98:.\Generated_Source\PSoC4/UARTCOMMS_SPI_UART.c ****                 {
  99:.\Generated_Source\PSoC4/UARTCOMMS_SPI_UART.c ****                     /* Check if RX Not Empty is disabled in the interrupt */
 100:.\Generated_Source\PSoC4/UARTCOMMS_SPI_UART.c ****                     if (0u == (UARTCOMMS_INTR_RX_MASK_REG & UARTCOMMS_INTR_RX_NOT_EMPTY))
 101:.\Generated_Source\PSoC4/UARTCOMMS_SPI_UART.c ****                     {
 102:.\Generated_Source\PSoC4/UARTCOMMS_SPI_UART.c ****                         /* Enable RX Not Empty interrupt source to continue
 103:.\Generated_Source\PSoC4/UARTCOMMS_SPI_UART.c ****                         * receiving data into software buffer.
 104:.\Generated_Source\PSoC4/UARTCOMMS_SPI_UART.c ****                         */
 105:.\Generated_Source\PSoC4/UARTCOMMS_SPI_UART.c ****                         UARTCOMMS_INTR_RX_MASK_REG |= UARTCOMMS_INTR_RX_NOT_EMPTY;
 106:.\Generated_Source\PSoC4/UARTCOMMS_SPI_UART.c ****                     }
 107:.\Generated_Source\PSoC4/UARTCOMMS_SPI_UART.c ****                 }
 108:.\Generated_Source\PSoC4/UARTCOMMS_SPI_UART.c ****                 #endif
 109:.\Generated_Source\PSoC4/UARTCOMMS_SPI_UART.c **** 
 110:.\Generated_Source\PSoC4/UARTCOMMS_SPI_UART.c ****             }
 111:.\Generated_Source\PSoC4/UARTCOMMS_SPI_UART.c ****         }
 112:.\Generated_Source\PSoC4/UARTCOMMS_SPI_UART.c ****         #else
 113:.\Generated_Source\PSoC4/UARTCOMMS_SPI_UART.c ****         {
 114:.\Generated_Source\PSoC4/UARTCOMMS_SPI_UART.c ****             /* Read data from RX FIFO */
 115:.\Generated_Source\PSoC4/UARTCOMMS_SPI_UART.c ****             rxData = UARTCOMMS_RX_FIFO_RD_REG;
  29              		.loc 1 115 0
  30 0000 014B     		ldr	r3, .L2
  31 0002 1868     		ldr	r0, [r3]
  32              	.LVL1:
 116:.\Generated_Source\PSoC4/UARTCOMMS_SPI_UART.c ****         }
 117:.\Generated_Source\PSoC4/UARTCOMMS_SPI_UART.c ****         #endif
 118:.\Generated_Source\PSoC4/UARTCOMMS_SPI_UART.c **** 
 119:.\Generated_Source\PSoC4/UARTCOMMS_SPI_UART.c ****         return (rxData);
 120:.\Generated_Source\PSoC4/UARTCOMMS_SPI_UART.c ****     }
  33              		.loc 1 120 0
  34              		@ sp needed
  35 0004 7047     		bx	lr
  36              	.L3:
  37 0006 C046     		.align	2
  38              	.L2:
  39 0008 40032440 		.word	1076101952
  40              		.cfi_endproc
  41              	.LFE1:
  42              		.size	UARTCOMMS_SpiUartReadRxData, .-UARTCOMMS_SpiUartReadRxData
  43              		.section	.text.UARTCOMMS_SpiUartGetRxBufferSize,"ax",%progbits
  44              		.align	2
  45              		.global	UARTCOMMS_SpiUartGetRxBufferSize
  46              		.code	16
  47              		.thumb_func
  48              		.type	UARTCOMMS_SpiUartGetRxBufferSize, %function
  49              	UARTCOMMS_SpiUartGetRxBufferSize:
  50              	.LFB2:
 121:.\Generated_Source\PSoC4/UARTCOMMS_SPI_UART.c **** 
ARM GAS  C:\Users\Tim\AppData\Local\Temp\cccxbV1a.s 			page 4


 122:.\Generated_Source\PSoC4/UARTCOMMS_SPI_UART.c **** 
 123:.\Generated_Source\PSoC4/UARTCOMMS_SPI_UART.c ****     /*******************************************************************************
 124:.\Generated_Source\PSoC4/UARTCOMMS_SPI_UART.c ****     * Function Name: UARTCOMMS_SpiUartGetRxBufferSize
 125:.\Generated_Source\PSoC4/UARTCOMMS_SPI_UART.c ****     ********************************************************************************
 126:.\Generated_Source\PSoC4/UARTCOMMS_SPI_UART.c ****     *
 127:.\Generated_Source\PSoC4/UARTCOMMS_SPI_UART.c ****     * Summary:
 128:.\Generated_Source\PSoC4/UARTCOMMS_SPI_UART.c ****     *  Returns the number of received data elements in the receive buffer.
 129:.\Generated_Source\PSoC4/UARTCOMMS_SPI_UART.c ****     *   - RX software buffer disabled: returns the number of used entries in
 130:.\Generated_Source\PSoC4/UARTCOMMS_SPI_UART.c ****     *     RX FIFO.
 131:.\Generated_Source\PSoC4/UARTCOMMS_SPI_UART.c ****     *   - RX software buffer enabled: returns the number of elements which were
 132:.\Generated_Source\PSoC4/UARTCOMMS_SPI_UART.c ****     *     placed in the receive buffer. This does not include the hardware RX FIFO.
 133:.\Generated_Source\PSoC4/UARTCOMMS_SPI_UART.c ****     *
 134:.\Generated_Source\PSoC4/UARTCOMMS_SPI_UART.c ****     * Parameters:
 135:.\Generated_Source\PSoC4/UARTCOMMS_SPI_UART.c ****     *  None
 136:.\Generated_Source\PSoC4/UARTCOMMS_SPI_UART.c ****     *
 137:.\Generated_Source\PSoC4/UARTCOMMS_SPI_UART.c ****     * Return:
 138:.\Generated_Source\PSoC4/UARTCOMMS_SPI_UART.c ****     *  Number of received data elements
 139:.\Generated_Source\PSoC4/UARTCOMMS_SPI_UART.c ****     *
 140:.\Generated_Source\PSoC4/UARTCOMMS_SPI_UART.c ****     *******************************************************************************/
 141:.\Generated_Source\PSoC4/UARTCOMMS_SPI_UART.c ****     uint32 UARTCOMMS_SpiUartGetRxBufferSize(void)
 142:.\Generated_Source\PSoC4/UARTCOMMS_SPI_UART.c ****     {
  51              		.loc 1 142 0
  52              		.cfi_startproc
 143:.\Generated_Source\PSoC4/UARTCOMMS_SPI_UART.c ****         uint32 size;
 144:.\Generated_Source\PSoC4/UARTCOMMS_SPI_UART.c ****     #if (UARTCOMMS_INTERNAL_RX_SW_BUFFER_CONST)
 145:.\Generated_Source\PSoC4/UARTCOMMS_SPI_UART.c ****         uint32 locHead;
 146:.\Generated_Source\PSoC4/UARTCOMMS_SPI_UART.c ****     #endif /* (UARTCOMMS_INTERNAL_RX_SW_BUFFER_CONST) */
 147:.\Generated_Source\PSoC4/UARTCOMMS_SPI_UART.c **** 
 148:.\Generated_Source\PSoC4/UARTCOMMS_SPI_UART.c ****         #if (UARTCOMMS_CHECK_RX_SW_BUFFER)
 149:.\Generated_Source\PSoC4/UARTCOMMS_SPI_UART.c ****         {
 150:.\Generated_Source\PSoC4/UARTCOMMS_SPI_UART.c ****             locHead = UARTCOMMS_rxBufferHead;
 151:.\Generated_Source\PSoC4/UARTCOMMS_SPI_UART.c **** 
 152:.\Generated_Source\PSoC4/UARTCOMMS_SPI_UART.c ****             if(locHead >= UARTCOMMS_rxBufferTail)
 153:.\Generated_Source\PSoC4/UARTCOMMS_SPI_UART.c ****             {
 154:.\Generated_Source\PSoC4/UARTCOMMS_SPI_UART.c ****                 size = (locHead - UARTCOMMS_rxBufferTail);
 155:.\Generated_Source\PSoC4/UARTCOMMS_SPI_UART.c ****             }
 156:.\Generated_Source\PSoC4/UARTCOMMS_SPI_UART.c ****             else
 157:.\Generated_Source\PSoC4/UARTCOMMS_SPI_UART.c ****             {
 158:.\Generated_Source\PSoC4/UARTCOMMS_SPI_UART.c ****                 size = (locHead + (UARTCOMMS_INTERNAL_RX_BUFFER_SIZE - UARTCOMMS_rxBufferTail));
 159:.\Generated_Source\PSoC4/UARTCOMMS_SPI_UART.c ****             }
 160:.\Generated_Source\PSoC4/UARTCOMMS_SPI_UART.c ****         }
 161:.\Generated_Source\PSoC4/UARTCOMMS_SPI_UART.c ****         #else
 162:.\Generated_Source\PSoC4/UARTCOMMS_SPI_UART.c ****         {
 163:.\Generated_Source\PSoC4/UARTCOMMS_SPI_UART.c ****             size = UARTCOMMS_GET_RX_FIFO_ENTRIES;
  53              		.loc 1 163 0
  54 0000 024B     		ldr	r3, .L5
  55 0002 1B68     		ldr	r3, [r3]
  56 0004 1F20     		mov	r0, #31
  57 0006 1840     		and	r0, r3
  58              	.LVL2:
 164:.\Generated_Source\PSoC4/UARTCOMMS_SPI_UART.c ****         }
 165:.\Generated_Source\PSoC4/UARTCOMMS_SPI_UART.c ****         #endif
 166:.\Generated_Source\PSoC4/UARTCOMMS_SPI_UART.c **** 
 167:.\Generated_Source\PSoC4/UARTCOMMS_SPI_UART.c ****         return (size);
 168:.\Generated_Source\PSoC4/UARTCOMMS_SPI_UART.c ****     }
  59              		.loc 1 168 0
  60              		@ sp needed
ARM GAS  C:\Users\Tim\AppData\Local\Temp\cccxbV1a.s 			page 5


  61 0008 7047     		bx	lr
  62              	.L6:
  63 000a C046     		.align	2
  64              	.L5:
  65 000c 08032440 		.word	1076101896
  66              		.cfi_endproc
  67              	.LFE2:
  68              		.size	UARTCOMMS_SpiUartGetRxBufferSize, .-UARTCOMMS_SpiUartGetRxBufferSize
  69              		.section	.text.UARTCOMMS_SpiUartClearRxBuffer,"ax",%progbits
  70              		.align	2
  71              		.global	UARTCOMMS_SpiUartClearRxBuffer
  72              		.code	16
  73              		.thumb_func
  74              		.type	UARTCOMMS_SpiUartClearRxBuffer, %function
  75              	UARTCOMMS_SpiUartClearRxBuffer:
  76              	.LFB3:
 169:.\Generated_Source\PSoC4/UARTCOMMS_SPI_UART.c **** 
 170:.\Generated_Source\PSoC4/UARTCOMMS_SPI_UART.c **** 
 171:.\Generated_Source\PSoC4/UARTCOMMS_SPI_UART.c ****     /*******************************************************************************
 172:.\Generated_Source\PSoC4/UARTCOMMS_SPI_UART.c ****     * Function Name: UARTCOMMS_SpiUartClearRxBuffer
 173:.\Generated_Source\PSoC4/UARTCOMMS_SPI_UART.c ****     ********************************************************************************
 174:.\Generated_Source\PSoC4/UARTCOMMS_SPI_UART.c ****     *
 175:.\Generated_Source\PSoC4/UARTCOMMS_SPI_UART.c ****     * Summary:
 176:.\Generated_Source\PSoC4/UARTCOMMS_SPI_UART.c ****     *  Clears the receive buffer and RX FIFO.
 177:.\Generated_Source\PSoC4/UARTCOMMS_SPI_UART.c ****     *
 178:.\Generated_Source\PSoC4/UARTCOMMS_SPI_UART.c ****     * Parameters:
 179:.\Generated_Source\PSoC4/UARTCOMMS_SPI_UART.c ****     *  None
 180:.\Generated_Source\PSoC4/UARTCOMMS_SPI_UART.c ****     *
 181:.\Generated_Source\PSoC4/UARTCOMMS_SPI_UART.c ****     * Return:
 182:.\Generated_Source\PSoC4/UARTCOMMS_SPI_UART.c ****     *  None
 183:.\Generated_Source\PSoC4/UARTCOMMS_SPI_UART.c ****     *
 184:.\Generated_Source\PSoC4/UARTCOMMS_SPI_UART.c ****     *******************************************************************************/
 185:.\Generated_Source\PSoC4/UARTCOMMS_SPI_UART.c ****     void UARTCOMMS_SpiUartClearRxBuffer(void)
 186:.\Generated_Source\PSoC4/UARTCOMMS_SPI_UART.c ****     {
  77              		.loc 1 186 0
  78              		.cfi_startproc
 187:.\Generated_Source\PSoC4/UARTCOMMS_SPI_UART.c ****         #if (UARTCOMMS_CHECK_RX_SW_BUFFER)
 188:.\Generated_Source\PSoC4/UARTCOMMS_SPI_UART.c ****         {
 189:.\Generated_Source\PSoC4/UARTCOMMS_SPI_UART.c ****             /* Lock from component interruption */
 190:.\Generated_Source\PSoC4/UARTCOMMS_SPI_UART.c ****             UARTCOMMS_DisableInt();
 191:.\Generated_Source\PSoC4/UARTCOMMS_SPI_UART.c **** 
 192:.\Generated_Source\PSoC4/UARTCOMMS_SPI_UART.c ****             /* Flush RX software buffer */
 193:.\Generated_Source\PSoC4/UARTCOMMS_SPI_UART.c ****             UARTCOMMS_rxBufferHead = UARTCOMMS_rxBufferTail;
 194:.\Generated_Source\PSoC4/UARTCOMMS_SPI_UART.c ****             UARTCOMMS_rxBufferOverflow = 0u;
 195:.\Generated_Source\PSoC4/UARTCOMMS_SPI_UART.c **** 
 196:.\Generated_Source\PSoC4/UARTCOMMS_SPI_UART.c ****             UARTCOMMS_CLEAR_RX_FIFO;
 197:.\Generated_Source\PSoC4/UARTCOMMS_SPI_UART.c ****             UARTCOMMS_ClearRxInterruptSource(UARTCOMMS_INTR_RX_ALL);
 198:.\Generated_Source\PSoC4/UARTCOMMS_SPI_UART.c **** 
 199:.\Generated_Source\PSoC4/UARTCOMMS_SPI_UART.c ****             #if (UARTCOMMS_CHECK_UART_RTS_CONTROL_FLOW)
 200:.\Generated_Source\PSoC4/UARTCOMMS_SPI_UART.c ****             {
 201:.\Generated_Source\PSoC4/UARTCOMMS_SPI_UART.c ****                 /* Enable RX Not Empty interrupt source to continue receiving
 202:.\Generated_Source\PSoC4/UARTCOMMS_SPI_UART.c ****                 * data into software buffer.
 203:.\Generated_Source\PSoC4/UARTCOMMS_SPI_UART.c ****                 */
 204:.\Generated_Source\PSoC4/UARTCOMMS_SPI_UART.c ****                 UARTCOMMS_INTR_RX_MASK_REG |= UARTCOMMS_INTR_RX_NOT_EMPTY;
 205:.\Generated_Source\PSoC4/UARTCOMMS_SPI_UART.c ****             }
 206:.\Generated_Source\PSoC4/UARTCOMMS_SPI_UART.c ****             #endif
 207:.\Generated_Source\PSoC4/UARTCOMMS_SPI_UART.c **** 
ARM GAS  C:\Users\Tim\AppData\Local\Temp\cccxbV1a.s 			page 6


 208:.\Generated_Source\PSoC4/UARTCOMMS_SPI_UART.c ****             /* Release lock */
 209:.\Generated_Source\PSoC4/UARTCOMMS_SPI_UART.c ****             UARTCOMMS_EnableInt();
 210:.\Generated_Source\PSoC4/UARTCOMMS_SPI_UART.c ****         }
 211:.\Generated_Source\PSoC4/UARTCOMMS_SPI_UART.c ****         #else
 212:.\Generated_Source\PSoC4/UARTCOMMS_SPI_UART.c ****         {
 213:.\Generated_Source\PSoC4/UARTCOMMS_SPI_UART.c ****             UARTCOMMS_CLEAR_RX_FIFO;
  79              		.loc 1 213 0
  80 0000 054B     		ldr	r3, .L8
  81 0002 1A68     		ldr	r2, [r3]
  82 0004 8021     		mov	r1, #128
  83 0006 4902     		lsl	r1, r1, #9
  84 0008 0A43     		orr	r2, r1
  85 000a 1A60     		str	r2, [r3]
  86 000c 1968     		ldr	r1, [r3]
  87 000e 034A     		ldr	r2, .L8+4
  88 0010 0A40     		and	r2, r1
  89 0012 1A60     		str	r2, [r3]
 214:.\Generated_Source\PSoC4/UARTCOMMS_SPI_UART.c ****         }
 215:.\Generated_Source\PSoC4/UARTCOMMS_SPI_UART.c ****         #endif
 216:.\Generated_Source\PSoC4/UARTCOMMS_SPI_UART.c ****     }
  90              		.loc 1 216 0
  91              		@ sp needed
  92 0014 7047     		bx	lr
  93              	.L9:
  94 0016 C046     		.align	2
  95              	.L8:
  96 0018 04032440 		.word	1076101892
  97 001c FFFFFEFF 		.word	-65537
  98              		.cfi_endproc
  99              	.LFE3:
 100              		.size	UARTCOMMS_SpiUartClearRxBuffer, .-UARTCOMMS_SpiUartClearRxBuffer
 101              		.section	.text.UARTCOMMS_SpiUartWriteTxData,"ax",%progbits
 102              		.align	2
 103              		.global	UARTCOMMS_SpiUartWriteTxData
 104              		.code	16
 105              		.thumb_func
 106              		.type	UARTCOMMS_SpiUartWriteTxData, %function
 107              	UARTCOMMS_SpiUartWriteTxData:
 108              	.LFB4:
 217:.\Generated_Source\PSoC4/UARTCOMMS_SPI_UART.c **** 
 218:.\Generated_Source\PSoC4/UARTCOMMS_SPI_UART.c **** #endif /* (UARTCOMMS_RX_DIRECTION) */
 219:.\Generated_Source\PSoC4/UARTCOMMS_SPI_UART.c **** 
 220:.\Generated_Source\PSoC4/UARTCOMMS_SPI_UART.c **** 
 221:.\Generated_Source\PSoC4/UARTCOMMS_SPI_UART.c **** #if(UARTCOMMS_TX_DIRECTION)
 222:.\Generated_Source\PSoC4/UARTCOMMS_SPI_UART.c ****     /*******************************************************************************
 223:.\Generated_Source\PSoC4/UARTCOMMS_SPI_UART.c ****     * Function Name: UARTCOMMS_SpiUartWriteTxData
 224:.\Generated_Source\PSoC4/UARTCOMMS_SPI_UART.c ****     ********************************************************************************
 225:.\Generated_Source\PSoC4/UARTCOMMS_SPI_UART.c ****     *
 226:.\Generated_Source\PSoC4/UARTCOMMS_SPI_UART.c ****     * Summary:
 227:.\Generated_Source\PSoC4/UARTCOMMS_SPI_UART.c ****     *  Places a data entry into the transmit buffer to be sent at the next available
 228:.\Generated_Source\PSoC4/UARTCOMMS_SPI_UART.c ****     *  bus time.
 229:.\Generated_Source\PSoC4/UARTCOMMS_SPI_UART.c ****     *  This function is blocking and waits until there is space available to put the
 230:.\Generated_Source\PSoC4/UARTCOMMS_SPI_UART.c ****     *  requested data in the transmit buffer.
 231:.\Generated_Source\PSoC4/UARTCOMMS_SPI_UART.c ****     *
 232:.\Generated_Source\PSoC4/UARTCOMMS_SPI_UART.c ****     * Parameters:
 233:.\Generated_Source\PSoC4/UARTCOMMS_SPI_UART.c ****     *  txDataByte: the data to be transmitted.
 234:.\Generated_Source\PSoC4/UARTCOMMS_SPI_UART.c ****     *
ARM GAS  C:\Users\Tim\AppData\Local\Temp\cccxbV1a.s 			page 7


 235:.\Generated_Source\PSoC4/UARTCOMMS_SPI_UART.c ****     * Return:
 236:.\Generated_Source\PSoC4/UARTCOMMS_SPI_UART.c ****     *  None
 237:.\Generated_Source\PSoC4/UARTCOMMS_SPI_UART.c ****     *
 238:.\Generated_Source\PSoC4/UARTCOMMS_SPI_UART.c ****     *******************************************************************************/
 239:.\Generated_Source\PSoC4/UARTCOMMS_SPI_UART.c ****     void UARTCOMMS_SpiUartWriteTxData(uint32 txData)
 240:.\Generated_Source\PSoC4/UARTCOMMS_SPI_UART.c ****     {
 109              		.loc 1 240 0
 110              		.cfi_startproc
 111              	.LVL3:
 241:.\Generated_Source\PSoC4/UARTCOMMS_SPI_UART.c ****     #if (UARTCOMMS_INTERNAL_TX_SW_BUFFER_CONST)
 242:.\Generated_Source\PSoC4/UARTCOMMS_SPI_UART.c ****         uint32 locHead;
 243:.\Generated_Source\PSoC4/UARTCOMMS_SPI_UART.c ****     #endif /* (UARTCOMMS_INTERNAL_TX_SW_BUFFER_CONST) */
 244:.\Generated_Source\PSoC4/UARTCOMMS_SPI_UART.c **** 
 245:.\Generated_Source\PSoC4/UARTCOMMS_SPI_UART.c ****         #if (UARTCOMMS_CHECK_TX_SW_BUFFER)
 246:.\Generated_Source\PSoC4/UARTCOMMS_SPI_UART.c ****         {
 247:.\Generated_Source\PSoC4/UARTCOMMS_SPI_UART.c ****             /* Put data directly into the TX FIFO */
 248:.\Generated_Source\PSoC4/UARTCOMMS_SPI_UART.c ****             if ((UARTCOMMS_txBufferHead == UARTCOMMS_txBufferTail) &&
 112              		.loc 1 248 0
 113 0000 144B     		ldr	r3, .L16
 114 0002 1A68     		ldr	r2, [r3]
 115 0004 144B     		ldr	r3, .L16+4
 116 0006 1B68     		ldr	r3, [r3]
 117 0008 9A42     		cmp	r2, r3
 118 000a 08D1     		bne	.L11
 249:.\Generated_Source\PSoC4/UARTCOMMS_SPI_UART.c ****                 (UARTCOMMS_SPI_UART_FIFO_SIZE != UARTCOMMS_GET_TX_FIFO_ENTRIES))
 119              		.loc 1 249 0 discriminator 1
 120 000c 134B     		ldr	r3, .L16+8
 121 000e 1B68     		ldr	r3, [r3]
 122 0010 1F22     		mov	r2, #31
 123 0012 1340     		and	r3, r2
 248:.\Generated_Source\PSoC4/UARTCOMMS_SPI_UART.c ****                 (UARTCOMMS_SPI_UART_FIFO_SIZE != UARTCOMMS_GET_TX_FIFO_ENTRIES))
 124              		.loc 1 248 0 discriminator 1
 125 0014 082B     		cmp	r3, #8
 126 0016 02D0     		beq	.L11
 250:.\Generated_Source\PSoC4/UARTCOMMS_SPI_UART.c ****             {
 251:.\Generated_Source\PSoC4/UARTCOMMS_SPI_UART.c ****                 /* TX software buffer is empty: put data directly in TX FIFO */
 252:.\Generated_Source\PSoC4/UARTCOMMS_SPI_UART.c ****                 UARTCOMMS_TX_FIFO_WR_REG = txData;
 127              		.loc 1 252 0
 128 0018 114B     		ldr	r3, .L16+12
 129 001a 1860     		str	r0, [r3]
 130 001c 19E0     		b	.L10
 131              	.L11:
 253:.\Generated_Source\PSoC4/UARTCOMMS_SPI_UART.c ****             }
 254:.\Generated_Source\PSoC4/UARTCOMMS_SPI_UART.c ****             /* Put data into TX software buffer */
 255:.\Generated_Source\PSoC4/UARTCOMMS_SPI_UART.c ****             else
 256:.\Generated_Source\PSoC4/UARTCOMMS_SPI_UART.c ****             {
 257:.\Generated_Source\PSoC4/UARTCOMMS_SPI_UART.c ****                 /* Head index to put data */
 258:.\Generated_Source\PSoC4/UARTCOMMS_SPI_UART.c ****                 locHead = (UARTCOMMS_txBufferHead + 1u);
 132              		.loc 1 258 0
 133 001e 0D4B     		ldr	r3, .L16
 134 0020 1B68     		ldr	r3, [r3]
 135              	.LVL4:
 259:.\Generated_Source\PSoC4/UARTCOMMS_SPI_UART.c **** 
 260:.\Generated_Source\PSoC4/UARTCOMMS_SPI_UART.c ****                 /* Adjust TX software buffer index */
 261:.\Generated_Source\PSoC4/UARTCOMMS_SPI_UART.c ****                 if (UARTCOMMS_TX_BUFFER_SIZE == locHead)
 136              		.loc 1 261 0
 137 0022 5A1C     		add	r2, r3, #1
ARM GAS  C:\Users\Tim\AppData\Local\Temp\cccxbV1a.s 			page 8


 138              	.LVL5:
 139 0024 FF2B     		cmp	r3, #255
 140 0026 00D1     		bne	.L14
 262:.\Generated_Source\PSoC4/UARTCOMMS_SPI_UART.c ****                 {
 263:.\Generated_Source\PSoC4/UARTCOMMS_SPI_UART.c ****                     locHead = 0u;
 141              		.loc 1 263 0
 142 0028 0022     		mov	r2, #0
 143              	.LVL6:
 144              	.L14:
 264:.\Generated_Source\PSoC4/UARTCOMMS_SPI_UART.c ****                 }
 265:.\Generated_Source\PSoC4/UARTCOMMS_SPI_UART.c **** 
 266:.\Generated_Source\PSoC4/UARTCOMMS_SPI_UART.c ****                 /* Wait for space in TX software buffer */
 267:.\Generated_Source\PSoC4/UARTCOMMS_SPI_UART.c ****                 while (locHead == UARTCOMMS_txBufferTail)
 145              		.loc 1 267 0 discriminator 1
 146 002a 0B4B     		ldr	r3, .L16+4
 147 002c 1B68     		ldr	r3, [r3]
 148 002e 9A42     		cmp	r2, r3
 149 0030 FBD0     		beq	.L14
 268:.\Generated_Source\PSoC4/UARTCOMMS_SPI_UART.c ****                 {
 269:.\Generated_Source\PSoC4/UARTCOMMS_SPI_UART.c ****                 }
 270:.\Generated_Source\PSoC4/UARTCOMMS_SPI_UART.c **** 
 271:.\Generated_Source\PSoC4/UARTCOMMS_SPI_UART.c ****                 /* TX software buffer has at least one room */
 272:.\Generated_Source\PSoC4/UARTCOMMS_SPI_UART.c **** 
 273:.\Generated_Source\PSoC4/UARTCOMMS_SPI_UART.c ****                 /* Clear old status of INTR_TX_NOT_FULL. It sets at the end of transfer when TX FIF
 274:.\Generated_Source\PSoC4/UARTCOMMS_SPI_UART.c ****                 UARTCOMMS_ClearTxInterruptSource(UARTCOMMS_INTR_TX_NOT_FULL);
 150              		.loc 1 274 0
 151 0032 0223     		mov	r3, #2
 152 0034 0B49     		ldr	r1, .L16+16
 153 0036 0B60     		str	r3, [r1]
 275:.\Generated_Source\PSoC4/UARTCOMMS_SPI_UART.c **** 
 276:.\Generated_Source\PSoC4/UARTCOMMS_SPI_UART.c ****                 UARTCOMMS_PutWordInTxBuffer(locHead, txData);
 154              		.loc 1 276 0
 155 0038 C0B2     		uxtb	r0, r0
 156              	.LVL7:
 157 003a 0B49     		ldr	r1, .L16+20
 158 003c 8854     		strb	r0, [r1, r2]
 277:.\Generated_Source\PSoC4/UARTCOMMS_SPI_UART.c **** 
 278:.\Generated_Source\PSoC4/UARTCOMMS_SPI_UART.c ****                 UARTCOMMS_txBufferHead = locHead;
 159              		.loc 1 278 0
 160 003e 0549     		ldr	r1, .L16
 161 0040 0A60     		str	r2, [r1]
 279:.\Generated_Source\PSoC4/UARTCOMMS_SPI_UART.c **** 
 280:.\Generated_Source\PSoC4/UARTCOMMS_SPI_UART.c ****                 /* Check if TX Not Full is disabled in interrupt */
 281:.\Generated_Source\PSoC4/UARTCOMMS_SPI_UART.c ****                 if (0u == (UARTCOMMS_INTR_TX_MASK_REG & UARTCOMMS_INTR_TX_NOT_FULL))
 162              		.loc 1 281 0
 163 0042 0A4A     		ldr	r2, .L16+24
 164              	.LVL8:
 165 0044 1268     		ldr	r2, [r2]
 166 0046 1342     		tst	r3, r2
 167 0048 03D1     		bne	.L10
 282:.\Generated_Source\PSoC4/UARTCOMMS_SPI_UART.c ****                 {
 283:.\Generated_Source\PSoC4/UARTCOMMS_SPI_UART.c ****                     /* Enable TX Not Full interrupt source to transmit from software buffer */
 284:.\Generated_Source\PSoC4/UARTCOMMS_SPI_UART.c ****                     UARTCOMMS_INTR_TX_MASK_REG |= (uint32) UARTCOMMS_INTR_TX_NOT_FULL;
 168              		.loc 1 284 0
 169 004a 084A     		ldr	r2, .L16+24
 170 004c 1168     		ldr	r1, [r2]
 171 004e 0B43     		orr	r3, r1
ARM GAS  C:\Users\Tim\AppData\Local\Temp\cccxbV1a.s 			page 9


 172 0050 1360     		str	r3, [r2]
 173              	.LVL9:
 174              	.L10:
 285:.\Generated_Source\PSoC4/UARTCOMMS_SPI_UART.c ****                 }
 286:.\Generated_Source\PSoC4/UARTCOMMS_SPI_UART.c ****             }
 287:.\Generated_Source\PSoC4/UARTCOMMS_SPI_UART.c ****         }
 288:.\Generated_Source\PSoC4/UARTCOMMS_SPI_UART.c ****         #else
 289:.\Generated_Source\PSoC4/UARTCOMMS_SPI_UART.c ****         {
 290:.\Generated_Source\PSoC4/UARTCOMMS_SPI_UART.c ****             /* Wait until TX FIFO has space to put data element */
 291:.\Generated_Source\PSoC4/UARTCOMMS_SPI_UART.c ****             while (UARTCOMMS_SPI_UART_FIFO_SIZE == UARTCOMMS_GET_TX_FIFO_ENTRIES)
 292:.\Generated_Source\PSoC4/UARTCOMMS_SPI_UART.c ****             {
 293:.\Generated_Source\PSoC4/UARTCOMMS_SPI_UART.c ****             }
 294:.\Generated_Source\PSoC4/UARTCOMMS_SPI_UART.c **** 
 295:.\Generated_Source\PSoC4/UARTCOMMS_SPI_UART.c ****             UARTCOMMS_TX_FIFO_WR_REG = txData;
 296:.\Generated_Source\PSoC4/UARTCOMMS_SPI_UART.c ****         }
 297:.\Generated_Source\PSoC4/UARTCOMMS_SPI_UART.c ****         #endif
 298:.\Generated_Source\PSoC4/UARTCOMMS_SPI_UART.c ****     }
 175              		.loc 1 298 0
 176              		@ sp needed
 177 0052 7047     		bx	lr
 178              	.L17:
 179              		.align	2
 180              	.L16:
 181 0054 00000000 		.word	UARTCOMMS_txBufferHead
 182 0058 00000000 		.word	UARTCOMMS_txBufferTail
 183 005c 08022440 		.word	1076101640
 184 0060 40022440 		.word	1076101696
 185 0064 800F2440 		.word	1076105088
 186 0068 00000000 		.word	UARTCOMMS_txBufferInternal
 187 006c 880F2440 		.word	1076105096
 188              		.cfi_endproc
 189              	.LFE4:
 190              		.size	UARTCOMMS_SpiUartWriteTxData, .-UARTCOMMS_SpiUartWriteTxData
 191              		.section	.text.UARTCOMMS_SpiUartPutArray,"ax",%progbits
 192              		.align	2
 193              		.global	UARTCOMMS_SpiUartPutArray
 194              		.code	16
 195              		.thumb_func
 196              		.type	UARTCOMMS_SpiUartPutArray, %function
 197              	UARTCOMMS_SpiUartPutArray:
 198              	.LFB5:
 299:.\Generated_Source\PSoC4/UARTCOMMS_SPI_UART.c **** 
 300:.\Generated_Source\PSoC4/UARTCOMMS_SPI_UART.c **** 
 301:.\Generated_Source\PSoC4/UARTCOMMS_SPI_UART.c ****     /*******************************************************************************
 302:.\Generated_Source\PSoC4/UARTCOMMS_SPI_UART.c ****     * Function Name: UARTCOMMS_SpiUartPutArray
 303:.\Generated_Source\PSoC4/UARTCOMMS_SPI_UART.c ****     ********************************************************************************
 304:.\Generated_Source\PSoC4/UARTCOMMS_SPI_UART.c ****     *
 305:.\Generated_Source\PSoC4/UARTCOMMS_SPI_UART.c ****     * Summary:
 306:.\Generated_Source\PSoC4/UARTCOMMS_SPI_UART.c ****     *  Places an array of data into the transmit buffer to be sent.
 307:.\Generated_Source\PSoC4/UARTCOMMS_SPI_UART.c ****     *  This function is blocking and waits until there is a space available to put
 308:.\Generated_Source\PSoC4/UARTCOMMS_SPI_UART.c ****     *  all the requested data in the transmit buffer. The array size can be greater
 309:.\Generated_Source\PSoC4/UARTCOMMS_SPI_UART.c ****     *  than transmit buffer size.
 310:.\Generated_Source\PSoC4/UARTCOMMS_SPI_UART.c ****     *
 311:.\Generated_Source\PSoC4/UARTCOMMS_SPI_UART.c ****     * Parameters:
 312:.\Generated_Source\PSoC4/UARTCOMMS_SPI_UART.c ****     *  wrBuf:  pointer to an array with data to be placed in transmit buffer.
 313:.\Generated_Source\PSoC4/UARTCOMMS_SPI_UART.c ****     *  count:  number of data elements to be placed in the transmit buffer.
 314:.\Generated_Source\PSoC4/UARTCOMMS_SPI_UART.c ****     *
ARM GAS  C:\Users\Tim\AppData\Local\Temp\cccxbV1a.s 			page 10


 315:.\Generated_Source\PSoC4/UARTCOMMS_SPI_UART.c ****     * Return:
 316:.\Generated_Source\PSoC4/UARTCOMMS_SPI_UART.c ****     *  None
 317:.\Generated_Source\PSoC4/UARTCOMMS_SPI_UART.c ****     *
 318:.\Generated_Source\PSoC4/UARTCOMMS_SPI_UART.c ****     *******************************************************************************/
 319:.\Generated_Source\PSoC4/UARTCOMMS_SPI_UART.c ****     void UARTCOMMS_SpiUartPutArray(const uint8 wrBuf[], uint32 count)
 320:.\Generated_Source\PSoC4/UARTCOMMS_SPI_UART.c ****     {
 199              		.loc 1 320 0
 200              		.cfi_startproc
 201              	.LVL10:
 202 0000 70B5     		push	{r4, r5, r6, lr}
 203              		.cfi_def_cfa_offset 16
 204              		.cfi_offset 4, -16
 205              		.cfi_offset 5, -12
 206              		.cfi_offset 6, -8
 207              		.cfi_offset 14, -4
 208 0002 061C     		mov	r6, r0
 209 0004 0D1C     		mov	r5, r1
 210              	.LVL11:
 321:.\Generated_Source\PSoC4/UARTCOMMS_SPI_UART.c ****         uint32 i;
 322:.\Generated_Source\PSoC4/UARTCOMMS_SPI_UART.c **** 
 323:.\Generated_Source\PSoC4/UARTCOMMS_SPI_UART.c ****         for (i=0u; i < count; i++)
 211              		.loc 1 323 0
 212 0006 0024     		mov	r4, #0
 213 0008 03E0     		b	.L19
 214              	.LVL12:
 215              	.L20:
 324:.\Generated_Source\PSoC4/UARTCOMMS_SPI_UART.c ****         {
 325:.\Generated_Source\PSoC4/UARTCOMMS_SPI_UART.c ****             UARTCOMMS_SpiUartWriteTxData((uint32) wrBuf[i]);
 216              		.loc 1 325 0 discriminator 3
 217 000a 305D     		ldrb	r0, [r6, r4]
 218 000c FFF7FEFF 		bl	UARTCOMMS_SpiUartWriteTxData
 219              	.LVL13:
 323:.\Generated_Source\PSoC4/UARTCOMMS_SPI_UART.c ****         {
 220              		.loc 1 323 0 discriminator 3
 221 0010 0134     		add	r4, r4, #1
 222              	.LVL14:
 223              	.L19:
 323:.\Generated_Source\PSoC4/UARTCOMMS_SPI_UART.c ****         {
 224              		.loc 1 323 0 is_stmt 0 discriminator 1
 225 0012 AC42     		cmp	r4, r5
 226 0014 F9D3     		bcc	.L20
 326:.\Generated_Source\PSoC4/UARTCOMMS_SPI_UART.c ****         }
 327:.\Generated_Source\PSoC4/UARTCOMMS_SPI_UART.c ****     }
 227              		.loc 1 327 0 is_stmt 1
 228              		@ sp needed
 229              	.LVL15:
 230              	.LVL16:
 231              	.LVL17:
 232 0016 70BD     		pop	{r4, r5, r6, pc}
 233              		.cfi_endproc
 234              	.LFE5:
 235              		.size	UARTCOMMS_SpiUartPutArray, .-UARTCOMMS_SpiUartPutArray
 236              		.section	.text.UARTCOMMS_SpiUartGetTxBufferSize,"ax",%progbits
 237              		.align	2
 238              		.global	UARTCOMMS_SpiUartGetTxBufferSize
 239              		.code	16
 240              		.thumb_func
ARM GAS  C:\Users\Tim\AppData\Local\Temp\cccxbV1a.s 			page 11


 241              		.type	UARTCOMMS_SpiUartGetTxBufferSize, %function
 242              	UARTCOMMS_SpiUartGetTxBufferSize:
 243              	.LFB6:
 328:.\Generated_Source\PSoC4/UARTCOMMS_SPI_UART.c **** 
 329:.\Generated_Source\PSoC4/UARTCOMMS_SPI_UART.c **** 
 330:.\Generated_Source\PSoC4/UARTCOMMS_SPI_UART.c ****     /*******************************************************************************
 331:.\Generated_Source\PSoC4/UARTCOMMS_SPI_UART.c ****     * Function Name: UARTCOMMS_SpiUartGetTxBufferSize
 332:.\Generated_Source\PSoC4/UARTCOMMS_SPI_UART.c ****     ********************************************************************************
 333:.\Generated_Source\PSoC4/UARTCOMMS_SPI_UART.c ****     *
 334:.\Generated_Source\PSoC4/UARTCOMMS_SPI_UART.c ****     * Summary:
 335:.\Generated_Source\PSoC4/UARTCOMMS_SPI_UART.c ****     * Returns the number of elements currently in the transmit buffer.
 336:.\Generated_Source\PSoC4/UARTCOMMS_SPI_UART.c ****     *  - TX software buffer is disabled: returns the number of used entries in
 337:.\Generated_Source\PSoC4/UARTCOMMS_SPI_UART.c ****     *    TX FIFO.
 338:.\Generated_Source\PSoC4/UARTCOMMS_SPI_UART.c ****     *  - TX software buffer is enabled: returns the number of elements currently
 339:.\Generated_Source\PSoC4/UARTCOMMS_SPI_UART.c ****     *    used in the transmit buffer. This number does not include used entries in
 340:.\Generated_Source\PSoC4/UARTCOMMS_SPI_UART.c ****     *    the TX FIFO. The transmit buffer size is zero until the TX FIFO is
 341:.\Generated_Source\PSoC4/UARTCOMMS_SPI_UART.c ****     *    not full.
 342:.\Generated_Source\PSoC4/UARTCOMMS_SPI_UART.c ****     *
 343:.\Generated_Source\PSoC4/UARTCOMMS_SPI_UART.c ****     * Parameters:
 344:.\Generated_Source\PSoC4/UARTCOMMS_SPI_UART.c ****     *  None
 345:.\Generated_Source\PSoC4/UARTCOMMS_SPI_UART.c ****     *
 346:.\Generated_Source\PSoC4/UARTCOMMS_SPI_UART.c ****     * Return:
 347:.\Generated_Source\PSoC4/UARTCOMMS_SPI_UART.c ****     *  Number of data elements ready to transmit.
 348:.\Generated_Source\PSoC4/UARTCOMMS_SPI_UART.c ****     *
 349:.\Generated_Source\PSoC4/UARTCOMMS_SPI_UART.c ****     *******************************************************************************/
 350:.\Generated_Source\PSoC4/UARTCOMMS_SPI_UART.c ****     uint32 UARTCOMMS_SpiUartGetTxBufferSize(void)
 351:.\Generated_Source\PSoC4/UARTCOMMS_SPI_UART.c ****     {
 244              		.loc 1 351 0
 245              		.cfi_startproc
 352:.\Generated_Source\PSoC4/UARTCOMMS_SPI_UART.c ****         uint32 size;
 353:.\Generated_Source\PSoC4/UARTCOMMS_SPI_UART.c ****     #if (UARTCOMMS_INTERNAL_TX_SW_BUFFER_CONST)
 354:.\Generated_Source\PSoC4/UARTCOMMS_SPI_UART.c ****         uint32 locTail;
 355:.\Generated_Source\PSoC4/UARTCOMMS_SPI_UART.c ****     #endif /* (UARTCOMMS_INTERNAL_TX_SW_BUFFER_CONST) */
 356:.\Generated_Source\PSoC4/UARTCOMMS_SPI_UART.c **** 
 357:.\Generated_Source\PSoC4/UARTCOMMS_SPI_UART.c ****         #if (UARTCOMMS_CHECK_TX_SW_BUFFER)
 358:.\Generated_Source\PSoC4/UARTCOMMS_SPI_UART.c ****         {
 359:.\Generated_Source\PSoC4/UARTCOMMS_SPI_UART.c ****             /* Get current Tail index */
 360:.\Generated_Source\PSoC4/UARTCOMMS_SPI_UART.c ****             locTail = UARTCOMMS_txBufferTail;
 246              		.loc 1 360 0
 247 0000 074B     		ldr	r3, .L24
 248 0002 1868     		ldr	r0, [r3]
 249              	.LVL18:
 361:.\Generated_Source\PSoC4/UARTCOMMS_SPI_UART.c **** 
 362:.\Generated_Source\PSoC4/UARTCOMMS_SPI_UART.c ****             if (UARTCOMMS_txBufferHead >= locTail)
 250              		.loc 1 362 0
 251 0004 074B     		ldr	r3, .L24+4
 252 0006 1B68     		ldr	r3, [r3]
 253 0008 8342     		cmp	r3, r0
 254 000a 03D3     		bcc	.L22
 363:.\Generated_Source\PSoC4/UARTCOMMS_SPI_UART.c ****             {
 364:.\Generated_Source\PSoC4/UARTCOMMS_SPI_UART.c ****                 size = (UARTCOMMS_txBufferHead - locTail);
 255              		.loc 1 364 0
 256 000c 054B     		ldr	r3, .L24+4
 257 000e 1B68     		ldr	r3, [r3]
 258 0010 181A     		sub	r0, r3, r0
 259              	.LVL19:
 260 0012 04E0     		b	.L23
ARM GAS  C:\Users\Tim\AppData\Local\Temp\cccxbV1a.s 			page 12


 261              	.LVL20:
 262              	.L22:
 365:.\Generated_Source\PSoC4/UARTCOMMS_SPI_UART.c ****             }
 366:.\Generated_Source\PSoC4/UARTCOMMS_SPI_UART.c ****             else
 367:.\Generated_Source\PSoC4/UARTCOMMS_SPI_UART.c ****             {
 368:.\Generated_Source\PSoC4/UARTCOMMS_SPI_UART.c ****                 size = (UARTCOMMS_txBufferHead + (UARTCOMMS_TX_BUFFER_SIZE - locTail));
 263              		.loc 1 368 0
 264 0014 034B     		ldr	r3, .L24+4
 265 0016 1B68     		ldr	r3, [r3]
 266 0018 181A     		sub	r0, r3, r0
 267              	.LVL21:
 268 001a 0130     		add	r0, r0, #1
 269 001c FF30     		add	r0, r0, #255
 270              	.LVL22:
 271              	.L23:
 369:.\Generated_Source\PSoC4/UARTCOMMS_SPI_UART.c ****             }
 370:.\Generated_Source\PSoC4/UARTCOMMS_SPI_UART.c ****         }
 371:.\Generated_Source\PSoC4/UARTCOMMS_SPI_UART.c ****         #else
 372:.\Generated_Source\PSoC4/UARTCOMMS_SPI_UART.c ****         {
 373:.\Generated_Source\PSoC4/UARTCOMMS_SPI_UART.c ****             size = UARTCOMMS_GET_TX_FIFO_ENTRIES;
 374:.\Generated_Source\PSoC4/UARTCOMMS_SPI_UART.c ****         }
 375:.\Generated_Source\PSoC4/UARTCOMMS_SPI_UART.c ****         #endif
 376:.\Generated_Source\PSoC4/UARTCOMMS_SPI_UART.c **** 
 377:.\Generated_Source\PSoC4/UARTCOMMS_SPI_UART.c ****         return (size);
 378:.\Generated_Source\PSoC4/UARTCOMMS_SPI_UART.c ****     }
 272              		.loc 1 378 0
 273              		@ sp needed
 274 001e 7047     		bx	lr
 275              	.L25:
 276              		.align	2
 277              	.L24:
 278 0020 00000000 		.word	UARTCOMMS_txBufferTail
 279 0024 00000000 		.word	UARTCOMMS_txBufferHead
 280              		.cfi_endproc
 281              	.LFE6:
 282              		.size	UARTCOMMS_SpiUartGetTxBufferSize, .-UARTCOMMS_SpiUartGetTxBufferSize
 283              		.section	.text.UARTCOMMS_SpiUartClearTxBuffer,"ax",%progbits
 284              		.align	2
 285              		.global	UARTCOMMS_SpiUartClearTxBuffer
 286              		.code	16
 287              		.thumb_func
 288              		.type	UARTCOMMS_SpiUartClearTxBuffer, %function
 289              	UARTCOMMS_SpiUartClearTxBuffer:
 290              	.LFB7:
 379:.\Generated_Source\PSoC4/UARTCOMMS_SPI_UART.c **** 
 380:.\Generated_Source\PSoC4/UARTCOMMS_SPI_UART.c **** 
 381:.\Generated_Source\PSoC4/UARTCOMMS_SPI_UART.c ****     /*******************************************************************************
 382:.\Generated_Source\PSoC4/UARTCOMMS_SPI_UART.c ****     * Function Name: UARTCOMMS_SpiUartClearTxBuffer
 383:.\Generated_Source\PSoC4/UARTCOMMS_SPI_UART.c ****     ********************************************************************************
 384:.\Generated_Source\PSoC4/UARTCOMMS_SPI_UART.c ****     *
 385:.\Generated_Source\PSoC4/UARTCOMMS_SPI_UART.c ****     * Summary:
 386:.\Generated_Source\PSoC4/UARTCOMMS_SPI_UART.c ****     *  Clears the transmit buffer and TX FIFO.
 387:.\Generated_Source\PSoC4/UARTCOMMS_SPI_UART.c ****     *
 388:.\Generated_Source\PSoC4/UARTCOMMS_SPI_UART.c ****     * Parameters:
 389:.\Generated_Source\PSoC4/UARTCOMMS_SPI_UART.c ****     *  None
 390:.\Generated_Source\PSoC4/UARTCOMMS_SPI_UART.c ****     *
 391:.\Generated_Source\PSoC4/UARTCOMMS_SPI_UART.c ****     * Return:
ARM GAS  C:\Users\Tim\AppData\Local\Temp\cccxbV1a.s 			page 13


 392:.\Generated_Source\PSoC4/UARTCOMMS_SPI_UART.c ****     *  None
 393:.\Generated_Source\PSoC4/UARTCOMMS_SPI_UART.c ****     *
 394:.\Generated_Source\PSoC4/UARTCOMMS_SPI_UART.c ****     *******************************************************************************/
 395:.\Generated_Source\PSoC4/UARTCOMMS_SPI_UART.c ****     void UARTCOMMS_SpiUartClearTxBuffer(void)
 396:.\Generated_Source\PSoC4/UARTCOMMS_SPI_UART.c ****     {
 291              		.loc 1 396 0
 292              		.cfi_startproc
 293 0000 08B5     		push	{r3, lr}
 294              		.cfi_def_cfa_offset 8
 295              		.cfi_offset 3, -8
 296              		.cfi_offset 14, -4
 397:.\Generated_Source\PSoC4/UARTCOMMS_SPI_UART.c ****         #if (UARTCOMMS_CHECK_TX_SW_BUFFER)
 398:.\Generated_Source\PSoC4/UARTCOMMS_SPI_UART.c ****         {
 399:.\Generated_Source\PSoC4/UARTCOMMS_SPI_UART.c ****             /* Lock from component interruption */
 400:.\Generated_Source\PSoC4/UARTCOMMS_SPI_UART.c ****             UARTCOMMS_DisableInt();
 297              		.loc 1 400 0
 298 0002 0820     		mov	r0, #8
 299 0004 FFF7FEFF 		bl	CyIntDisable
 300              	.LVL23:
 401:.\Generated_Source\PSoC4/UARTCOMMS_SPI_UART.c **** 
 402:.\Generated_Source\PSoC4/UARTCOMMS_SPI_UART.c ****             /* Flush TX software buffer */
 403:.\Generated_Source\PSoC4/UARTCOMMS_SPI_UART.c ****             UARTCOMMS_txBufferHead = UARTCOMMS_txBufferTail;
 301              		.loc 1 403 0
 302 0008 0C4B     		ldr	r3, .L27
 303 000a 1A68     		ldr	r2, [r3]
 304 000c 0C4B     		ldr	r3, .L27+4
 305 000e 1A60     		str	r2, [r3]
 404:.\Generated_Source\PSoC4/UARTCOMMS_SPI_UART.c **** 
 405:.\Generated_Source\PSoC4/UARTCOMMS_SPI_UART.c ****             UARTCOMMS_INTR_TX_MASK_REG &= (uint32) ~UARTCOMMS_INTR_TX_NOT_FULL;
 306              		.loc 1 405 0
 307 0010 0C4A     		ldr	r2, .L27+8
 308 0012 1368     		ldr	r3, [r2]
 309 0014 0221     		mov	r1, #2
 310 0016 8B43     		bic	r3, r1
 311 0018 1360     		str	r3, [r2]
 406:.\Generated_Source\PSoC4/UARTCOMMS_SPI_UART.c ****             UARTCOMMS_CLEAR_TX_FIFO;
 312              		.loc 1 406 0
 313 001a 0B4B     		ldr	r3, .L27+12
 314 001c 1A68     		ldr	r2, [r3]
 315 001e 8021     		mov	r1, #128
 316 0020 4902     		lsl	r1, r1, #9
 317 0022 0A43     		orr	r2, r1
 318 0024 1A60     		str	r2, [r3]
 319 0026 1968     		ldr	r1, [r3]
 320 0028 084A     		ldr	r2, .L27+16
 321 002a 0A40     		and	r2, r1
 322 002c 1A60     		str	r2, [r3]
 407:.\Generated_Source\PSoC4/UARTCOMMS_SPI_UART.c ****             UARTCOMMS_ClearTxInterruptSource(UARTCOMMS_INTR_TX_ALL);
 323              		.loc 1 407 0
 324 002e 084A     		ldr	r2, .L27+20
 325 0030 084B     		ldr	r3, .L27+24
 326 0032 1A60     		str	r2, [r3]
 408:.\Generated_Source\PSoC4/UARTCOMMS_SPI_UART.c **** 
 409:.\Generated_Source\PSoC4/UARTCOMMS_SPI_UART.c ****             /* Release lock */
 410:.\Generated_Source\PSoC4/UARTCOMMS_SPI_UART.c ****             UARTCOMMS_EnableInt();
 327              		.loc 1 410 0
 328 0034 0820     		mov	r0, #8
ARM GAS  C:\Users\Tim\AppData\Local\Temp\cccxbV1a.s 			page 14


 329 0036 FFF7FEFF 		bl	CyIntEnable
 330              	.LVL24:
 411:.\Generated_Source\PSoC4/UARTCOMMS_SPI_UART.c ****         }
 412:.\Generated_Source\PSoC4/UARTCOMMS_SPI_UART.c ****         #else
 413:.\Generated_Source\PSoC4/UARTCOMMS_SPI_UART.c ****         {
 414:.\Generated_Source\PSoC4/UARTCOMMS_SPI_UART.c ****             UARTCOMMS_CLEAR_TX_FIFO;
 415:.\Generated_Source\PSoC4/UARTCOMMS_SPI_UART.c ****         }
 416:.\Generated_Source\PSoC4/UARTCOMMS_SPI_UART.c ****         #endif
 417:.\Generated_Source\PSoC4/UARTCOMMS_SPI_UART.c ****     }
 331              		.loc 1 417 0
 332              		@ sp needed
 333 003a 08BD     		pop	{r3, pc}
 334              	.L28:
 335              		.align	2
 336              	.L27:
 337 003c 00000000 		.word	UARTCOMMS_txBufferTail
 338 0040 00000000 		.word	UARTCOMMS_txBufferHead
 339 0044 880F2440 		.word	1076105096
 340 0048 04022440 		.word	1076101636
 341 004c FFFFFEFF 		.word	-65537
 342 0050 F3070000 		.word	2035
 343 0054 800F2440 		.word	1076105088
 344              		.cfi_endproc
 345              	.LFE7:
 346              		.size	UARTCOMMS_SpiUartClearTxBuffer, .-UARTCOMMS_SpiUartClearTxBuffer
 347              		.section	.text.UARTCOMMS_SpiUartDisableIntRx,"ax",%progbits
 348              		.align	2
 349              		.global	UARTCOMMS_SpiUartDisableIntRx
 350              		.code	16
 351              		.thumb_func
 352              		.type	UARTCOMMS_SpiUartDisableIntRx, %function
 353              	UARTCOMMS_SpiUartDisableIntRx:
 354              	.LFB8:
 418:.\Generated_Source\PSoC4/UARTCOMMS_SPI_UART.c **** 
 419:.\Generated_Source\PSoC4/UARTCOMMS_SPI_UART.c **** #endif /* (UARTCOMMS_TX_DIRECTION) */
 420:.\Generated_Source\PSoC4/UARTCOMMS_SPI_UART.c **** 
 421:.\Generated_Source\PSoC4/UARTCOMMS_SPI_UART.c **** 
 422:.\Generated_Source\PSoC4/UARTCOMMS_SPI_UART.c **** /*******************************************************************************
 423:.\Generated_Source\PSoC4/UARTCOMMS_SPI_UART.c **** * Function Name: UARTCOMMS_SpiUartDisableIntRx
 424:.\Generated_Source\PSoC4/UARTCOMMS_SPI_UART.c **** ********************************************************************************
 425:.\Generated_Source\PSoC4/UARTCOMMS_SPI_UART.c **** *
 426:.\Generated_Source\PSoC4/UARTCOMMS_SPI_UART.c **** * Summary:
 427:.\Generated_Source\PSoC4/UARTCOMMS_SPI_UART.c **** *  Disables the RX interrupt sources.
 428:.\Generated_Source\PSoC4/UARTCOMMS_SPI_UART.c **** *
 429:.\Generated_Source\PSoC4/UARTCOMMS_SPI_UART.c **** * Parameters:
 430:.\Generated_Source\PSoC4/UARTCOMMS_SPI_UART.c **** *  None
 431:.\Generated_Source\PSoC4/UARTCOMMS_SPI_UART.c **** *
 432:.\Generated_Source\PSoC4/UARTCOMMS_SPI_UART.c **** * Return:
 433:.\Generated_Source\PSoC4/UARTCOMMS_SPI_UART.c **** *  Returns the RX interrupt sources enabled before the function call.
 434:.\Generated_Source\PSoC4/UARTCOMMS_SPI_UART.c **** *
 435:.\Generated_Source\PSoC4/UARTCOMMS_SPI_UART.c **** *******************************************************************************/
 436:.\Generated_Source\PSoC4/UARTCOMMS_SPI_UART.c **** uint32 UARTCOMMS_SpiUartDisableIntRx(void)
 437:.\Generated_Source\PSoC4/UARTCOMMS_SPI_UART.c **** {
 355              		.loc 1 437 0
 356              		.cfi_startproc
 438:.\Generated_Source\PSoC4/UARTCOMMS_SPI_UART.c ****     uint32 intSource;
 439:.\Generated_Source\PSoC4/UARTCOMMS_SPI_UART.c **** 
ARM GAS  C:\Users\Tim\AppData\Local\Temp\cccxbV1a.s 			page 15


 440:.\Generated_Source\PSoC4/UARTCOMMS_SPI_UART.c ****     intSource = UARTCOMMS_GetRxInterruptMode();
 357              		.loc 1 440 0
 358 0000 024B     		ldr	r3, .L30
 359 0002 1868     		ldr	r0, [r3]
 360              	.LVL25:
 441:.\Generated_Source\PSoC4/UARTCOMMS_SPI_UART.c **** 
 442:.\Generated_Source\PSoC4/UARTCOMMS_SPI_UART.c ****     UARTCOMMS_SetRxInterruptMode(UARTCOMMS_NO_INTR_SOURCES);
 361              		.loc 1 442 0
 362 0004 0022     		mov	r2, #0
 363 0006 1A60     		str	r2, [r3]
 443:.\Generated_Source\PSoC4/UARTCOMMS_SPI_UART.c **** 
 444:.\Generated_Source\PSoC4/UARTCOMMS_SPI_UART.c ****     return (intSource);
 445:.\Generated_Source\PSoC4/UARTCOMMS_SPI_UART.c **** }
 364              		.loc 1 445 0
 365              		@ sp needed
 366 0008 7047     		bx	lr
 367              	.L31:
 368 000a C046     		.align	2
 369              	.L30:
 370 000c C80F2440 		.word	1076105160
 371              		.cfi_endproc
 372              	.LFE8:
 373              		.size	UARTCOMMS_SpiUartDisableIntRx, .-UARTCOMMS_SpiUartDisableIntRx
 374              		.section	.text.UARTCOMMS_SpiUartDisableIntTx,"ax",%progbits
 375              		.align	2
 376              		.global	UARTCOMMS_SpiUartDisableIntTx
 377              		.code	16
 378              		.thumb_func
 379              		.type	UARTCOMMS_SpiUartDisableIntTx, %function
 380              	UARTCOMMS_SpiUartDisableIntTx:
 381              	.LFB9:
 446:.\Generated_Source\PSoC4/UARTCOMMS_SPI_UART.c **** 
 447:.\Generated_Source\PSoC4/UARTCOMMS_SPI_UART.c **** 
 448:.\Generated_Source\PSoC4/UARTCOMMS_SPI_UART.c **** /*******************************************************************************
 449:.\Generated_Source\PSoC4/UARTCOMMS_SPI_UART.c **** * Function Name: UARTCOMMS_SpiUartDisableIntTx
 450:.\Generated_Source\PSoC4/UARTCOMMS_SPI_UART.c **** ********************************************************************************
 451:.\Generated_Source\PSoC4/UARTCOMMS_SPI_UART.c **** *
 452:.\Generated_Source\PSoC4/UARTCOMMS_SPI_UART.c **** * Summary:
 453:.\Generated_Source\PSoC4/UARTCOMMS_SPI_UART.c **** *  Disables TX interrupt sources.
 454:.\Generated_Source\PSoC4/UARTCOMMS_SPI_UART.c **** *
 455:.\Generated_Source\PSoC4/UARTCOMMS_SPI_UART.c **** * Parameters:
 456:.\Generated_Source\PSoC4/UARTCOMMS_SPI_UART.c **** *  None
 457:.\Generated_Source\PSoC4/UARTCOMMS_SPI_UART.c **** *
 458:.\Generated_Source\PSoC4/UARTCOMMS_SPI_UART.c **** * Return:
 459:.\Generated_Source\PSoC4/UARTCOMMS_SPI_UART.c **** *  Returns TX interrupt sources enabled before function call.
 460:.\Generated_Source\PSoC4/UARTCOMMS_SPI_UART.c **** *
 461:.\Generated_Source\PSoC4/UARTCOMMS_SPI_UART.c **** *******************************************************************************/
 462:.\Generated_Source\PSoC4/UARTCOMMS_SPI_UART.c **** uint32 UARTCOMMS_SpiUartDisableIntTx(void)
 463:.\Generated_Source\PSoC4/UARTCOMMS_SPI_UART.c **** {
 382              		.loc 1 463 0
 383              		.cfi_startproc
 464:.\Generated_Source\PSoC4/UARTCOMMS_SPI_UART.c ****     uint32 intSourceMask;
 465:.\Generated_Source\PSoC4/UARTCOMMS_SPI_UART.c **** 
 466:.\Generated_Source\PSoC4/UARTCOMMS_SPI_UART.c ****     intSourceMask = UARTCOMMS_GetTxInterruptMode();
 384              		.loc 1 466 0
 385 0000 024B     		ldr	r3, .L33
 386 0002 1868     		ldr	r0, [r3]
ARM GAS  C:\Users\Tim\AppData\Local\Temp\cccxbV1a.s 			page 16


 387              	.LVL26:
 467:.\Generated_Source\PSoC4/UARTCOMMS_SPI_UART.c **** 
 468:.\Generated_Source\PSoC4/UARTCOMMS_SPI_UART.c ****     UARTCOMMS_SetTxInterruptMode(UARTCOMMS_NO_INTR_SOURCES);
 388              		.loc 1 468 0
 389 0004 0022     		mov	r2, #0
 390 0006 1A60     		str	r2, [r3]
 469:.\Generated_Source\PSoC4/UARTCOMMS_SPI_UART.c **** 
 470:.\Generated_Source\PSoC4/UARTCOMMS_SPI_UART.c ****     return (intSourceMask);
 471:.\Generated_Source\PSoC4/UARTCOMMS_SPI_UART.c **** }
 391              		.loc 1 471 0
 392              		@ sp needed
 393 0008 7047     		bx	lr
 394              	.L34:
 395 000a C046     		.align	2
 396              	.L33:
 397 000c 880F2440 		.word	1076105096
 398              		.cfi_endproc
 399              	.LFE9:
 400              		.size	UARTCOMMS_SpiUartDisableIntTx, .-UARTCOMMS_SpiUartDisableIntTx
 401              		.comm	UARTCOMMS_txBufferInternal,256,4
 402              		.comm	UARTCOMMS_txBufferTail,4,4
 403              		.comm	UARTCOMMS_txBufferHead,4,4
 404              		.text
 405              	.Letext0:
 406              		.file 2 "Generated_Source\\PSoC4/cytypes.h"
 407              		.file 3 "Generated_Source\\PSoC4/CyLib.h"