ARM GAS  C:\Users\Tim\AppData\Local\Temp\ccqT7Ql0.s 			page 1


   1              		.cpu cortex-m0
   2              		.fpu softvfp
   3              		.eabi_attribute 20, 1
   4              		.eabi_attribute 21, 1
   5              		.eabi_attribute 23, 3
   6              		.eabi_attribute 24, 1
   7              		.eabi_attribute 25, 1
   8              		.eabi_attribute 26, 1
   9              		.eabi_attribute 30, 1
  10              		.eabi_attribute 34, 0
  11              		.eabi_attribute 18, 4
  12              		.code	16
  13              		.file	"UARTCOMMS_UART.c"
  14              		.text
  15              	.Ltext0:
  16              		.cfi_sections	.debug_frame
  17              		.section	.text.UARTCOMMS_UartInit,"ax",%progbits
  18              		.align	2
  19              		.global	UARTCOMMS_UartInit
  20              		.code	16
  21              		.thumb_func
  22              		.type	UARTCOMMS_UartInit, %function
  23              	UARTCOMMS_UartInit:
  24              	.LFB1:
  25              		.file 1 ".\\Generated_Source\\PSoC4\\UARTCOMMS_UART.c"
   1:.\Generated_Source\PSoC4/UARTCOMMS_UART.c **** /*******************************************************************************
   2:.\Generated_Source\PSoC4/UARTCOMMS_UART.c **** * File Name: UARTCOMMS_UART.c
   3:.\Generated_Source\PSoC4/UARTCOMMS_UART.c **** * Version 3.10
   4:.\Generated_Source\PSoC4/UARTCOMMS_UART.c **** *
   5:.\Generated_Source\PSoC4/UARTCOMMS_UART.c **** * Description:
   6:.\Generated_Source\PSoC4/UARTCOMMS_UART.c **** *  This file provides the source code to the API for the SCB Component in
   7:.\Generated_Source\PSoC4/UARTCOMMS_UART.c **** *  UART mode.
   8:.\Generated_Source\PSoC4/UARTCOMMS_UART.c **** *
   9:.\Generated_Source\PSoC4/UARTCOMMS_UART.c **** * Note:
  10:.\Generated_Source\PSoC4/UARTCOMMS_UART.c **** *
  11:.\Generated_Source\PSoC4/UARTCOMMS_UART.c **** *******************************************************************************
  12:.\Generated_Source\PSoC4/UARTCOMMS_UART.c **** * Copyright 2013-2015, Cypress Semiconductor Corporation.  All rights reserved.
  13:.\Generated_Source\PSoC4/UARTCOMMS_UART.c **** * You may use this file only in accordance with the license, terms, conditions,
  14:.\Generated_Source\PSoC4/UARTCOMMS_UART.c **** * disclaimers, and limitations in the end user license agreement accompanying
  15:.\Generated_Source\PSoC4/UARTCOMMS_UART.c **** * the software package with which this file was provided.
  16:.\Generated_Source\PSoC4/UARTCOMMS_UART.c **** *******************************************************************************/
  17:.\Generated_Source\PSoC4/UARTCOMMS_UART.c **** 
  18:.\Generated_Source\PSoC4/UARTCOMMS_UART.c **** #include "UARTCOMMS_PVT.h"
  19:.\Generated_Source\PSoC4/UARTCOMMS_UART.c **** #include "UARTCOMMS_SPI_UART_PVT.h"
  20:.\Generated_Source\PSoC4/UARTCOMMS_UART.c **** #include "cyapicallbacks.h"
  21:.\Generated_Source\PSoC4/UARTCOMMS_UART.c **** 
  22:.\Generated_Source\PSoC4/UARTCOMMS_UART.c **** #if(UARTCOMMS_SCB_MODE_UNCONFIG_CONST_CFG)
  23:.\Generated_Source\PSoC4/UARTCOMMS_UART.c **** 
  24:.\Generated_Source\PSoC4/UARTCOMMS_UART.c ****     /***************************************
  25:.\Generated_Source\PSoC4/UARTCOMMS_UART.c ****     *  Configuration Structure Initialization
  26:.\Generated_Source\PSoC4/UARTCOMMS_UART.c ****     ***************************************/
  27:.\Generated_Source\PSoC4/UARTCOMMS_UART.c **** 
  28:.\Generated_Source\PSoC4/UARTCOMMS_UART.c ****     const UARTCOMMS_UART_INIT_STRUCT UARTCOMMS_configUart =
  29:.\Generated_Source\PSoC4/UARTCOMMS_UART.c ****     {
  30:.\Generated_Source\PSoC4/UARTCOMMS_UART.c ****         UARTCOMMS_UART_SUB_MODE,
  31:.\Generated_Source\PSoC4/UARTCOMMS_UART.c ****         UARTCOMMS_UART_DIRECTION,
  32:.\Generated_Source\PSoC4/UARTCOMMS_UART.c ****         UARTCOMMS_UART_DATA_BITS_NUM,
ARM GAS  C:\Users\Tim\AppData\Local\Temp\ccqT7Ql0.s 			page 2


  33:.\Generated_Source\PSoC4/UARTCOMMS_UART.c ****         UARTCOMMS_UART_PARITY_TYPE,
  34:.\Generated_Source\PSoC4/UARTCOMMS_UART.c ****         UARTCOMMS_UART_STOP_BITS_NUM,
  35:.\Generated_Source\PSoC4/UARTCOMMS_UART.c ****         UARTCOMMS_UART_OVS_FACTOR,
  36:.\Generated_Source\PSoC4/UARTCOMMS_UART.c ****         UARTCOMMS_UART_IRDA_LOW_POWER,
  37:.\Generated_Source\PSoC4/UARTCOMMS_UART.c ****         UARTCOMMS_UART_MEDIAN_FILTER_ENABLE,
  38:.\Generated_Source\PSoC4/UARTCOMMS_UART.c ****         UARTCOMMS_UART_RETRY_ON_NACK,
  39:.\Generated_Source\PSoC4/UARTCOMMS_UART.c ****         UARTCOMMS_UART_IRDA_POLARITY,
  40:.\Generated_Source\PSoC4/UARTCOMMS_UART.c ****         UARTCOMMS_UART_DROP_ON_PARITY_ERR,
  41:.\Generated_Source\PSoC4/UARTCOMMS_UART.c ****         UARTCOMMS_UART_DROP_ON_FRAME_ERR,
  42:.\Generated_Source\PSoC4/UARTCOMMS_UART.c ****         UARTCOMMS_UART_WAKE_ENABLE,
  43:.\Generated_Source\PSoC4/UARTCOMMS_UART.c ****         0u,
  44:.\Generated_Source\PSoC4/UARTCOMMS_UART.c ****         NULL,
  45:.\Generated_Source\PSoC4/UARTCOMMS_UART.c ****         0u,
  46:.\Generated_Source\PSoC4/UARTCOMMS_UART.c ****         NULL,
  47:.\Generated_Source\PSoC4/UARTCOMMS_UART.c ****         UARTCOMMS_UART_MP_MODE_ENABLE,
  48:.\Generated_Source\PSoC4/UARTCOMMS_UART.c ****         UARTCOMMS_UART_MP_ACCEPT_ADDRESS,
  49:.\Generated_Source\PSoC4/UARTCOMMS_UART.c ****         UARTCOMMS_UART_MP_RX_ADDRESS,
  50:.\Generated_Source\PSoC4/UARTCOMMS_UART.c ****         UARTCOMMS_UART_MP_RX_ADDRESS_MASK,
  51:.\Generated_Source\PSoC4/UARTCOMMS_UART.c ****         (uint32) UARTCOMMS_SCB_IRQ_INTERNAL,
  52:.\Generated_Source\PSoC4/UARTCOMMS_UART.c ****         UARTCOMMS_UART_INTR_RX_MASK,
  53:.\Generated_Source\PSoC4/UARTCOMMS_UART.c ****         UARTCOMMS_UART_RX_TRIGGER_LEVEL,
  54:.\Generated_Source\PSoC4/UARTCOMMS_UART.c ****         UARTCOMMS_UART_INTR_TX_MASK,
  55:.\Generated_Source\PSoC4/UARTCOMMS_UART.c ****         UARTCOMMS_UART_TX_TRIGGER_LEVEL,
  56:.\Generated_Source\PSoC4/UARTCOMMS_UART.c ****         (uint8) UARTCOMMS_UART_BYTE_MODE_ENABLE,
  57:.\Generated_Source\PSoC4/UARTCOMMS_UART.c ****         (uint8) UARTCOMMS_UART_CTS_ENABLE,
  58:.\Generated_Source\PSoC4/UARTCOMMS_UART.c ****         (uint8) UARTCOMMS_UART_CTS_POLARITY,
  59:.\Generated_Source\PSoC4/UARTCOMMS_UART.c ****         (uint8) UARTCOMMS_UART_RTS_POLARITY,
  60:.\Generated_Source\PSoC4/UARTCOMMS_UART.c ****         (uint8) UARTCOMMS_UART_RTS_FIFO_LEVEL
  61:.\Generated_Source\PSoC4/UARTCOMMS_UART.c ****     };
  62:.\Generated_Source\PSoC4/UARTCOMMS_UART.c **** 
  63:.\Generated_Source\PSoC4/UARTCOMMS_UART.c **** 
  64:.\Generated_Source\PSoC4/UARTCOMMS_UART.c ****     /*******************************************************************************
  65:.\Generated_Source\PSoC4/UARTCOMMS_UART.c ****     * Function Name: UARTCOMMS_UartInit
  66:.\Generated_Source\PSoC4/UARTCOMMS_UART.c ****     ********************************************************************************
  67:.\Generated_Source\PSoC4/UARTCOMMS_UART.c ****     *
  68:.\Generated_Source\PSoC4/UARTCOMMS_UART.c ****     * Summary:
  69:.\Generated_Source\PSoC4/UARTCOMMS_UART.c ****     *  Configures the SCB for the UART operation.
  70:.\Generated_Source\PSoC4/UARTCOMMS_UART.c ****     *
  71:.\Generated_Source\PSoC4/UARTCOMMS_UART.c ****     * Parameters:
  72:.\Generated_Source\PSoC4/UARTCOMMS_UART.c ****     *  config:  Pointer to a structure that contains the following ordered list of
  73:.\Generated_Source\PSoC4/UARTCOMMS_UART.c ****     *           fields. These fields match the selections available in the
  74:.\Generated_Source\PSoC4/UARTCOMMS_UART.c ****     *           customizer.
  75:.\Generated_Source\PSoC4/UARTCOMMS_UART.c ****     *
  76:.\Generated_Source\PSoC4/UARTCOMMS_UART.c ****     * Return:
  77:.\Generated_Source\PSoC4/UARTCOMMS_UART.c ****     *  None
  78:.\Generated_Source\PSoC4/UARTCOMMS_UART.c ****     *
  79:.\Generated_Source\PSoC4/UARTCOMMS_UART.c ****     *******************************************************************************/
  80:.\Generated_Source\PSoC4/UARTCOMMS_UART.c ****     void UARTCOMMS_UartInit(const UARTCOMMS_UART_INIT_STRUCT *config)
  81:.\Generated_Source\PSoC4/UARTCOMMS_UART.c ****     {
  82:.\Generated_Source\PSoC4/UARTCOMMS_UART.c ****         uint32 pinsConfig;
  83:.\Generated_Source\PSoC4/UARTCOMMS_UART.c **** 
  84:.\Generated_Source\PSoC4/UARTCOMMS_UART.c ****         if (NULL == config)
  85:.\Generated_Source\PSoC4/UARTCOMMS_UART.c ****         {
  86:.\Generated_Source\PSoC4/UARTCOMMS_UART.c ****             CYASSERT(0u != 0u); /* Halt execution due to bad function parameter */
  87:.\Generated_Source\PSoC4/UARTCOMMS_UART.c ****         }
  88:.\Generated_Source\PSoC4/UARTCOMMS_UART.c ****         else
  89:.\Generated_Source\PSoC4/UARTCOMMS_UART.c ****         {
ARM GAS  C:\Users\Tim\AppData\Local\Temp\ccqT7Ql0.s 			page 3


  90:.\Generated_Source\PSoC4/UARTCOMMS_UART.c ****             /* Get direction to configure UART pins: TX, RX or TX+RX */
  91:.\Generated_Source\PSoC4/UARTCOMMS_UART.c ****             pinsConfig  = config->direction;
  92:.\Generated_Source\PSoC4/UARTCOMMS_UART.c **** 
  93:.\Generated_Source\PSoC4/UARTCOMMS_UART.c ****         #if !(UARTCOMMS_CY_SCBIP_V0 || UARTCOMMS_CY_SCBIP_V1)
  94:.\Generated_Source\PSoC4/UARTCOMMS_UART.c ****             /* Add RTS and CTS pins to configure */
  95:.\Generated_Source\PSoC4/UARTCOMMS_UART.c ****             pinsConfig |= (0u != config->rtsRxFifoLevel) ? (UARTCOMMS_UART_RTS_PIN_ENABLE) : (0u);
  96:.\Generated_Source\PSoC4/UARTCOMMS_UART.c ****             pinsConfig |= (0u != config->enableCts)      ? (UARTCOMMS_UART_CTS_PIN_ENABLE) : (0u);
  97:.\Generated_Source\PSoC4/UARTCOMMS_UART.c ****         #endif /* !(UARTCOMMS_CY_SCBIP_V0 || UARTCOMMS_CY_SCBIP_V1) */
  98:.\Generated_Source\PSoC4/UARTCOMMS_UART.c **** 
  99:.\Generated_Source\PSoC4/UARTCOMMS_UART.c ****             /* Configure pins */
 100:.\Generated_Source\PSoC4/UARTCOMMS_UART.c ****             UARTCOMMS_SetPins(UARTCOMMS_SCB_MODE_UART, config->mode, pinsConfig);
 101:.\Generated_Source\PSoC4/UARTCOMMS_UART.c **** 
 102:.\Generated_Source\PSoC4/UARTCOMMS_UART.c ****             /* Store internal configuration */
 103:.\Generated_Source\PSoC4/UARTCOMMS_UART.c ****             UARTCOMMS_scbMode       = (uint8) UARTCOMMS_SCB_MODE_UART;
 104:.\Generated_Source\PSoC4/UARTCOMMS_UART.c ****             UARTCOMMS_scbEnableWake = (uint8) config->enableWake;
 105:.\Generated_Source\PSoC4/UARTCOMMS_UART.c ****             UARTCOMMS_scbEnableIntr = (uint8) config->enableInterrupt;
 106:.\Generated_Source\PSoC4/UARTCOMMS_UART.c **** 
 107:.\Generated_Source\PSoC4/UARTCOMMS_UART.c ****             /* Set RX direction internal variables */
 108:.\Generated_Source\PSoC4/UARTCOMMS_UART.c ****             UARTCOMMS_rxBuffer      =         config->rxBuffer;
 109:.\Generated_Source\PSoC4/UARTCOMMS_UART.c ****             UARTCOMMS_rxDataBits    = (uint8) config->dataBits;
 110:.\Generated_Source\PSoC4/UARTCOMMS_UART.c ****             UARTCOMMS_rxBufferSize  = (uint8) config->rxBufferSize;
 111:.\Generated_Source\PSoC4/UARTCOMMS_UART.c **** 
 112:.\Generated_Source\PSoC4/UARTCOMMS_UART.c ****             /* Set TX direction internal variables */
 113:.\Generated_Source\PSoC4/UARTCOMMS_UART.c ****             UARTCOMMS_txBuffer      =         config->txBuffer;
 114:.\Generated_Source\PSoC4/UARTCOMMS_UART.c ****             UARTCOMMS_txDataBits    = (uint8) config->dataBits;
 115:.\Generated_Source\PSoC4/UARTCOMMS_UART.c ****             UARTCOMMS_txBufferSize  = (uint8) config->txBufferSize;
 116:.\Generated_Source\PSoC4/UARTCOMMS_UART.c **** 
 117:.\Generated_Source\PSoC4/UARTCOMMS_UART.c ****             /* Configure UART interface */
 118:.\Generated_Source\PSoC4/UARTCOMMS_UART.c ****             if(UARTCOMMS_UART_MODE_IRDA == config->mode)
 119:.\Generated_Source\PSoC4/UARTCOMMS_UART.c ****             {
 120:.\Generated_Source\PSoC4/UARTCOMMS_UART.c ****                 /* OVS settings: IrDA */
 121:.\Generated_Source\PSoC4/UARTCOMMS_UART.c ****                 UARTCOMMS_CTRL_REG  = ((0u != config->enableIrdaLowPower) ?
 122:.\Generated_Source\PSoC4/UARTCOMMS_UART.c ****                                                 (UARTCOMMS_UART_GET_CTRL_OVS_IRDA_LP(config->oversa
 123:.\Generated_Source\PSoC4/UARTCOMMS_UART.c ****                                                 (UARTCOMMS_CTRL_OVS_IRDA_OVS16));
 124:.\Generated_Source\PSoC4/UARTCOMMS_UART.c ****             }
 125:.\Generated_Source\PSoC4/UARTCOMMS_UART.c ****             else
 126:.\Generated_Source\PSoC4/UARTCOMMS_UART.c ****             {
 127:.\Generated_Source\PSoC4/UARTCOMMS_UART.c ****                 /* OVS settings: UART and SmartCard */
 128:.\Generated_Source\PSoC4/UARTCOMMS_UART.c ****                 UARTCOMMS_CTRL_REG  = UARTCOMMS_GET_CTRL_OVS(config->oversample);
 129:.\Generated_Source\PSoC4/UARTCOMMS_UART.c ****             }
 130:.\Generated_Source\PSoC4/UARTCOMMS_UART.c **** 
 131:.\Generated_Source\PSoC4/UARTCOMMS_UART.c ****             UARTCOMMS_CTRL_REG     |= UARTCOMMS_GET_CTRL_BYTE_MODE  (config->enableByteMode)      |
 132:.\Generated_Source\PSoC4/UARTCOMMS_UART.c ****                                              UARTCOMMS_GET_CTRL_ADDR_ACCEPT(config->multiprocAccept
 133:.\Generated_Source\PSoC4/UARTCOMMS_UART.c ****                                              UARTCOMMS_CTRL_UART;
 134:.\Generated_Source\PSoC4/UARTCOMMS_UART.c **** 
 135:.\Generated_Source\PSoC4/UARTCOMMS_UART.c ****             /* Configure sub-mode: UART, SmartCard or IrDA */
 136:.\Generated_Source\PSoC4/UARTCOMMS_UART.c ****             UARTCOMMS_UART_CTRL_REG = UARTCOMMS_GET_UART_CTRL_MODE(config->mode);
 137:.\Generated_Source\PSoC4/UARTCOMMS_UART.c **** 
 138:.\Generated_Source\PSoC4/UARTCOMMS_UART.c ****             /* Configure RX direction */
 139:.\Generated_Source\PSoC4/UARTCOMMS_UART.c ****             UARTCOMMS_UART_RX_CTRL_REG = UARTCOMMS_GET_UART_RX_CTRL_MODE(config->stopBits)         
 140:.\Generated_Source\PSoC4/UARTCOMMS_UART.c ****                                         UARTCOMMS_GET_UART_RX_CTRL_POLARITY(config->enableInvertedR
 141:.\Generated_Source\PSoC4/UARTCOMMS_UART.c ****                                         UARTCOMMS_GET_UART_RX_CTRL_MP_MODE(config->enableMultiproc)
 142:.\Generated_Source\PSoC4/UARTCOMMS_UART.c ****                                         UARTCOMMS_GET_UART_RX_CTRL_DROP_ON_PARITY_ERR(config->dropO
 143:.\Generated_Source\PSoC4/UARTCOMMS_UART.c ****                                         UARTCOMMS_GET_UART_RX_CTRL_DROP_ON_FRAME_ERR(config->dropOn
 144:.\Generated_Source\PSoC4/UARTCOMMS_UART.c **** 
 145:.\Generated_Source\PSoC4/UARTCOMMS_UART.c ****             if(UARTCOMMS_UART_PARITY_NONE != config->parity)
 146:.\Generated_Source\PSoC4/UARTCOMMS_UART.c ****             {
ARM GAS  C:\Users\Tim\AppData\Local\Temp\ccqT7Ql0.s 			page 4


 147:.\Generated_Source\PSoC4/UARTCOMMS_UART.c ****                UARTCOMMS_UART_RX_CTRL_REG |= UARTCOMMS_GET_UART_RX_CTRL_PARITY(config->parity) |
 148:.\Generated_Source\PSoC4/UARTCOMMS_UART.c ****                                                     UARTCOMMS_UART_RX_CTRL_PARITY_ENABLED;
 149:.\Generated_Source\PSoC4/UARTCOMMS_UART.c ****             }
 150:.\Generated_Source\PSoC4/UARTCOMMS_UART.c **** 
 151:.\Generated_Source\PSoC4/UARTCOMMS_UART.c ****             UARTCOMMS_RX_CTRL_REG      = UARTCOMMS_GET_RX_CTRL_DATA_WIDTH(config->dataBits)       |
 152:.\Generated_Source\PSoC4/UARTCOMMS_UART.c ****                                                 UARTCOMMS_GET_RX_CTRL_MEDIAN(config->enableMedianFi
 153:.\Generated_Source\PSoC4/UARTCOMMS_UART.c ****                                                 UARTCOMMS_GET_UART_RX_CTRL_ENABLED(config->directio
 154:.\Generated_Source\PSoC4/UARTCOMMS_UART.c **** 
 155:.\Generated_Source\PSoC4/UARTCOMMS_UART.c ****             UARTCOMMS_RX_FIFO_CTRL_REG = UARTCOMMS_GET_RX_FIFO_CTRL_TRIGGER_LEVEL(config->rxTrigger
 156:.\Generated_Source\PSoC4/UARTCOMMS_UART.c **** 
 157:.\Generated_Source\PSoC4/UARTCOMMS_UART.c ****             /* Configure MP address */
 158:.\Generated_Source\PSoC4/UARTCOMMS_UART.c ****             UARTCOMMS_RX_MATCH_REG     = UARTCOMMS_GET_RX_MATCH_ADDR(config->multiprocAddr) |
 159:.\Generated_Source\PSoC4/UARTCOMMS_UART.c ****                                                 UARTCOMMS_GET_RX_MATCH_MASK(config->multiprocAddrMa
 160:.\Generated_Source\PSoC4/UARTCOMMS_UART.c **** 
 161:.\Generated_Source\PSoC4/UARTCOMMS_UART.c ****             /* Configure RX direction */
 162:.\Generated_Source\PSoC4/UARTCOMMS_UART.c ****             UARTCOMMS_UART_TX_CTRL_REG = UARTCOMMS_GET_UART_TX_CTRL_MODE(config->stopBits) |
 163:.\Generated_Source\PSoC4/UARTCOMMS_UART.c ****                                                 UARTCOMMS_GET_UART_TX_CTRL_RETRY_NACK(config->enabl
 164:.\Generated_Source\PSoC4/UARTCOMMS_UART.c **** 
 165:.\Generated_Source\PSoC4/UARTCOMMS_UART.c ****             if(UARTCOMMS_UART_PARITY_NONE != config->parity)
 166:.\Generated_Source\PSoC4/UARTCOMMS_UART.c ****             {
 167:.\Generated_Source\PSoC4/UARTCOMMS_UART.c ****                UARTCOMMS_UART_TX_CTRL_REG |= UARTCOMMS_GET_UART_TX_CTRL_PARITY(config->parity) |
 168:.\Generated_Source\PSoC4/UARTCOMMS_UART.c ****                                                     UARTCOMMS_UART_TX_CTRL_PARITY_ENABLED;
 169:.\Generated_Source\PSoC4/UARTCOMMS_UART.c ****             }
 170:.\Generated_Source\PSoC4/UARTCOMMS_UART.c **** 
 171:.\Generated_Source\PSoC4/UARTCOMMS_UART.c ****             UARTCOMMS_TX_CTRL_REG      = UARTCOMMS_GET_TX_CTRL_DATA_WIDTH(config->dataBits)    |
 172:.\Generated_Source\PSoC4/UARTCOMMS_UART.c ****                                                 UARTCOMMS_GET_UART_TX_CTRL_ENABLED(config->directio
 173:.\Generated_Source\PSoC4/UARTCOMMS_UART.c **** 
 174:.\Generated_Source\PSoC4/UARTCOMMS_UART.c ****             UARTCOMMS_TX_FIFO_CTRL_REG = UARTCOMMS_GET_TX_FIFO_CTRL_TRIGGER_LEVEL(config->txTrigger
 175:.\Generated_Source\PSoC4/UARTCOMMS_UART.c **** 
 176:.\Generated_Source\PSoC4/UARTCOMMS_UART.c ****         #if !(UARTCOMMS_CY_SCBIP_V0 || UARTCOMMS_CY_SCBIP_V1)
 177:.\Generated_Source\PSoC4/UARTCOMMS_UART.c ****             UARTCOMMS_UART_FLOW_CTRL_REG = UARTCOMMS_GET_UART_FLOW_CTRL_CTS_ENABLE(config->enableCt
 178:.\Generated_Source\PSoC4/UARTCOMMS_UART.c ****                                             UARTCOMMS_GET_UART_FLOW_CTRL_CTS_POLARITY (config->ctsP
 179:.\Generated_Source\PSoC4/UARTCOMMS_UART.c ****                                             UARTCOMMS_GET_UART_FLOW_CTRL_RTS_POLARITY (config->rtsP
 180:.\Generated_Source\PSoC4/UARTCOMMS_UART.c ****                                             UARTCOMMS_GET_UART_FLOW_CTRL_TRIGGER_LEVEL(config->rtsR
 181:.\Generated_Source\PSoC4/UARTCOMMS_UART.c ****         #endif /* !(UARTCOMMS_CY_SCBIP_V0 || UARTCOMMS_CY_SCBIP_V1) */
 182:.\Generated_Source\PSoC4/UARTCOMMS_UART.c **** 
 183:.\Generated_Source\PSoC4/UARTCOMMS_UART.c ****             /* Configure interrupt with UART handler but do not enable it */
 184:.\Generated_Source\PSoC4/UARTCOMMS_UART.c ****             CyIntDisable    (UARTCOMMS_ISR_NUMBER);
 185:.\Generated_Source\PSoC4/UARTCOMMS_UART.c ****             CyIntSetPriority(UARTCOMMS_ISR_NUMBER, UARTCOMMS_ISR_PRIORITY);
 186:.\Generated_Source\PSoC4/UARTCOMMS_UART.c ****             (void) CyIntSetVector(UARTCOMMS_ISR_NUMBER, &UARTCOMMS_SPI_UART_ISR);
 187:.\Generated_Source\PSoC4/UARTCOMMS_UART.c **** 
 188:.\Generated_Source\PSoC4/UARTCOMMS_UART.c ****             /* Configure WAKE interrupt */
 189:.\Generated_Source\PSoC4/UARTCOMMS_UART.c ****         #if(UARTCOMMS_UART_RX_WAKEUP_IRQ)
 190:.\Generated_Source\PSoC4/UARTCOMMS_UART.c ****             CyIntDisable    (UARTCOMMS_RX_WAKE_ISR_NUMBER);
 191:.\Generated_Source\PSoC4/UARTCOMMS_UART.c ****             CyIntSetPriority(UARTCOMMS_RX_WAKE_ISR_NUMBER, UARTCOMMS_RX_WAKE_ISR_PRIORITY);
 192:.\Generated_Source\PSoC4/UARTCOMMS_UART.c ****             (void) CyIntSetVector(UARTCOMMS_RX_WAKE_ISR_NUMBER, &UARTCOMMS_UART_WAKEUP_ISR);
 193:.\Generated_Source\PSoC4/UARTCOMMS_UART.c ****         #endif /* (UARTCOMMS_UART_RX_WAKEUP_IRQ) */
 194:.\Generated_Source\PSoC4/UARTCOMMS_UART.c **** 
 195:.\Generated_Source\PSoC4/UARTCOMMS_UART.c ****             /* Configure interrupt sources */
 196:.\Generated_Source\PSoC4/UARTCOMMS_UART.c ****             UARTCOMMS_INTR_I2C_EC_MASK_REG = UARTCOMMS_NO_INTR_SOURCES;
 197:.\Generated_Source\PSoC4/UARTCOMMS_UART.c ****             UARTCOMMS_INTR_SPI_EC_MASK_REG = UARTCOMMS_NO_INTR_SOURCES;
 198:.\Generated_Source\PSoC4/UARTCOMMS_UART.c ****             UARTCOMMS_INTR_SLAVE_MASK_REG  = UARTCOMMS_NO_INTR_SOURCES;
 199:.\Generated_Source\PSoC4/UARTCOMMS_UART.c ****             UARTCOMMS_INTR_MASTER_MASK_REG = UARTCOMMS_NO_INTR_SOURCES;
 200:.\Generated_Source\PSoC4/UARTCOMMS_UART.c ****             UARTCOMMS_INTR_RX_MASK_REG     = config->rxInterruptMask;
 201:.\Generated_Source\PSoC4/UARTCOMMS_UART.c ****             UARTCOMMS_INTR_TX_MASK_REG     = config->txInterruptMask;
 202:.\Generated_Source\PSoC4/UARTCOMMS_UART.c **** 
 203:.\Generated_Source\PSoC4/UARTCOMMS_UART.c ****             /* Clear RX buffer indexes */
ARM GAS  C:\Users\Tim\AppData\Local\Temp\ccqT7Ql0.s 			page 5


 204:.\Generated_Source\PSoC4/UARTCOMMS_UART.c ****             UARTCOMMS_rxBufferHead     = 0u;
 205:.\Generated_Source\PSoC4/UARTCOMMS_UART.c ****             UARTCOMMS_rxBufferTail     = 0u;
 206:.\Generated_Source\PSoC4/UARTCOMMS_UART.c ****             UARTCOMMS_rxBufferOverflow = 0u;
 207:.\Generated_Source\PSoC4/UARTCOMMS_UART.c **** 
 208:.\Generated_Source\PSoC4/UARTCOMMS_UART.c ****             /* Clear TX buffer indexes */
 209:.\Generated_Source\PSoC4/UARTCOMMS_UART.c ****             UARTCOMMS_txBufferHead = 0u;
 210:.\Generated_Source\PSoC4/UARTCOMMS_UART.c ****             UARTCOMMS_txBufferTail = 0u;
 211:.\Generated_Source\PSoC4/UARTCOMMS_UART.c ****         }
 212:.\Generated_Source\PSoC4/UARTCOMMS_UART.c ****     }
 213:.\Generated_Source\PSoC4/UARTCOMMS_UART.c **** 
 214:.\Generated_Source\PSoC4/UARTCOMMS_UART.c **** #else
 215:.\Generated_Source\PSoC4/UARTCOMMS_UART.c **** 
 216:.\Generated_Source\PSoC4/UARTCOMMS_UART.c ****     /*******************************************************************************
 217:.\Generated_Source\PSoC4/UARTCOMMS_UART.c ****     * Function Name: UARTCOMMS_UartInit
 218:.\Generated_Source\PSoC4/UARTCOMMS_UART.c ****     ********************************************************************************
 219:.\Generated_Source\PSoC4/UARTCOMMS_UART.c ****     *
 220:.\Generated_Source\PSoC4/UARTCOMMS_UART.c ****     * Summary:
 221:.\Generated_Source\PSoC4/UARTCOMMS_UART.c ****     *  Configures the SCB for the UART operation.
 222:.\Generated_Source\PSoC4/UARTCOMMS_UART.c ****     *
 223:.\Generated_Source\PSoC4/UARTCOMMS_UART.c ****     * Parameters:
 224:.\Generated_Source\PSoC4/UARTCOMMS_UART.c ****     *  None
 225:.\Generated_Source\PSoC4/UARTCOMMS_UART.c ****     *
 226:.\Generated_Source\PSoC4/UARTCOMMS_UART.c ****     * Return:
 227:.\Generated_Source\PSoC4/UARTCOMMS_UART.c ****     *  None
 228:.\Generated_Source\PSoC4/UARTCOMMS_UART.c ****     *
 229:.\Generated_Source\PSoC4/UARTCOMMS_UART.c ****     *******************************************************************************/
 230:.\Generated_Source\PSoC4/UARTCOMMS_UART.c ****     void UARTCOMMS_UartInit(void)
 231:.\Generated_Source\PSoC4/UARTCOMMS_UART.c ****     {
  26              		.loc 1 231 0
  27              		.cfi_startproc
  28 0000 10B5     		push	{r4, lr}
  29              		.cfi_def_cfa_offset 8
  30              		.cfi_offset 4, -8
  31              		.cfi_offset 14, -4
 232:.\Generated_Source\PSoC4/UARTCOMMS_UART.c ****         /* Configure UART interface */
 233:.\Generated_Source\PSoC4/UARTCOMMS_UART.c ****         UARTCOMMS_CTRL_REG = UARTCOMMS_UART_DEFAULT_CTRL;
  32              		.loc 1 233 0
  33 0002 1B4A     		ldr	r2, .L2
  34 0004 1B4B     		ldr	r3, .L2+4
  35 0006 1A60     		str	r2, [r3]
 234:.\Generated_Source\PSoC4/UARTCOMMS_UART.c **** 
 235:.\Generated_Source\PSoC4/UARTCOMMS_UART.c ****         /* Configure sub-mode: UART, SmartCard or IrDA */
 236:.\Generated_Source\PSoC4/UARTCOMMS_UART.c ****         UARTCOMMS_UART_CTRL_REG = UARTCOMMS_UART_DEFAULT_UART_CTRL;
  36              		.loc 1 236 0
  37 0008 0024     		mov	r4, #0
  38 000a 1B4B     		ldr	r3, .L2+8
  39 000c 1C60     		str	r4, [r3]
 237:.\Generated_Source\PSoC4/UARTCOMMS_UART.c **** 
 238:.\Generated_Source\PSoC4/UARTCOMMS_UART.c ****         /* Configure RX direction */
 239:.\Generated_Source\PSoC4/UARTCOMMS_UART.c ****         UARTCOMMS_UART_RX_CTRL_REG = UARTCOMMS_UART_DEFAULT_UART_RX_CTRL;
  40              		.loc 1 239 0
  41 000e 0123     		mov	r3, #1
  42 0010 1A4A     		ldr	r2, .L2+12
  43 0012 1360     		str	r3, [r2]
 240:.\Generated_Source\PSoC4/UARTCOMMS_UART.c ****         UARTCOMMS_RX_CTRL_REG      = UARTCOMMS_UART_DEFAULT_RX_CTRL;
  44              		.loc 1 240 0
  45 0014 0722     		mov	r2, #7
ARM GAS  C:\Users\Tim\AppData\Local\Temp\ccqT7Ql0.s 			page 6


  46 0016 1A49     		ldr	r1, .L2+16
  47 0018 0A60     		str	r2, [r1]
 241:.\Generated_Source\PSoC4/UARTCOMMS_UART.c ****         UARTCOMMS_RX_FIFO_CTRL_REG = UARTCOMMS_UART_DEFAULT_RX_FIFO_CTRL;
  48              		.loc 1 241 0
  49 001a 1A49     		ldr	r1, .L2+20
  50 001c 0A60     		str	r2, [r1]
 242:.\Generated_Source\PSoC4/UARTCOMMS_UART.c ****         UARTCOMMS_RX_MATCH_REG     = UARTCOMMS_UART_DEFAULT_RX_MATCH_REG;
  51              		.loc 1 242 0
  52 001e 1A4A     		ldr	r2, .L2+24
  53 0020 1460     		str	r4, [r2]
 243:.\Generated_Source\PSoC4/UARTCOMMS_UART.c **** 
 244:.\Generated_Source\PSoC4/UARTCOMMS_UART.c ****         /* Configure TX direction */
 245:.\Generated_Source\PSoC4/UARTCOMMS_UART.c ****         UARTCOMMS_UART_TX_CTRL_REG = UARTCOMMS_UART_DEFAULT_UART_TX_CTRL;
  54              		.loc 1 245 0
  55 0022 1A4A     		ldr	r2, .L2+28
  56 0024 1360     		str	r3, [r2]
 246:.\Generated_Source\PSoC4/UARTCOMMS_UART.c ****         UARTCOMMS_TX_CTRL_REG      = UARTCOMMS_UART_DEFAULT_TX_CTRL;
  57              		.loc 1 246 0
  58 0026 1A4A     		ldr	r2, .L2+32
  59 0028 1A4B     		ldr	r3, .L2+36
  60 002a 1A60     		str	r2, [r3]
 247:.\Generated_Source\PSoC4/UARTCOMMS_UART.c ****         UARTCOMMS_TX_FIFO_CTRL_REG = UARTCOMMS_UART_DEFAULT_TX_FIFO_CTRL;
  61              		.loc 1 247 0
  62 002c 1A4B     		ldr	r3, .L2+40
  63 002e 1C60     		str	r4, [r3]
 248:.\Generated_Source\PSoC4/UARTCOMMS_UART.c **** 
 249:.\Generated_Source\PSoC4/UARTCOMMS_UART.c ****     #if !(UARTCOMMS_CY_SCBIP_V0 || UARTCOMMS_CY_SCBIP_V1)
 250:.\Generated_Source\PSoC4/UARTCOMMS_UART.c ****         UARTCOMMS_UART_FLOW_CTRL_REG = UARTCOMMS_UART_DEFAULT_FLOW_CTRL;
  64              		.loc 1 250 0
  65 0030 0422     		mov	r2, #4
  66 0032 1A4B     		ldr	r3, .L2+44
  67 0034 1A60     		str	r2, [r3]
 251:.\Generated_Source\PSoC4/UARTCOMMS_UART.c ****     #endif /* !(UARTCOMMS_CY_SCBIP_V0 || UARTCOMMS_CY_SCBIP_V1) */
 252:.\Generated_Source\PSoC4/UARTCOMMS_UART.c **** 
 253:.\Generated_Source\PSoC4/UARTCOMMS_UART.c ****         /* Configure interrupt with UART handler but do not enable it */
 254:.\Generated_Source\PSoC4/UARTCOMMS_UART.c ****     #if(UARTCOMMS_SCB_IRQ_INTERNAL)
 255:.\Generated_Source\PSoC4/UARTCOMMS_UART.c ****         CyIntDisable    (UARTCOMMS_ISR_NUMBER);
  68              		.loc 1 255 0
  69 0036 0920     		mov	r0, #9
  70 0038 FFF7FEFF 		bl	CyIntDisable
  71              	.LVL0:
 256:.\Generated_Source\PSoC4/UARTCOMMS_UART.c ****         CyIntSetPriority(UARTCOMMS_ISR_NUMBER, UARTCOMMS_ISR_PRIORITY);
  72              		.loc 1 256 0
  73 003c 0920     		mov	r0, #9
  74 003e 0321     		mov	r1, #3
  75 0040 FFF7FEFF 		bl	CyIntSetPriority
  76              	.LVL1:
 257:.\Generated_Source\PSoC4/UARTCOMMS_UART.c ****         (void) CyIntSetVector(UARTCOMMS_ISR_NUMBER, &UARTCOMMS_SPI_UART_ISR);
  77              		.loc 1 257 0
  78 0044 0920     		mov	r0, #9
  79 0046 1649     		ldr	r1, .L2+48
  80 0048 FFF7FEFF 		bl	CyIntSetVector
  81              	.LVL2:
 258:.\Generated_Source\PSoC4/UARTCOMMS_UART.c ****     #endif /* (UARTCOMMS_SCB_IRQ_INTERNAL) */
 259:.\Generated_Source\PSoC4/UARTCOMMS_UART.c **** 
 260:.\Generated_Source\PSoC4/UARTCOMMS_UART.c ****         /* Configure WAKE interrupt */
 261:.\Generated_Source\PSoC4/UARTCOMMS_UART.c ****     #if(UARTCOMMS_UART_RX_WAKEUP_IRQ)
ARM GAS  C:\Users\Tim\AppData\Local\Temp\ccqT7Ql0.s 			page 7


 262:.\Generated_Source\PSoC4/UARTCOMMS_UART.c ****         CyIntDisable    (UARTCOMMS_RX_WAKE_ISR_NUMBER);
 263:.\Generated_Source\PSoC4/UARTCOMMS_UART.c ****         CyIntSetPriority(UARTCOMMS_RX_WAKE_ISR_NUMBER, UARTCOMMS_RX_WAKE_ISR_PRIORITY);
 264:.\Generated_Source\PSoC4/UARTCOMMS_UART.c ****         (void) CyIntSetVector(UARTCOMMS_RX_WAKE_ISR_NUMBER, &UARTCOMMS_UART_WAKEUP_ISR);
 265:.\Generated_Source\PSoC4/UARTCOMMS_UART.c ****     #endif /* (UARTCOMMS_UART_RX_WAKEUP_IRQ) */
 266:.\Generated_Source\PSoC4/UARTCOMMS_UART.c **** 
 267:.\Generated_Source\PSoC4/UARTCOMMS_UART.c ****         /* Configure interrupt sources */
 268:.\Generated_Source\PSoC4/UARTCOMMS_UART.c ****         UARTCOMMS_INTR_I2C_EC_MASK_REG = UARTCOMMS_UART_DEFAULT_INTR_I2C_EC_MASK;
  82              		.loc 1 268 0
  83 004c 154B     		ldr	r3, .L2+52
  84 004e 1C60     		str	r4, [r3]
 269:.\Generated_Source\PSoC4/UARTCOMMS_UART.c ****         UARTCOMMS_INTR_SPI_EC_MASK_REG = UARTCOMMS_UART_DEFAULT_INTR_SPI_EC_MASK;
  85              		.loc 1 269 0
  86 0050 154B     		ldr	r3, .L2+56
  87 0052 1C60     		str	r4, [r3]
 270:.\Generated_Source\PSoC4/UARTCOMMS_UART.c ****         UARTCOMMS_INTR_SLAVE_MASK_REG  = UARTCOMMS_UART_DEFAULT_INTR_SLAVE_MASK;
  88              		.loc 1 270 0
  89 0054 154B     		ldr	r3, .L2+60
  90 0056 1C60     		str	r4, [r3]
 271:.\Generated_Source\PSoC4/UARTCOMMS_UART.c ****         UARTCOMMS_INTR_MASTER_MASK_REG = UARTCOMMS_UART_DEFAULT_INTR_MASTER_MASK;
  91              		.loc 1 271 0
  92 0058 154B     		ldr	r3, .L2+64
  93 005a 1C60     		str	r4, [r3]
 272:.\Generated_Source\PSoC4/UARTCOMMS_UART.c ****         UARTCOMMS_INTR_RX_MASK_REG     = UARTCOMMS_UART_DEFAULT_INTR_RX_MASK;
  94              		.loc 1 272 0
  95 005c 154B     		ldr	r3, .L2+68
  96 005e 1C60     		str	r4, [r3]
 273:.\Generated_Source\PSoC4/UARTCOMMS_UART.c ****         UARTCOMMS_INTR_TX_MASK_REG     = UARTCOMMS_UART_DEFAULT_INTR_TX_MASK;
  97              		.loc 1 273 0
  98 0060 154B     		ldr	r3, .L2+72
  99 0062 1C60     		str	r4, [r3]
 274:.\Generated_Source\PSoC4/UARTCOMMS_UART.c **** 
 275:.\Generated_Source\PSoC4/UARTCOMMS_UART.c ****     #if(UARTCOMMS_INTERNAL_RX_SW_BUFFER_CONST)
 276:.\Generated_Source\PSoC4/UARTCOMMS_UART.c ****         UARTCOMMS_rxBufferHead     = 0u;
 277:.\Generated_Source\PSoC4/UARTCOMMS_UART.c ****         UARTCOMMS_rxBufferTail     = 0u;
 278:.\Generated_Source\PSoC4/UARTCOMMS_UART.c ****         UARTCOMMS_rxBufferOverflow = 0u;
 279:.\Generated_Source\PSoC4/UARTCOMMS_UART.c ****     #endif /* (UARTCOMMS_INTERNAL_RX_SW_BUFFER_CONST) */
 280:.\Generated_Source\PSoC4/UARTCOMMS_UART.c **** 
 281:.\Generated_Source\PSoC4/UARTCOMMS_UART.c ****     #if(UARTCOMMS_INTERNAL_TX_SW_BUFFER_CONST)
 282:.\Generated_Source\PSoC4/UARTCOMMS_UART.c ****         UARTCOMMS_txBufferHead = 0u;
 100              		.loc 1 282 0
 101 0064 154B     		ldr	r3, .L2+76
 102 0066 1C60     		str	r4, [r3]
 283:.\Generated_Source\PSoC4/UARTCOMMS_UART.c ****         UARTCOMMS_txBufferTail = 0u;
 103              		.loc 1 283 0
 104 0068 154B     		ldr	r3, .L2+80
 105 006a 1C60     		str	r4, [r3]
 284:.\Generated_Source\PSoC4/UARTCOMMS_UART.c ****     #endif /* (UARTCOMMS_INTERNAL_TX_SW_BUFFER_CONST) */
 285:.\Generated_Source\PSoC4/UARTCOMMS_UART.c ****     }
 106              		.loc 1 285 0
 107              		@ sp needed
 108 006c 10BD     		pop	{r4, pc}
 109              	.L3:
 110 006e C046     		.align	2
 111              	.L2:
 112 0070 0B000002 		.word	33554443
 113 0074 00002540 		.word	1076166656
 114 0078 40002540 		.word	1076166720
ARM GAS  C:\Users\Tim\AppData\Local\Temp\ccqT7Ql0.s 			page 8


 115 007c 48002540 		.word	1076166728
 116 0080 00032540 		.word	1076167424
 117 0084 04032540 		.word	1076167428
 118 0088 10032540 		.word	1076167440
 119 008c 44002540 		.word	1076166724
 120 0090 07000080 		.word	-2147483641
 121 0094 00022540 		.word	1076167168
 122 0098 04022540 		.word	1076167172
 123 009c 50002540 		.word	1076166736
 124 00a0 00000000 		.word	UARTCOMMS_SPI_UART_ISR
 125 00a4 880E2540 		.word	1076170376
 126 00a8 C80E2540 		.word	1076170440
 127 00ac 480F2540 		.word	1076170568
 128 00b0 080F2540 		.word	1076170504
 129 00b4 C80F2540 		.word	1076170696
 130 00b8 880F2540 		.word	1076170632
 131 00bc 00000000 		.word	UARTCOMMS_txBufferHead
 132 00c0 00000000 		.word	UARTCOMMS_txBufferTail
 133              		.cfi_endproc
 134              	.LFE1:
 135              		.size	UARTCOMMS_UartInit, .-UARTCOMMS_UartInit
 136              		.section	.text.UARTCOMMS_UartPostEnable,"ax",%progbits
 137              		.align	2
 138              		.global	UARTCOMMS_UartPostEnable
 139              		.code	16
 140              		.thumb_func
 141              		.type	UARTCOMMS_UartPostEnable, %function
 142              	UARTCOMMS_UartPostEnable:
 143              	.LFB2:
 286:.\Generated_Source\PSoC4/UARTCOMMS_UART.c **** #endif /* (UARTCOMMS_SCB_MODE_UNCONFIG_CONST_CFG) */
 287:.\Generated_Source\PSoC4/UARTCOMMS_UART.c **** 
 288:.\Generated_Source\PSoC4/UARTCOMMS_UART.c **** 
 289:.\Generated_Source\PSoC4/UARTCOMMS_UART.c **** /*******************************************************************************
 290:.\Generated_Source\PSoC4/UARTCOMMS_UART.c **** * Function Name: UARTCOMMS_UartPostEnable
 291:.\Generated_Source\PSoC4/UARTCOMMS_UART.c **** ********************************************************************************
 292:.\Generated_Source\PSoC4/UARTCOMMS_UART.c **** *
 293:.\Generated_Source\PSoC4/UARTCOMMS_UART.c **** * Summary:
 294:.\Generated_Source\PSoC4/UARTCOMMS_UART.c **** *  Restores HSIOM settings for the UART output pins (TX and/or RTS) to be 
 295:.\Generated_Source\PSoC4/UARTCOMMS_UART.c **** *  controlled by the SCB UART.
 296:.\Generated_Source\PSoC4/UARTCOMMS_UART.c **** *
 297:.\Generated_Source\PSoC4/UARTCOMMS_UART.c **** * Parameters:
 298:.\Generated_Source\PSoC4/UARTCOMMS_UART.c **** *  None
 299:.\Generated_Source\PSoC4/UARTCOMMS_UART.c **** *
 300:.\Generated_Source\PSoC4/UARTCOMMS_UART.c **** * Return:
 301:.\Generated_Source\PSoC4/UARTCOMMS_UART.c **** *  None
 302:.\Generated_Source\PSoC4/UARTCOMMS_UART.c **** *
 303:.\Generated_Source\PSoC4/UARTCOMMS_UART.c **** *******************************************************************************/
 304:.\Generated_Source\PSoC4/UARTCOMMS_UART.c **** void UARTCOMMS_UartPostEnable(void)
 305:.\Generated_Source\PSoC4/UARTCOMMS_UART.c **** {
 144              		.loc 1 305 0
 145              		.cfi_startproc
 306:.\Generated_Source\PSoC4/UARTCOMMS_UART.c **** #if (UARTCOMMS_SCB_MODE_UNCONFIG_CONST_CFG)
 307:.\Generated_Source\PSoC4/UARTCOMMS_UART.c **** 
 308:.\Generated_Source\PSoC4/UARTCOMMS_UART.c **** #if (UARTCOMMS_TX_SDA_MISO_PIN)
 309:.\Generated_Source\PSoC4/UARTCOMMS_UART.c ****     if (UARTCOMMS_CHECK_TX_SDA_MISO_PIN_USED)
 310:.\Generated_Source\PSoC4/UARTCOMMS_UART.c ****     {
 311:.\Generated_Source\PSoC4/UARTCOMMS_UART.c ****         /* Set SCB UART to drive the output pin */
ARM GAS  C:\Users\Tim\AppData\Local\Temp\ccqT7Ql0.s 			page 9


 312:.\Generated_Source\PSoC4/UARTCOMMS_UART.c ****         UARTCOMMS_SET_HSIOM_SEL(UARTCOMMS_TX_SDA_MISO_HSIOM_REG, UARTCOMMS_TX_SDA_MISO_HSIOM_MASK,
 313:.\Generated_Source\PSoC4/UARTCOMMS_UART.c ****                                        UARTCOMMS_TX_SDA_MISO_HSIOM_POS, UARTCOMMS_HSIOM_UART_SEL);
 314:.\Generated_Source\PSoC4/UARTCOMMS_UART.c ****     }
 315:.\Generated_Source\PSoC4/UARTCOMMS_UART.c **** #endif /* (UARTCOMMS_TX_SDA_MISO_PIN_PIN) */
 316:.\Generated_Source\PSoC4/UARTCOMMS_UART.c **** 
 317:.\Generated_Source\PSoC4/UARTCOMMS_UART.c **** #if (UARTCOMMS_RTS_SS0_PIN)
 318:.\Generated_Source\PSoC4/UARTCOMMS_UART.c ****     if (UARTCOMMS_CHECK_RTS_SS0_PIN_USED)
 319:.\Generated_Source\PSoC4/UARTCOMMS_UART.c ****     {
 320:.\Generated_Source\PSoC4/UARTCOMMS_UART.c ****         /* Set SCB UART to drive the output pin */
 321:.\Generated_Source\PSoC4/UARTCOMMS_UART.c ****         UARTCOMMS_SET_HSIOM_SEL(UARTCOMMS_RTS_SS0_HSIOM_REG, UARTCOMMS_RTS_SS0_HSIOM_MASK,
 322:.\Generated_Source\PSoC4/UARTCOMMS_UART.c ****                                        UARTCOMMS_RTS_SS0_HSIOM_POS, UARTCOMMS_HSIOM_UART_SEL);
 323:.\Generated_Source\PSoC4/UARTCOMMS_UART.c ****     }
 324:.\Generated_Source\PSoC4/UARTCOMMS_UART.c **** #endif /* (UARTCOMMS_RTS_SS0_PIN) */
 325:.\Generated_Source\PSoC4/UARTCOMMS_UART.c **** 
 326:.\Generated_Source\PSoC4/UARTCOMMS_UART.c **** #else
 327:.\Generated_Source\PSoC4/UARTCOMMS_UART.c **** #if (UARTCOMMS_UART_TX_PIN)
 328:.\Generated_Source\PSoC4/UARTCOMMS_UART.c ****      /* Set SCB UART to drive the output pin */
 329:.\Generated_Source\PSoC4/UARTCOMMS_UART.c ****     UARTCOMMS_SET_HSIOM_SEL(UARTCOMMS_TX_HSIOM_REG, UARTCOMMS_TX_HSIOM_MASK,
 146              		.loc 1 329 0
 147 0000 044A     		ldr	r2, .L5
 148 0002 1168     		ldr	r1, [r2]
 149 0004 044B     		ldr	r3, .L5+4
 150 0006 0B40     		and	r3, r1
 151 0008 9021     		mov	r1, #144
 152 000a 0904     		lsl	r1, r1, #16
 153 000c 0B43     		orr	r3, r1
 154 000e 1360     		str	r3, [r2]
 330:.\Generated_Source\PSoC4/UARTCOMMS_UART.c ****                                    UARTCOMMS_TX_HSIOM_POS, UARTCOMMS_HSIOM_UART_SEL);
 331:.\Generated_Source\PSoC4/UARTCOMMS_UART.c **** #endif /* (UARTCOMMS_UART_TX_PIN) */
 332:.\Generated_Source\PSoC4/UARTCOMMS_UART.c **** 
 333:.\Generated_Source\PSoC4/UARTCOMMS_UART.c **** #if (UARTCOMMS_UART_RTS_PIN)
 334:.\Generated_Source\PSoC4/UARTCOMMS_UART.c ****     /* Set SCB UART to drive the output pin */
 335:.\Generated_Source\PSoC4/UARTCOMMS_UART.c ****     UARTCOMMS_SET_HSIOM_SEL(UARTCOMMS_RTS_HSIOM_REG, UARTCOMMS_RTS_HSIOM_MASK,
 336:.\Generated_Source\PSoC4/UARTCOMMS_UART.c ****                                    UARTCOMMS_RTS_HSIOM_POS, UARTCOMMS_HSIOM_UART_SEL);
 337:.\Generated_Source\PSoC4/UARTCOMMS_UART.c **** #endif /* (UARTCOMMS_UART_RTS_PIN) */
 338:.\Generated_Source\PSoC4/UARTCOMMS_UART.c **** 
 339:.\Generated_Source\PSoC4/UARTCOMMS_UART.c **** #endif /* (UARTCOMMS_SCB_MODE_UNCONFIG_CONST_CFG) */
 340:.\Generated_Source\PSoC4/UARTCOMMS_UART.c **** }
 155              		.loc 1 340 0
 156              		@ sp needed
 157 0010 7047     		bx	lr
 158              	.L6:
 159 0012 C046     		.align	2
 160              	.L5:
 161 0014 00000240 		.word	1073872896
 162 0018 FFFF0FFF 		.word	-15728641
 163              		.cfi_endproc
 164              	.LFE2:
 165              		.size	UARTCOMMS_UartPostEnable, .-UARTCOMMS_UartPostEnable
 166              		.section	.text.UARTCOMMS_UartStop,"ax",%progbits
 167              		.align	2
 168              		.global	UARTCOMMS_UartStop
 169              		.code	16
 170              		.thumb_func
 171              		.type	UARTCOMMS_UartStop, %function
 172              	UARTCOMMS_UartStop:
 173              	.LFB3:
ARM GAS  C:\Users\Tim\AppData\Local\Temp\ccqT7Ql0.s 			page 10


 341:.\Generated_Source\PSoC4/UARTCOMMS_UART.c **** 
 342:.\Generated_Source\PSoC4/UARTCOMMS_UART.c **** 
 343:.\Generated_Source\PSoC4/UARTCOMMS_UART.c **** /*******************************************************************************
 344:.\Generated_Source\PSoC4/UARTCOMMS_UART.c **** * Function Name: UARTCOMMS_UartStop
 345:.\Generated_Source\PSoC4/UARTCOMMS_UART.c **** ********************************************************************************
 346:.\Generated_Source\PSoC4/UARTCOMMS_UART.c **** *
 347:.\Generated_Source\PSoC4/UARTCOMMS_UART.c **** * Summary:
 348:.\Generated_Source\PSoC4/UARTCOMMS_UART.c **** *  Changes the HSIOM settings for the UART output pins (TX and/or RTS) to keep
 349:.\Generated_Source\PSoC4/UARTCOMMS_UART.c **** *  them inactive after the block is disabled. The output pins are controlled by
 350:.\Generated_Source\PSoC4/UARTCOMMS_UART.c **** *  the GPIO data register. Also, the function disables the skip start feature to
 351:.\Generated_Source\PSoC4/UARTCOMMS_UART.c **** *  not cause it to trigger after the component is enabled.
 352:.\Generated_Source\PSoC4/UARTCOMMS_UART.c **** *
 353:.\Generated_Source\PSoC4/UARTCOMMS_UART.c **** * Parameters:
 354:.\Generated_Source\PSoC4/UARTCOMMS_UART.c **** *  None
 355:.\Generated_Source\PSoC4/UARTCOMMS_UART.c **** *
 356:.\Generated_Source\PSoC4/UARTCOMMS_UART.c **** * Return:
 357:.\Generated_Source\PSoC4/UARTCOMMS_UART.c **** *  None
 358:.\Generated_Source\PSoC4/UARTCOMMS_UART.c **** *
 359:.\Generated_Source\PSoC4/UARTCOMMS_UART.c **** *******************************************************************************/
 360:.\Generated_Source\PSoC4/UARTCOMMS_UART.c **** void UARTCOMMS_UartStop(void)
 361:.\Generated_Source\PSoC4/UARTCOMMS_UART.c **** {
 174              		.loc 1 361 0
 175              		.cfi_startproc
 362:.\Generated_Source\PSoC4/UARTCOMMS_UART.c **** #if(UARTCOMMS_SCB_MODE_UNCONFIG_CONST_CFG)
 363:.\Generated_Source\PSoC4/UARTCOMMS_UART.c ****     #if (UARTCOMMS_TX_SDA_MISO_PIN)
 364:.\Generated_Source\PSoC4/UARTCOMMS_UART.c ****         if (UARTCOMMS_CHECK_TX_SDA_MISO_PIN_USED)
 365:.\Generated_Source\PSoC4/UARTCOMMS_UART.c ****         {
 366:.\Generated_Source\PSoC4/UARTCOMMS_UART.c ****             /* Set GPIO to drive output pin */
 367:.\Generated_Source\PSoC4/UARTCOMMS_UART.c ****             UARTCOMMS_SET_HSIOM_SEL(UARTCOMMS_TX_SDA_MISO_HSIOM_REG, UARTCOMMS_TX_SDA_MISO_HSIOM_MA
 368:.\Generated_Source\PSoC4/UARTCOMMS_UART.c ****                                            UARTCOMMS_TX_SDA_MISO_HSIOM_POS, UARTCOMMS_HSIOM_GPIO_SE
 369:.\Generated_Source\PSoC4/UARTCOMMS_UART.c ****         }
 370:.\Generated_Source\PSoC4/UARTCOMMS_UART.c ****     #endif /* (UARTCOMMS_TX_SDA_MISO_PIN_PIN) */
 371:.\Generated_Source\PSoC4/UARTCOMMS_UART.c **** 
 372:.\Generated_Source\PSoC4/UARTCOMMS_UART.c ****     #if (UARTCOMMS_RTS_SS0_PIN)
 373:.\Generated_Source\PSoC4/UARTCOMMS_UART.c ****         if (UARTCOMMS_CHECK_RTS_SS0_PIN_USED)
 374:.\Generated_Source\PSoC4/UARTCOMMS_UART.c ****         {
 375:.\Generated_Source\PSoC4/UARTCOMMS_UART.c ****             /* Set output pin state after block is disabled */
 376:.\Generated_Source\PSoC4/UARTCOMMS_UART.c ****             UARTCOMMS_uart_rts_spi_ss0_Write(UARTCOMMS_GET_UART_RTS_INACTIVE);
 377:.\Generated_Source\PSoC4/UARTCOMMS_UART.c **** 
 378:.\Generated_Source\PSoC4/UARTCOMMS_UART.c ****             /* Set GPIO to drive output pin */
 379:.\Generated_Source\PSoC4/UARTCOMMS_UART.c ****             UARTCOMMS_SET_HSIOM_SEL(UARTCOMMS_RTS_SS0_HSIOM_REG, UARTCOMMS_RTS_SS0_HSIOM_MASK,
 380:.\Generated_Source\PSoC4/UARTCOMMS_UART.c ****                                            UARTCOMMS_RTS_SS0_HSIOM_POS, UARTCOMMS_HSIOM_GPIO_SEL);
 381:.\Generated_Source\PSoC4/UARTCOMMS_UART.c ****         }
 382:.\Generated_Source\PSoC4/UARTCOMMS_UART.c ****     #endif /* (UARTCOMMS_SS0_PIN) */
 383:.\Generated_Source\PSoC4/UARTCOMMS_UART.c **** 
 384:.\Generated_Source\PSoC4/UARTCOMMS_UART.c **** #else
 385:.\Generated_Source\PSoC4/UARTCOMMS_UART.c ****     #if (UARTCOMMS_UART_TX_PIN)
 386:.\Generated_Source\PSoC4/UARTCOMMS_UART.c ****         /* Set GPIO to drive output pin */
 387:.\Generated_Source\PSoC4/UARTCOMMS_UART.c ****         UARTCOMMS_SET_HSIOM_SEL(UARTCOMMS_TX_HSIOM_REG, UARTCOMMS_TX_HSIOM_MASK,
 176              		.loc 1 387 0
 177 0000 024A     		ldr	r2, .L8
 178 0002 1168     		ldr	r1, [r2]
 179 0004 024B     		ldr	r3, .L8+4
 180 0006 0B40     		and	r3, r1
 181 0008 1360     		str	r3, [r2]
 388:.\Generated_Source\PSoC4/UARTCOMMS_UART.c ****                                        UARTCOMMS_TX_HSIOM_POS, UARTCOMMS_HSIOM_GPIO_SEL);
 389:.\Generated_Source\PSoC4/UARTCOMMS_UART.c ****     #endif /* (UARTCOMMS_UART_TX_PIN) */
ARM GAS  C:\Users\Tim\AppData\Local\Temp\ccqT7Ql0.s 			page 11


 390:.\Generated_Source\PSoC4/UARTCOMMS_UART.c **** 
 391:.\Generated_Source\PSoC4/UARTCOMMS_UART.c ****     #if (UARTCOMMS_UART_RTS_PIN)
 392:.\Generated_Source\PSoC4/UARTCOMMS_UART.c ****         /* Set output pin state after block is disabled */
 393:.\Generated_Source\PSoC4/UARTCOMMS_UART.c ****         UARTCOMMS_rts_Write(UARTCOMMS_GET_UART_RTS_INACTIVE);
 394:.\Generated_Source\PSoC4/UARTCOMMS_UART.c **** 
 395:.\Generated_Source\PSoC4/UARTCOMMS_UART.c ****         /* Set GPIO to drive output pin */
 396:.\Generated_Source\PSoC4/UARTCOMMS_UART.c ****         UARTCOMMS_SET_HSIOM_SEL(UARTCOMMS_RTS_HSIOM_REG, UARTCOMMS_RTS_HSIOM_MASK,
 397:.\Generated_Source\PSoC4/UARTCOMMS_UART.c ****                                        UARTCOMMS_RTS_HSIOM_POS, UARTCOMMS_HSIOM_GPIO_SEL);
 398:.\Generated_Source\PSoC4/UARTCOMMS_UART.c ****     #endif /* (UARTCOMMS_UART_RTS_PIN) */
 399:.\Generated_Source\PSoC4/UARTCOMMS_UART.c **** 
 400:.\Generated_Source\PSoC4/UARTCOMMS_UART.c **** #endif /* (UARTCOMMS_SCB_MODE_UNCONFIG_CONST_CFG) */
 401:.\Generated_Source\PSoC4/UARTCOMMS_UART.c **** 
 402:.\Generated_Source\PSoC4/UARTCOMMS_UART.c **** #if (UARTCOMMS_UART_WAKE_ENABLE_CONST)
 403:.\Generated_Source\PSoC4/UARTCOMMS_UART.c ****     /* Disable skip start feature used for wakeup */
 404:.\Generated_Source\PSoC4/UARTCOMMS_UART.c ****     UARTCOMMS_UART_RX_CTRL_REG &= (uint32) ~UARTCOMMS_UART_RX_CTRL_SKIP_START;
 405:.\Generated_Source\PSoC4/UARTCOMMS_UART.c **** #endif /* (UARTCOMMS_UART_WAKE_ENABLE_CONST) */
 406:.\Generated_Source\PSoC4/UARTCOMMS_UART.c **** }
 182              		.loc 1 406 0
 183              		@ sp needed
 184 000a 7047     		bx	lr
 185              	.L9:
 186              		.align	2
 187              	.L8:
 188 000c 00000240 		.word	1073872896
 189 0010 FFFF0FFF 		.word	-15728641
 190              		.cfi_endproc
 191              	.LFE3:
 192              		.size	UARTCOMMS_UartStop, .-UARTCOMMS_UartStop
 193              		.section	.text.UARTCOMMS_UartSetRxAddress,"ax",%progbits
 194              		.align	2
 195              		.global	UARTCOMMS_UartSetRxAddress
 196              		.code	16
 197              		.thumb_func
 198              		.type	UARTCOMMS_UartSetRxAddress, %function
 199              	UARTCOMMS_UartSetRxAddress:
 200              	.LFB4:
 407:.\Generated_Source\PSoC4/UARTCOMMS_UART.c **** 
 408:.\Generated_Source\PSoC4/UARTCOMMS_UART.c **** 
 409:.\Generated_Source\PSoC4/UARTCOMMS_UART.c **** /*******************************************************************************
 410:.\Generated_Source\PSoC4/UARTCOMMS_UART.c **** * Function Name: UARTCOMMS_UartSetRxAddress
 411:.\Generated_Source\PSoC4/UARTCOMMS_UART.c **** ********************************************************************************
 412:.\Generated_Source\PSoC4/UARTCOMMS_UART.c **** *
 413:.\Generated_Source\PSoC4/UARTCOMMS_UART.c **** * Summary:
 414:.\Generated_Source\PSoC4/UARTCOMMS_UART.c **** *  Sets the hardware detectable receiver address for the UART in the
 415:.\Generated_Source\PSoC4/UARTCOMMS_UART.c **** *  Multiprocessor mode.
 416:.\Generated_Source\PSoC4/UARTCOMMS_UART.c **** *
 417:.\Generated_Source\PSoC4/UARTCOMMS_UART.c **** * Parameters:
 418:.\Generated_Source\PSoC4/UARTCOMMS_UART.c **** *  address: Address for hardware address detection.
 419:.\Generated_Source\PSoC4/UARTCOMMS_UART.c **** *
 420:.\Generated_Source\PSoC4/UARTCOMMS_UART.c **** * Return:
 421:.\Generated_Source\PSoC4/UARTCOMMS_UART.c **** *  None
 422:.\Generated_Source\PSoC4/UARTCOMMS_UART.c **** *
 423:.\Generated_Source\PSoC4/UARTCOMMS_UART.c **** *******************************************************************************/
 424:.\Generated_Source\PSoC4/UARTCOMMS_UART.c **** void UARTCOMMS_UartSetRxAddress(uint32 address)
 425:.\Generated_Source\PSoC4/UARTCOMMS_UART.c **** {
 201              		.loc 1 425 0
 202              		.cfi_startproc
ARM GAS  C:\Users\Tim\AppData\Local\Temp\ccqT7Ql0.s 			page 12


 203              	.LVL3:
 426:.\Generated_Source\PSoC4/UARTCOMMS_UART.c ****      uint32 matchReg;
 427:.\Generated_Source\PSoC4/UARTCOMMS_UART.c **** 
 428:.\Generated_Source\PSoC4/UARTCOMMS_UART.c ****     matchReg = UARTCOMMS_RX_MATCH_REG;
 204              		.loc 1 428 0
 205 0000 034A     		ldr	r2, .L11
 206 0002 1368     		ldr	r3, [r2]
 207              	.LVL4:
 429:.\Generated_Source\PSoC4/UARTCOMMS_UART.c **** 
 430:.\Generated_Source\PSoC4/UARTCOMMS_UART.c ****     matchReg &= ((uint32) ~UARTCOMMS_RX_MATCH_ADDR_MASK); /* Clear address bits */
 208              		.loc 1 430 0
 209 0004 FF21     		mov	r1, #255
 210 0006 8B43     		bic	r3, r1
 211              	.LVL5:
 431:.\Generated_Source\PSoC4/UARTCOMMS_UART.c ****     matchReg |= ((uint32)  (address & UARTCOMMS_RX_MATCH_ADDR_MASK)); /* Set address  */
 212              		.loc 1 431 0
 213 0008 0840     		and	r0, r1
 214              	.LVL6:
 215 000a 1843     		orr	r0, r3
 216              	.LVL7:
 432:.\Generated_Source\PSoC4/UARTCOMMS_UART.c **** 
 433:.\Generated_Source\PSoC4/UARTCOMMS_UART.c ****     UARTCOMMS_RX_MATCH_REG = matchReg;
 217              		.loc 1 433 0
 218 000c 1060     		str	r0, [r2]
 434:.\Generated_Source\PSoC4/UARTCOMMS_UART.c **** }
 219              		.loc 1 434 0
 220              		@ sp needed
 221 000e 7047     		bx	lr
 222              	.L12:
 223              		.align	2
 224              	.L11:
 225 0010 10032540 		.word	1076167440
 226              		.cfi_endproc
 227              	.LFE4:
 228              		.size	UARTCOMMS_UartSetRxAddress, .-UARTCOMMS_UartSetRxAddress
 229              		.section	.text.UARTCOMMS_UartSetRxAddressMask,"ax",%progbits
 230              		.align	2
 231              		.global	UARTCOMMS_UartSetRxAddressMask
 232              		.code	16
 233              		.thumb_func
 234              		.type	UARTCOMMS_UartSetRxAddressMask, %function
 235              	UARTCOMMS_UartSetRxAddressMask:
 236              	.LFB5:
 435:.\Generated_Source\PSoC4/UARTCOMMS_UART.c **** 
 436:.\Generated_Source\PSoC4/UARTCOMMS_UART.c **** 
 437:.\Generated_Source\PSoC4/UARTCOMMS_UART.c **** /*******************************************************************************
 438:.\Generated_Source\PSoC4/UARTCOMMS_UART.c **** * Function Name: UARTCOMMS_UartSetRxAddressMask
 439:.\Generated_Source\PSoC4/UARTCOMMS_UART.c **** ********************************************************************************
 440:.\Generated_Source\PSoC4/UARTCOMMS_UART.c **** *
 441:.\Generated_Source\PSoC4/UARTCOMMS_UART.c **** * Summary:
 442:.\Generated_Source\PSoC4/UARTCOMMS_UART.c **** *  Sets the hardware address mask for the UART in the Multiprocessor mode.
 443:.\Generated_Source\PSoC4/UARTCOMMS_UART.c **** *
 444:.\Generated_Source\PSoC4/UARTCOMMS_UART.c **** * Parameters:
 445:.\Generated_Source\PSoC4/UARTCOMMS_UART.c **** *  addressMask: Address mask.
 446:.\Generated_Source\PSoC4/UARTCOMMS_UART.c **** *   0 - address bit does not care while comparison.
 447:.\Generated_Source\PSoC4/UARTCOMMS_UART.c **** *   1 - address bit is significant while comparison.
 448:.\Generated_Source\PSoC4/UARTCOMMS_UART.c **** *
ARM GAS  C:\Users\Tim\AppData\Local\Temp\ccqT7Ql0.s 			page 13


 449:.\Generated_Source\PSoC4/UARTCOMMS_UART.c **** * Return:
 450:.\Generated_Source\PSoC4/UARTCOMMS_UART.c **** *  None
 451:.\Generated_Source\PSoC4/UARTCOMMS_UART.c **** *
 452:.\Generated_Source\PSoC4/UARTCOMMS_UART.c **** *******************************************************************************/
 453:.\Generated_Source\PSoC4/UARTCOMMS_UART.c **** void UARTCOMMS_UartSetRxAddressMask(uint32 addressMask)
 454:.\Generated_Source\PSoC4/UARTCOMMS_UART.c **** {
 237              		.loc 1 454 0
 238              		.cfi_startproc
 239              	.LVL8:
 455:.\Generated_Source\PSoC4/UARTCOMMS_UART.c ****     uint32 matchReg;
 456:.\Generated_Source\PSoC4/UARTCOMMS_UART.c **** 
 457:.\Generated_Source\PSoC4/UARTCOMMS_UART.c ****     matchReg = UARTCOMMS_RX_MATCH_REG;
 240              		.loc 1 457 0
 241 0000 034A     		ldr	r2, .L14
 242 0002 1168     		ldr	r1, [r2]
 243              	.LVL9:
 458:.\Generated_Source\PSoC4/UARTCOMMS_UART.c **** 
 459:.\Generated_Source\PSoC4/UARTCOMMS_UART.c ****     matchReg &= ((uint32) ~UARTCOMMS_RX_MATCH_MASK_MASK); /* Clear address mask bits */
 244              		.loc 1 459 0
 245 0004 034B     		ldr	r3, .L14+4
 246 0006 0B40     		and	r3, r1
 247              	.LVL10:
 460:.\Generated_Source\PSoC4/UARTCOMMS_UART.c ****     matchReg |= ((uint32) (addressMask << UARTCOMMS_RX_MATCH_MASK_POS));
 248              		.loc 1 460 0
 249 0008 0004     		lsl	r0, r0, #16
 250              	.LVL11:
 251 000a 1843     		orr	r0, r3
 252              	.LVL12:
 461:.\Generated_Source\PSoC4/UARTCOMMS_UART.c **** 
 462:.\Generated_Source\PSoC4/UARTCOMMS_UART.c ****     UARTCOMMS_RX_MATCH_REG = matchReg;
 253              		.loc 1 462 0
 254 000c 1060     		str	r0, [r2]
 463:.\Generated_Source\PSoC4/UARTCOMMS_UART.c **** }
 255              		.loc 1 463 0
 256              		@ sp needed
 257 000e 7047     		bx	lr
 258              	.L15:
 259              		.align	2
 260              	.L14:
 261 0010 10032540 		.word	1076167440
 262 0014 FFFF00FF 		.word	-16711681
 263              		.cfi_endproc
 264              	.LFE5:
 265              		.size	UARTCOMMS_UartSetRxAddressMask, .-UARTCOMMS_UartSetRxAddressMask
 266              		.section	.text.UARTCOMMS_UartPutString,"ax",%progbits
 267              		.align	2
 268              		.global	UARTCOMMS_UartPutString
 269              		.code	16
 270              		.thumb_func
 271              		.type	UARTCOMMS_UartPutString, %function
 272              	UARTCOMMS_UartPutString:
 273              	.LFB6:
 464:.\Generated_Source\PSoC4/UARTCOMMS_UART.c **** 
 465:.\Generated_Source\PSoC4/UARTCOMMS_UART.c **** 
 466:.\Generated_Source\PSoC4/UARTCOMMS_UART.c **** #if(UARTCOMMS_UART_RX_DIRECTION)
 467:.\Generated_Source\PSoC4/UARTCOMMS_UART.c ****     /*******************************************************************************
 468:.\Generated_Source\PSoC4/UARTCOMMS_UART.c ****     * Function Name: UARTCOMMS_UartGetChar
ARM GAS  C:\Users\Tim\AppData\Local\Temp\ccqT7Ql0.s 			page 14


 469:.\Generated_Source\PSoC4/UARTCOMMS_UART.c ****     ********************************************************************************
 470:.\Generated_Source\PSoC4/UARTCOMMS_UART.c ****     *
 471:.\Generated_Source\PSoC4/UARTCOMMS_UART.c ****     * Summary:
 472:.\Generated_Source\PSoC4/UARTCOMMS_UART.c ****     *  Retrieves the next data element from the receive buffer.
 473:.\Generated_Source\PSoC4/UARTCOMMS_UART.c ****     *  This function is designed for ASCII characters and returns a char
 474:.\Generated_Source\PSoC4/UARTCOMMS_UART.c ****     *  where 1 to 255 are valid characters and 0 indicates an error occurred or
 475:.\Generated_Source\PSoC4/UARTCOMMS_UART.c ****     *  no data present.
 476:.\Generated_Source\PSoC4/UARTCOMMS_UART.c ****     *  - The RX software buffer is disabled: returns the data element
 477:.\Generated_Source\PSoC4/UARTCOMMS_UART.c ****     *    retrieved from the RX FIFO.
 478:.\Generated_Source\PSoC4/UARTCOMMS_UART.c ****     *    Undefined data will be returned if the RX FIFO is empty.
 479:.\Generated_Source\PSoC4/UARTCOMMS_UART.c ****     *  - The RX software buffer is enabled: returns the data element from
 480:.\Generated_Source\PSoC4/UARTCOMMS_UART.c ****     *    the software receive buffer.
 481:.\Generated_Source\PSoC4/UARTCOMMS_UART.c ****     *
 482:.\Generated_Source\PSoC4/UARTCOMMS_UART.c ****     * Parameters:
 483:.\Generated_Source\PSoC4/UARTCOMMS_UART.c ****     *  None
 484:.\Generated_Source\PSoC4/UARTCOMMS_UART.c ****     *
 485:.\Generated_Source\PSoC4/UARTCOMMS_UART.c ****     * Return:
 486:.\Generated_Source\PSoC4/UARTCOMMS_UART.c ****     *  The next data element from the receive buffer.
 487:.\Generated_Source\PSoC4/UARTCOMMS_UART.c ****     *  ASCII character values from 1 to 255 are valid.
 488:.\Generated_Source\PSoC4/UARTCOMMS_UART.c ****     *  A returned zero signifies an error condition or no data available.
 489:.\Generated_Source\PSoC4/UARTCOMMS_UART.c ****     *
 490:.\Generated_Source\PSoC4/UARTCOMMS_UART.c ****     * Side Effects:
 491:.\Generated_Source\PSoC4/UARTCOMMS_UART.c ****     *  The errors bits may not correspond with reading characters due to RX FIFO
 492:.\Generated_Source\PSoC4/UARTCOMMS_UART.c ****     *  and software buffer usage.
 493:.\Generated_Source\PSoC4/UARTCOMMS_UART.c ****     *  RX software buffer is enabled: The internal software buffer overflow
 494:.\Generated_Source\PSoC4/UARTCOMMS_UART.c ****     *  does not treat as an error condition.
 495:.\Generated_Source\PSoC4/UARTCOMMS_UART.c ****     *  Check SCB_rxBufferOverflow to capture that error condition.
 496:.\Generated_Source\PSoC4/UARTCOMMS_UART.c ****     *
 497:.\Generated_Source\PSoC4/UARTCOMMS_UART.c ****     *******************************************************************************/
 498:.\Generated_Source\PSoC4/UARTCOMMS_UART.c ****     uint32 UARTCOMMS_UartGetChar(void)
 499:.\Generated_Source\PSoC4/UARTCOMMS_UART.c ****     {
 500:.\Generated_Source\PSoC4/UARTCOMMS_UART.c ****         uint32 rxData = 0u;
 501:.\Generated_Source\PSoC4/UARTCOMMS_UART.c **** 
 502:.\Generated_Source\PSoC4/UARTCOMMS_UART.c ****         /* Reads data only if there is data to read */
 503:.\Generated_Source\PSoC4/UARTCOMMS_UART.c ****         if (0u != UARTCOMMS_SpiUartGetRxBufferSize())
 504:.\Generated_Source\PSoC4/UARTCOMMS_UART.c ****         {
 505:.\Generated_Source\PSoC4/UARTCOMMS_UART.c ****             rxData = UARTCOMMS_SpiUartReadRxData();
 506:.\Generated_Source\PSoC4/UARTCOMMS_UART.c ****         }
 507:.\Generated_Source\PSoC4/UARTCOMMS_UART.c **** 
 508:.\Generated_Source\PSoC4/UARTCOMMS_UART.c ****         if (UARTCOMMS_CHECK_INTR_RX(UARTCOMMS_INTR_RX_ERR))
 509:.\Generated_Source\PSoC4/UARTCOMMS_UART.c ****         {
 510:.\Generated_Source\PSoC4/UARTCOMMS_UART.c ****             rxData = 0u; /* Error occurred: returns zero */
 511:.\Generated_Source\PSoC4/UARTCOMMS_UART.c ****             UARTCOMMS_ClearRxInterruptSource(UARTCOMMS_INTR_RX_ERR);
 512:.\Generated_Source\PSoC4/UARTCOMMS_UART.c ****         }
 513:.\Generated_Source\PSoC4/UARTCOMMS_UART.c **** 
 514:.\Generated_Source\PSoC4/UARTCOMMS_UART.c ****         return (rxData);
 515:.\Generated_Source\PSoC4/UARTCOMMS_UART.c ****     }
 516:.\Generated_Source\PSoC4/UARTCOMMS_UART.c **** 
 517:.\Generated_Source\PSoC4/UARTCOMMS_UART.c **** 
 518:.\Generated_Source\PSoC4/UARTCOMMS_UART.c ****     /*******************************************************************************
 519:.\Generated_Source\PSoC4/UARTCOMMS_UART.c ****     * Function Name: UARTCOMMS_UartGetByte
 520:.\Generated_Source\PSoC4/UARTCOMMS_UART.c ****     ********************************************************************************
 521:.\Generated_Source\PSoC4/UARTCOMMS_UART.c ****     *
 522:.\Generated_Source\PSoC4/UARTCOMMS_UART.c ****     * Summary:
 523:.\Generated_Source\PSoC4/UARTCOMMS_UART.c ****     *  Retrieves the next data element from the receive buffer, returns the
 524:.\Generated_Source\PSoC4/UARTCOMMS_UART.c ****     *  received byte and error condition.
 525:.\Generated_Source\PSoC4/UARTCOMMS_UART.c ****     *   - The RX software buffer is disabled: returns the data element retrieved
ARM GAS  C:\Users\Tim\AppData\Local\Temp\ccqT7Ql0.s 			page 15


 526:.\Generated_Source\PSoC4/UARTCOMMS_UART.c ****     *     from the RX FIFO. Undefined data will be returned if the RX FIFO is
 527:.\Generated_Source\PSoC4/UARTCOMMS_UART.c ****     *     empty.
 528:.\Generated_Source\PSoC4/UARTCOMMS_UART.c ****     *   - The RX software buffer is enabled: returns data element from the
 529:.\Generated_Source\PSoC4/UARTCOMMS_UART.c ****     *     software receive buffer.
 530:.\Generated_Source\PSoC4/UARTCOMMS_UART.c ****     *
 531:.\Generated_Source\PSoC4/UARTCOMMS_UART.c ****     * Parameters:
 532:.\Generated_Source\PSoC4/UARTCOMMS_UART.c ****     *  None
 533:.\Generated_Source\PSoC4/UARTCOMMS_UART.c ****     *
 534:.\Generated_Source\PSoC4/UARTCOMMS_UART.c ****     * Return:
 535:.\Generated_Source\PSoC4/UARTCOMMS_UART.c ****     *  Bits 7-0 contain the next data element from the receive buffer and
 536:.\Generated_Source\PSoC4/UARTCOMMS_UART.c ****     *  other bits contain the error condition.
 537:.\Generated_Source\PSoC4/UARTCOMMS_UART.c ****     *
 538:.\Generated_Source\PSoC4/UARTCOMMS_UART.c ****     * Side Effects:
 539:.\Generated_Source\PSoC4/UARTCOMMS_UART.c ****     *  The errors bits may not correspond with reading characters due to RX FIFO
 540:.\Generated_Source\PSoC4/UARTCOMMS_UART.c ****     *  and software buffer usage.
 541:.\Generated_Source\PSoC4/UARTCOMMS_UART.c ****     *  RX software buffer is disabled: The internal software buffer overflow
 542:.\Generated_Source\PSoC4/UARTCOMMS_UART.c ****     *  is not returned as status by this function.
 543:.\Generated_Source\PSoC4/UARTCOMMS_UART.c ****     *  Check SCB_rxBufferOverflow to capture that error condition.
 544:.\Generated_Source\PSoC4/UARTCOMMS_UART.c ****     *
 545:.\Generated_Source\PSoC4/UARTCOMMS_UART.c ****     *******************************************************************************/
 546:.\Generated_Source\PSoC4/UARTCOMMS_UART.c ****     uint32 UARTCOMMS_UartGetByte(void)
 547:.\Generated_Source\PSoC4/UARTCOMMS_UART.c ****     {
 548:.\Generated_Source\PSoC4/UARTCOMMS_UART.c ****         uint32 rxData;
 549:.\Generated_Source\PSoC4/UARTCOMMS_UART.c ****         uint32 tmpStatus;
 550:.\Generated_Source\PSoC4/UARTCOMMS_UART.c **** 
 551:.\Generated_Source\PSoC4/UARTCOMMS_UART.c ****         #if (UARTCOMMS_CHECK_RX_SW_BUFFER)
 552:.\Generated_Source\PSoC4/UARTCOMMS_UART.c ****         {
 553:.\Generated_Source\PSoC4/UARTCOMMS_UART.c ****             UARTCOMMS_DisableInt();
 554:.\Generated_Source\PSoC4/UARTCOMMS_UART.c ****         }
 555:.\Generated_Source\PSoC4/UARTCOMMS_UART.c ****         #endif
 556:.\Generated_Source\PSoC4/UARTCOMMS_UART.c **** 
 557:.\Generated_Source\PSoC4/UARTCOMMS_UART.c ****         if (0u != UARTCOMMS_SpiUartGetRxBufferSize())
 558:.\Generated_Source\PSoC4/UARTCOMMS_UART.c ****         {
 559:.\Generated_Source\PSoC4/UARTCOMMS_UART.c ****             /* Enables interrupt to receive more bytes: at least one byte is in
 560:.\Generated_Source\PSoC4/UARTCOMMS_UART.c ****             * buffer.
 561:.\Generated_Source\PSoC4/UARTCOMMS_UART.c ****             */
 562:.\Generated_Source\PSoC4/UARTCOMMS_UART.c ****             #if (UARTCOMMS_CHECK_RX_SW_BUFFER)
 563:.\Generated_Source\PSoC4/UARTCOMMS_UART.c ****             {            
 564:.\Generated_Source\PSoC4/UARTCOMMS_UART.c ****                 UARTCOMMS_EnableInt();
 565:.\Generated_Source\PSoC4/UARTCOMMS_UART.c ****             }
 566:.\Generated_Source\PSoC4/UARTCOMMS_UART.c ****             #endif
 567:.\Generated_Source\PSoC4/UARTCOMMS_UART.c **** 
 568:.\Generated_Source\PSoC4/UARTCOMMS_UART.c ****             /* Get received byte */
 569:.\Generated_Source\PSoC4/UARTCOMMS_UART.c ****             rxData = UARTCOMMS_SpiUartReadRxData();
 570:.\Generated_Source\PSoC4/UARTCOMMS_UART.c ****         }
 571:.\Generated_Source\PSoC4/UARTCOMMS_UART.c ****         else
 572:.\Generated_Source\PSoC4/UARTCOMMS_UART.c ****         {
 573:.\Generated_Source\PSoC4/UARTCOMMS_UART.c ****             /* Reads a byte directly from RX FIFO: underflow is raised in the case
 574:.\Generated_Source\PSoC4/UARTCOMMS_UART.c ****             * of empty. Otherwise the first received byte will be read.
 575:.\Generated_Source\PSoC4/UARTCOMMS_UART.c ****             */
 576:.\Generated_Source\PSoC4/UARTCOMMS_UART.c ****             rxData = UARTCOMMS_RX_FIFO_RD_REG;
 577:.\Generated_Source\PSoC4/UARTCOMMS_UART.c **** 
 578:.\Generated_Source\PSoC4/UARTCOMMS_UART.c ****             /* Enables interrupt to receive more bytes.
 579:.\Generated_Source\PSoC4/UARTCOMMS_UART.c ****             * The RX_NOT_EMPTY interrupt is cleared by the interrupt routine
 580:.\Generated_Source\PSoC4/UARTCOMMS_UART.c ****             * in case the byte was received and read by code above.
 581:.\Generated_Source\PSoC4/UARTCOMMS_UART.c ****             */
 582:.\Generated_Source\PSoC4/UARTCOMMS_UART.c ****             #if (UARTCOMMS_CHECK_RX_SW_BUFFER)
ARM GAS  C:\Users\Tim\AppData\Local\Temp\ccqT7Ql0.s 			page 16


 583:.\Generated_Source\PSoC4/UARTCOMMS_UART.c ****             {
 584:.\Generated_Source\PSoC4/UARTCOMMS_UART.c ****                 UARTCOMMS_EnableInt();
 585:.\Generated_Source\PSoC4/UARTCOMMS_UART.c ****             }
 586:.\Generated_Source\PSoC4/UARTCOMMS_UART.c ****             #endif
 587:.\Generated_Source\PSoC4/UARTCOMMS_UART.c ****         }
 588:.\Generated_Source\PSoC4/UARTCOMMS_UART.c **** 
 589:.\Generated_Source\PSoC4/UARTCOMMS_UART.c ****         /* Get and clear RX error mask */
 590:.\Generated_Source\PSoC4/UARTCOMMS_UART.c ****         tmpStatus = (UARTCOMMS_GetRxInterruptSource() & UARTCOMMS_INTR_RX_ERR);
 591:.\Generated_Source\PSoC4/UARTCOMMS_UART.c ****         UARTCOMMS_ClearRxInterruptSource(UARTCOMMS_INTR_RX_ERR);
 592:.\Generated_Source\PSoC4/UARTCOMMS_UART.c **** 
 593:.\Generated_Source\PSoC4/UARTCOMMS_UART.c ****         /* Puts together data and error status:
 594:.\Generated_Source\PSoC4/UARTCOMMS_UART.c ****         * MP mode and accept address: 9th bit is set to notify mark.
 595:.\Generated_Source\PSoC4/UARTCOMMS_UART.c ****         */
 596:.\Generated_Source\PSoC4/UARTCOMMS_UART.c ****         rxData |= ((uint32) (tmpStatus << 8u));
 597:.\Generated_Source\PSoC4/UARTCOMMS_UART.c **** 
 598:.\Generated_Source\PSoC4/UARTCOMMS_UART.c ****         return (rxData);
 599:.\Generated_Source\PSoC4/UARTCOMMS_UART.c ****     }
 600:.\Generated_Source\PSoC4/UARTCOMMS_UART.c **** 
 601:.\Generated_Source\PSoC4/UARTCOMMS_UART.c **** 
 602:.\Generated_Source\PSoC4/UARTCOMMS_UART.c ****     #if !(UARTCOMMS_CY_SCBIP_V0 || UARTCOMMS_CY_SCBIP_V1)
 603:.\Generated_Source\PSoC4/UARTCOMMS_UART.c ****         /*******************************************************************************
 604:.\Generated_Source\PSoC4/UARTCOMMS_UART.c ****         * Function Name: UARTCOMMS_UartSetRtsPolarity
 605:.\Generated_Source\PSoC4/UARTCOMMS_UART.c ****         ********************************************************************************
 606:.\Generated_Source\PSoC4/UARTCOMMS_UART.c ****         *
 607:.\Generated_Source\PSoC4/UARTCOMMS_UART.c ****         * Summary:
 608:.\Generated_Source\PSoC4/UARTCOMMS_UART.c ****         *  Sets active polarity of RTS output signal.
 609:.\Generated_Source\PSoC4/UARTCOMMS_UART.c ****         *
 610:.\Generated_Source\PSoC4/UARTCOMMS_UART.c ****         * Parameters:
 611:.\Generated_Source\PSoC4/UARTCOMMS_UART.c ****         *  polarity: Active polarity of RTS output signal.
 612:.\Generated_Source\PSoC4/UARTCOMMS_UART.c ****         *   UARTCOMMS_UART_RTS_ACTIVE_LOW  - RTS signal is active low.
 613:.\Generated_Source\PSoC4/UARTCOMMS_UART.c ****         *   UARTCOMMS_UART_RTS_ACTIVE_HIGH - RTS signal is active high.
 614:.\Generated_Source\PSoC4/UARTCOMMS_UART.c ****         *
 615:.\Generated_Source\PSoC4/UARTCOMMS_UART.c ****         * Return:
 616:.\Generated_Source\PSoC4/UARTCOMMS_UART.c ****         *  None
 617:.\Generated_Source\PSoC4/UARTCOMMS_UART.c ****         *
 618:.\Generated_Source\PSoC4/UARTCOMMS_UART.c ****         *******************************************************************************/
 619:.\Generated_Source\PSoC4/UARTCOMMS_UART.c ****         void UARTCOMMS_UartSetRtsPolarity(uint32 polarity)
 620:.\Generated_Source\PSoC4/UARTCOMMS_UART.c ****         {
 621:.\Generated_Source\PSoC4/UARTCOMMS_UART.c ****             if(0u != polarity)
 622:.\Generated_Source\PSoC4/UARTCOMMS_UART.c ****             {
 623:.\Generated_Source\PSoC4/UARTCOMMS_UART.c ****                 UARTCOMMS_UART_FLOW_CTRL_REG |= (uint32)  UARTCOMMS_UART_FLOW_CTRL_RTS_POLARITY;
 624:.\Generated_Source\PSoC4/UARTCOMMS_UART.c ****             }
 625:.\Generated_Source\PSoC4/UARTCOMMS_UART.c ****             else
 626:.\Generated_Source\PSoC4/UARTCOMMS_UART.c ****             {
 627:.\Generated_Source\PSoC4/UARTCOMMS_UART.c ****                 UARTCOMMS_UART_FLOW_CTRL_REG &= (uint32) ~UARTCOMMS_UART_FLOW_CTRL_RTS_POLARITY;
 628:.\Generated_Source\PSoC4/UARTCOMMS_UART.c ****             }
 629:.\Generated_Source\PSoC4/UARTCOMMS_UART.c ****         }
 630:.\Generated_Source\PSoC4/UARTCOMMS_UART.c **** 
 631:.\Generated_Source\PSoC4/UARTCOMMS_UART.c **** 
 632:.\Generated_Source\PSoC4/UARTCOMMS_UART.c ****         /*******************************************************************************
 633:.\Generated_Source\PSoC4/UARTCOMMS_UART.c ****         * Function Name: UARTCOMMS_UartSetRtsFifoLevel
 634:.\Generated_Source\PSoC4/UARTCOMMS_UART.c ****         ********************************************************************************
 635:.\Generated_Source\PSoC4/UARTCOMMS_UART.c ****         *
 636:.\Generated_Source\PSoC4/UARTCOMMS_UART.c ****         * Summary:
 637:.\Generated_Source\PSoC4/UARTCOMMS_UART.c ****         *  Sets level in the RX FIFO for RTS signal activation.
 638:.\Generated_Source\PSoC4/UARTCOMMS_UART.c ****         *  While the RX FIFO has fewer entries than the RX FIFO level the RTS signal
 639:.\Generated_Source\PSoC4/UARTCOMMS_UART.c ****         *  remains active, otherwise the RTS signal becomes inactive.
ARM GAS  C:\Users\Tim\AppData\Local\Temp\ccqT7Ql0.s 			page 17


 640:.\Generated_Source\PSoC4/UARTCOMMS_UART.c ****         *
 641:.\Generated_Source\PSoC4/UARTCOMMS_UART.c ****         * Parameters:
 642:.\Generated_Source\PSoC4/UARTCOMMS_UART.c ****         *  level: Level in the RX FIFO for RTS signal activation.
 643:.\Generated_Source\PSoC4/UARTCOMMS_UART.c ****         *         The range of valid level values is between 0 and RX FIFO depth - 1.
 644:.\Generated_Source\PSoC4/UARTCOMMS_UART.c ****         *         Setting level value to 0 disables RTS signal activation.
 645:.\Generated_Source\PSoC4/UARTCOMMS_UART.c ****         *
 646:.\Generated_Source\PSoC4/UARTCOMMS_UART.c ****         * Return:
 647:.\Generated_Source\PSoC4/UARTCOMMS_UART.c ****         *  None
 648:.\Generated_Source\PSoC4/UARTCOMMS_UART.c ****         *
 649:.\Generated_Source\PSoC4/UARTCOMMS_UART.c ****         *******************************************************************************/
 650:.\Generated_Source\PSoC4/UARTCOMMS_UART.c ****         void UARTCOMMS_UartSetRtsFifoLevel(uint32 level)
 651:.\Generated_Source\PSoC4/UARTCOMMS_UART.c ****         {
 652:.\Generated_Source\PSoC4/UARTCOMMS_UART.c ****             uint32 uartFlowCtrl;
 653:.\Generated_Source\PSoC4/UARTCOMMS_UART.c **** 
 654:.\Generated_Source\PSoC4/UARTCOMMS_UART.c ****             uartFlowCtrl = UARTCOMMS_UART_FLOW_CTRL_REG;
 655:.\Generated_Source\PSoC4/UARTCOMMS_UART.c **** 
 656:.\Generated_Source\PSoC4/UARTCOMMS_UART.c ****             uartFlowCtrl &= ((uint32) ~UARTCOMMS_UART_FLOW_CTRL_TRIGGER_LEVEL_MASK); /* Clear level
 657:.\Generated_Source\PSoC4/UARTCOMMS_UART.c ****             uartFlowCtrl |= ((uint32) (UARTCOMMS_UART_FLOW_CTRL_TRIGGER_LEVEL_MASK & level));
 658:.\Generated_Source\PSoC4/UARTCOMMS_UART.c **** 
 659:.\Generated_Source\PSoC4/UARTCOMMS_UART.c ****             UARTCOMMS_UART_FLOW_CTRL_REG = uartFlowCtrl;
 660:.\Generated_Source\PSoC4/UARTCOMMS_UART.c ****         }
 661:.\Generated_Source\PSoC4/UARTCOMMS_UART.c ****     #endif /* !(UARTCOMMS_CY_SCBIP_V0 || UARTCOMMS_CY_SCBIP_V1) */
 662:.\Generated_Source\PSoC4/UARTCOMMS_UART.c **** 
 663:.\Generated_Source\PSoC4/UARTCOMMS_UART.c **** #endif /* (UARTCOMMS_UART_RX_DIRECTION) */
 664:.\Generated_Source\PSoC4/UARTCOMMS_UART.c **** 
 665:.\Generated_Source\PSoC4/UARTCOMMS_UART.c **** 
 666:.\Generated_Source\PSoC4/UARTCOMMS_UART.c **** #if(UARTCOMMS_UART_TX_DIRECTION)
 667:.\Generated_Source\PSoC4/UARTCOMMS_UART.c ****     /*******************************************************************************
 668:.\Generated_Source\PSoC4/UARTCOMMS_UART.c ****     * Function Name: UARTCOMMS_UartPutString
 669:.\Generated_Source\PSoC4/UARTCOMMS_UART.c ****     ********************************************************************************
 670:.\Generated_Source\PSoC4/UARTCOMMS_UART.c ****     *
 671:.\Generated_Source\PSoC4/UARTCOMMS_UART.c ****     * Summary:
 672:.\Generated_Source\PSoC4/UARTCOMMS_UART.c ****     *  Places a NULL terminated string in the transmit buffer to be sent at the
 673:.\Generated_Source\PSoC4/UARTCOMMS_UART.c ****     *  next available bus time.
 674:.\Generated_Source\PSoC4/UARTCOMMS_UART.c ****     *  This function is blocking and waits until there is space available to put
 675:.\Generated_Source\PSoC4/UARTCOMMS_UART.c ****     *  all the requested data into the  transmit buffer.
 676:.\Generated_Source\PSoC4/UARTCOMMS_UART.c ****     *
 677:.\Generated_Source\PSoC4/UARTCOMMS_UART.c ****     * Parameters:
 678:.\Generated_Source\PSoC4/UARTCOMMS_UART.c ****     *  string: pointer to the null terminated string array to be placed in the
 679:.\Generated_Source\PSoC4/UARTCOMMS_UART.c ****     *          transmit buffer.
 680:.\Generated_Source\PSoC4/UARTCOMMS_UART.c ****     *
 681:.\Generated_Source\PSoC4/UARTCOMMS_UART.c ****     * Return:
 682:.\Generated_Source\PSoC4/UARTCOMMS_UART.c ****     *  None
 683:.\Generated_Source\PSoC4/UARTCOMMS_UART.c ****     *
 684:.\Generated_Source\PSoC4/UARTCOMMS_UART.c ****     *******************************************************************************/
 685:.\Generated_Source\PSoC4/UARTCOMMS_UART.c ****     void UARTCOMMS_UartPutString(const char8 string[])
 686:.\Generated_Source\PSoC4/UARTCOMMS_UART.c ****     {
 274              		.loc 1 686 0
 275              		.cfi_startproc
 276              	.LVL13:
 277 0000 38B5     		push	{r3, r4, r5, lr}
 278              		.cfi_def_cfa_offset 16
 279              		.cfi_offset 3, -16
 280              		.cfi_offset 4, -12
 281              		.cfi_offset 5, -8
 282              		.cfi_offset 14, -4
 283 0002 051C     		mov	r5, r0
ARM GAS  C:\Users\Tim\AppData\Local\Temp\ccqT7Ql0.s 			page 18


 284              	.LVL14:
 687:.\Generated_Source\PSoC4/UARTCOMMS_UART.c ****         uint32 bufIndex;
 688:.\Generated_Source\PSoC4/UARTCOMMS_UART.c **** 
 689:.\Generated_Source\PSoC4/UARTCOMMS_UART.c ****         bufIndex = 0u;
 285              		.loc 1 689 0
 286 0004 0024     		mov	r4, #0
 690:.\Generated_Source\PSoC4/UARTCOMMS_UART.c **** 
 691:.\Generated_Source\PSoC4/UARTCOMMS_UART.c ****         /* Blocks the control flow until all data has been sent */
 692:.\Generated_Source\PSoC4/UARTCOMMS_UART.c ****         while(string[bufIndex] != ((char8) 0))
 287              		.loc 1 692 0
 288 0006 02E0     		b	.L17
 289              	.LVL15:
 290              	.L18:
 693:.\Generated_Source\PSoC4/UARTCOMMS_UART.c ****         {
 694:.\Generated_Source\PSoC4/UARTCOMMS_UART.c ****             UARTCOMMS_UartPutChar((uint32) string[bufIndex]);
 291              		.loc 1 694 0
 292 0008 FFF7FEFF 		bl	UARTCOMMS_SpiUartWriteTxData
 293              	.LVL16:
 695:.\Generated_Source\PSoC4/UARTCOMMS_UART.c ****             bufIndex++;
 294              		.loc 1 695 0
 295 000c 0134     		add	r4, r4, #1
 296              	.LVL17:
 297              	.L17:
 692:.\Generated_Source\PSoC4/UARTCOMMS_UART.c ****         {
 298              		.loc 1 692 0
 299 000e 285D     		ldrb	r0, [r5, r4]
 300 0010 0028     		cmp	r0, #0
 301 0012 F9D1     		bne	.L18
 696:.\Generated_Source\PSoC4/UARTCOMMS_UART.c ****         }
 697:.\Generated_Source\PSoC4/UARTCOMMS_UART.c ****     }
 302              		.loc 1 697 0
 303              		@ sp needed
 304              	.LVL18:
 305              	.LVL19:
 306 0014 38BD     		pop	{r3, r4, r5, pc}
 307              		.cfi_endproc
 308              	.LFE6:
 309              		.size	UARTCOMMS_UartPutString, .-UARTCOMMS_UartPutString
 310 0016 C046     		.section	.text.UARTCOMMS_UartPutCRLF,"ax",%progbits
 311              		.align	2
 312              		.global	UARTCOMMS_UartPutCRLF
 313              		.code	16
 314              		.thumb_func
 315              		.type	UARTCOMMS_UartPutCRLF, %function
 316              	UARTCOMMS_UartPutCRLF:
 317              	.LFB7:
 698:.\Generated_Source\PSoC4/UARTCOMMS_UART.c **** 
 699:.\Generated_Source\PSoC4/UARTCOMMS_UART.c **** 
 700:.\Generated_Source\PSoC4/UARTCOMMS_UART.c ****     /*******************************************************************************
 701:.\Generated_Source\PSoC4/UARTCOMMS_UART.c ****     * Function Name: UARTCOMMS_UartPutCRLF
 702:.\Generated_Source\PSoC4/UARTCOMMS_UART.c ****     ********************************************************************************
 703:.\Generated_Source\PSoC4/UARTCOMMS_UART.c ****     *
 704:.\Generated_Source\PSoC4/UARTCOMMS_UART.c ****     * Summary:
 705:.\Generated_Source\PSoC4/UARTCOMMS_UART.c ****     *  Places a byte of data followed by a carriage return (0x0D) and
 706:.\Generated_Source\PSoC4/UARTCOMMS_UART.c ****     *  line feed (0x0A) into the transmit buffer.
 707:.\Generated_Source\PSoC4/UARTCOMMS_UART.c ****     *  This function is blocking and waits until there is space available to put
 708:.\Generated_Source\PSoC4/UARTCOMMS_UART.c ****     *  all the requested data into the  transmit buffer.
ARM GAS  C:\Users\Tim\AppData\Local\Temp\ccqT7Ql0.s 			page 19


 709:.\Generated_Source\PSoC4/UARTCOMMS_UART.c ****     *
 710:.\Generated_Source\PSoC4/UARTCOMMS_UART.c ****     * Parameters:
 711:.\Generated_Source\PSoC4/UARTCOMMS_UART.c ****     *  txDataByte : the data to be transmitted.
 712:.\Generated_Source\PSoC4/UARTCOMMS_UART.c ****     *
 713:.\Generated_Source\PSoC4/UARTCOMMS_UART.c ****     * Return:
 714:.\Generated_Source\PSoC4/UARTCOMMS_UART.c ****     *  None
 715:.\Generated_Source\PSoC4/UARTCOMMS_UART.c ****     *
 716:.\Generated_Source\PSoC4/UARTCOMMS_UART.c ****     *******************************************************************************/
 717:.\Generated_Source\PSoC4/UARTCOMMS_UART.c ****     void UARTCOMMS_UartPutCRLF(uint32 txDataByte)
 718:.\Generated_Source\PSoC4/UARTCOMMS_UART.c ****     {
 318              		.loc 1 718 0
 319              		.cfi_startproc
 320              	.LVL20:
 321 0000 08B5     		push	{r3, lr}
 322              		.cfi_def_cfa_offset 8
 323              		.cfi_offset 3, -8
 324              		.cfi_offset 14, -4
 719:.\Generated_Source\PSoC4/UARTCOMMS_UART.c ****         UARTCOMMS_UartPutChar(txDataByte);  /* Blocks control flow until all data has been sent */
 325              		.loc 1 719 0
 326 0002 FFF7FEFF 		bl	UARTCOMMS_SpiUartWriteTxData
 327              	.LVL21:
 720:.\Generated_Source\PSoC4/UARTCOMMS_UART.c ****         UARTCOMMS_UartPutChar(0x0Du);       /* Blocks control flow until all data has been sent */
 328              		.loc 1 720 0
 329 0006 0D20     		mov	r0, #13
 330 0008 FFF7FEFF 		bl	UARTCOMMS_SpiUartWriteTxData
 331              	.LVL22:
 721:.\Generated_Source\PSoC4/UARTCOMMS_UART.c ****         UARTCOMMS_UartPutChar(0x0Au);       /* Blocks control flow until all data has been sent */
 332              		.loc 1 721 0
 333 000c 0A20     		mov	r0, #10
 334 000e FFF7FEFF 		bl	UARTCOMMS_SpiUartWriteTxData
 335              	.LVL23:
 722:.\Generated_Source\PSoC4/UARTCOMMS_UART.c ****     }
 336              		.loc 1 722 0
 337              		@ sp needed
 338 0012 08BD     		pop	{r3, pc}
 339              		.cfi_endproc
 340              	.LFE7:
 341              		.size	UARTCOMMS_UartPutCRLF, .-UARTCOMMS_UartPutCRLF
 342              		.section	.text.UARTCOMMS_UartEnableCts,"ax",%progbits
 343              		.align	2
 344              		.global	UARTCOMMS_UartEnableCts
 345              		.code	16
 346              		.thumb_func
 347              		.type	UARTCOMMS_UartEnableCts, %function
 348              	UARTCOMMS_UartEnableCts:
 349              	.LFB8:
 723:.\Generated_Source\PSoC4/UARTCOMMS_UART.c **** 
 724:.\Generated_Source\PSoC4/UARTCOMMS_UART.c **** 
 725:.\Generated_Source\PSoC4/UARTCOMMS_UART.c ****     #if !(UARTCOMMS_CY_SCBIP_V0 || UARTCOMMS_CY_SCBIP_V1)
 726:.\Generated_Source\PSoC4/UARTCOMMS_UART.c ****         /*******************************************************************************
 727:.\Generated_Source\PSoC4/UARTCOMMS_UART.c ****         * Function Name: UARTCOMMSSCB_UartEnableCts
 728:.\Generated_Source\PSoC4/UARTCOMMS_UART.c ****         ********************************************************************************
 729:.\Generated_Source\PSoC4/UARTCOMMS_UART.c ****         *
 730:.\Generated_Source\PSoC4/UARTCOMMS_UART.c ****         * Summary:
 731:.\Generated_Source\PSoC4/UARTCOMMS_UART.c ****         *  Enables usage of CTS input signal by the UART transmitter.
 732:.\Generated_Source\PSoC4/UARTCOMMS_UART.c ****         *
 733:.\Generated_Source\PSoC4/UARTCOMMS_UART.c ****         * Parameters:
ARM GAS  C:\Users\Tim\AppData\Local\Temp\ccqT7Ql0.s 			page 20


 734:.\Generated_Source\PSoC4/UARTCOMMS_UART.c ****         *  None
 735:.\Generated_Source\PSoC4/UARTCOMMS_UART.c ****         *
 736:.\Generated_Source\PSoC4/UARTCOMMS_UART.c ****         * Return:
 737:.\Generated_Source\PSoC4/UARTCOMMS_UART.c ****         *  None
 738:.\Generated_Source\PSoC4/UARTCOMMS_UART.c ****         *
 739:.\Generated_Source\PSoC4/UARTCOMMS_UART.c ****         *******************************************************************************/
 740:.\Generated_Source\PSoC4/UARTCOMMS_UART.c ****         void UARTCOMMS_UartEnableCts(void)
 741:.\Generated_Source\PSoC4/UARTCOMMS_UART.c ****         {
 350              		.loc 1 741 0
 351              		.cfi_startproc
 742:.\Generated_Source\PSoC4/UARTCOMMS_UART.c ****             UARTCOMMS_UART_FLOW_CTRL_REG |= (uint32)  UARTCOMMS_UART_FLOW_CTRL_CTS_ENABLE;
 352              		.loc 1 742 0
 353 0000 034A     		ldr	r2, .L21
 354 0002 1368     		ldr	r3, [r2]
 355 0004 8021     		mov	r1, #128
 356 0006 8904     		lsl	r1, r1, #18
 357 0008 0B43     		orr	r3, r1
 358 000a 1360     		str	r3, [r2]
 743:.\Generated_Source\PSoC4/UARTCOMMS_UART.c ****         }
 359              		.loc 1 743 0
 360              		@ sp needed
 361 000c 7047     		bx	lr
 362              	.L22:
 363 000e C046     		.align	2
 364              	.L21:
 365 0010 50002540 		.word	1076166736
 366              		.cfi_endproc
 367              	.LFE8:
 368              		.size	UARTCOMMS_UartEnableCts, .-UARTCOMMS_UartEnableCts
 369              		.section	.text.UARTCOMMS_UartDisableCts,"ax",%progbits
 370              		.align	2
 371              		.global	UARTCOMMS_UartDisableCts
 372              		.code	16
 373              		.thumb_func
 374              		.type	UARTCOMMS_UartDisableCts, %function
 375              	UARTCOMMS_UartDisableCts:
 376              	.LFB9:
 744:.\Generated_Source\PSoC4/UARTCOMMS_UART.c **** 
 745:.\Generated_Source\PSoC4/UARTCOMMS_UART.c **** 
 746:.\Generated_Source\PSoC4/UARTCOMMS_UART.c ****         /*******************************************************************************
 747:.\Generated_Source\PSoC4/UARTCOMMS_UART.c ****         * Function Name: UARTCOMMS_UartDisableCts
 748:.\Generated_Source\PSoC4/UARTCOMMS_UART.c ****         ********************************************************************************
 749:.\Generated_Source\PSoC4/UARTCOMMS_UART.c ****         *
 750:.\Generated_Source\PSoC4/UARTCOMMS_UART.c ****         * Summary:
 751:.\Generated_Source\PSoC4/UARTCOMMS_UART.c ****         *  Disables usage of CTS input signal by the UART transmitter.
 752:.\Generated_Source\PSoC4/UARTCOMMS_UART.c ****         *
 753:.\Generated_Source\PSoC4/UARTCOMMS_UART.c ****         * Parameters:
 754:.\Generated_Source\PSoC4/UARTCOMMS_UART.c ****         *  None
 755:.\Generated_Source\PSoC4/UARTCOMMS_UART.c ****         *
 756:.\Generated_Source\PSoC4/UARTCOMMS_UART.c ****         * Return:
 757:.\Generated_Source\PSoC4/UARTCOMMS_UART.c ****         *  None
 758:.\Generated_Source\PSoC4/UARTCOMMS_UART.c ****         *
 759:.\Generated_Source\PSoC4/UARTCOMMS_UART.c ****         *******************************************************************************/
 760:.\Generated_Source\PSoC4/UARTCOMMS_UART.c ****         void UARTCOMMS_UartDisableCts(void)
 761:.\Generated_Source\PSoC4/UARTCOMMS_UART.c ****         {
 377              		.loc 1 761 0
 378              		.cfi_startproc
ARM GAS  C:\Users\Tim\AppData\Local\Temp\ccqT7Ql0.s 			page 21


 762:.\Generated_Source\PSoC4/UARTCOMMS_UART.c ****             UARTCOMMS_UART_FLOW_CTRL_REG &= (uint32) ~UARTCOMMS_UART_FLOW_CTRL_CTS_ENABLE;
 379              		.loc 1 762 0
 380 0000 024A     		ldr	r2, .L24
 381 0002 1168     		ldr	r1, [r2]
 382 0004 024B     		ldr	r3, .L24+4
 383 0006 0B40     		and	r3, r1
 384 0008 1360     		str	r3, [r2]
 763:.\Generated_Source\PSoC4/UARTCOMMS_UART.c ****         }
 385              		.loc 1 763 0
 386              		@ sp needed
 387 000a 7047     		bx	lr
 388              	.L25:
 389              		.align	2
 390              	.L24:
 391 000c 50002540 		.word	1076166736
 392 0010 FFFFFFFD 		.word	-33554433
 393              		.cfi_endproc
 394              	.LFE9:
 395              		.size	UARTCOMMS_UartDisableCts, .-UARTCOMMS_UartDisableCts
 396              		.section	.text.UARTCOMMS_UartSetCtsPolarity,"ax",%progbits
 397              		.align	2
 398              		.global	UARTCOMMS_UartSetCtsPolarity
 399              		.code	16
 400              		.thumb_func
 401              		.type	UARTCOMMS_UartSetCtsPolarity, %function
 402              	UARTCOMMS_UartSetCtsPolarity:
 403              	.LFB10:
 764:.\Generated_Source\PSoC4/UARTCOMMS_UART.c **** 
 765:.\Generated_Source\PSoC4/UARTCOMMS_UART.c **** 
 766:.\Generated_Source\PSoC4/UARTCOMMS_UART.c ****         /*******************************************************************************
 767:.\Generated_Source\PSoC4/UARTCOMMS_UART.c ****         * Function Name: UARTCOMMS_UartSetCtsPolarity
 768:.\Generated_Source\PSoC4/UARTCOMMS_UART.c ****         ********************************************************************************
 769:.\Generated_Source\PSoC4/UARTCOMMS_UART.c ****         *
 770:.\Generated_Source\PSoC4/UARTCOMMS_UART.c ****         * Summary:
 771:.\Generated_Source\PSoC4/UARTCOMMS_UART.c ****         *  Sets active polarity of CTS input signal.
 772:.\Generated_Source\PSoC4/UARTCOMMS_UART.c ****         *
 773:.\Generated_Source\PSoC4/UARTCOMMS_UART.c ****         * Parameters:
 774:.\Generated_Source\PSoC4/UARTCOMMS_UART.c ****         *  polarity: Active polarity of CTS output signal.
 775:.\Generated_Source\PSoC4/UARTCOMMS_UART.c ****         *   UARTCOMMS_UART_CTS_ACTIVE_LOW  - CTS signal is active low.
 776:.\Generated_Source\PSoC4/UARTCOMMS_UART.c ****         *   UARTCOMMS_UART_CTS_ACTIVE_HIGH - CTS signal is active high.
 777:.\Generated_Source\PSoC4/UARTCOMMS_UART.c ****         *
 778:.\Generated_Source\PSoC4/UARTCOMMS_UART.c ****         * Return:
 779:.\Generated_Source\PSoC4/UARTCOMMS_UART.c ****         *  None
 780:.\Generated_Source\PSoC4/UARTCOMMS_UART.c ****         *
 781:.\Generated_Source\PSoC4/UARTCOMMS_UART.c ****         *******************************************************************************/
 782:.\Generated_Source\PSoC4/UARTCOMMS_UART.c ****         void UARTCOMMS_UartSetCtsPolarity(uint32 polarity)
 783:.\Generated_Source\PSoC4/UARTCOMMS_UART.c ****         {
 404              		.loc 1 783 0
 405              		.cfi_startproc
 406              	.LVL24:
 784:.\Generated_Source\PSoC4/UARTCOMMS_UART.c ****             if (0u != polarity)
 407              		.loc 1 784 0
 408 0000 0028     		cmp	r0, #0
 409 0002 06D0     		beq	.L27
 785:.\Generated_Source\PSoC4/UARTCOMMS_UART.c ****             {
 786:.\Generated_Source\PSoC4/UARTCOMMS_UART.c ****                 UARTCOMMS_UART_FLOW_CTRL_REG |= (uint32)  UARTCOMMS_UART_FLOW_CTRL_CTS_POLARITY;
 410              		.loc 1 786 0
ARM GAS  C:\Users\Tim\AppData\Local\Temp\ccqT7Ql0.s 			page 22


 411 0004 064A     		ldr	r2, .L29
 412 0006 1368     		ldr	r3, [r2]
 413 0008 8021     		mov	r1, #128
 414 000a 4904     		lsl	r1, r1, #17
 415 000c 0B43     		orr	r3, r1
 416 000e 1360     		str	r3, [r2]
 417 0010 04E0     		b	.L26
 418              	.L27:
 787:.\Generated_Source\PSoC4/UARTCOMMS_UART.c ****             }
 788:.\Generated_Source\PSoC4/UARTCOMMS_UART.c ****             else
 789:.\Generated_Source\PSoC4/UARTCOMMS_UART.c ****             {
 790:.\Generated_Source\PSoC4/UARTCOMMS_UART.c ****                 UARTCOMMS_UART_FLOW_CTRL_REG &= (uint32) ~UARTCOMMS_UART_FLOW_CTRL_CTS_POLARITY;
 419              		.loc 1 790 0
 420 0012 034A     		ldr	r2, .L29
 421 0014 1168     		ldr	r1, [r2]
 422 0016 034B     		ldr	r3, .L29+4
 423 0018 0B40     		and	r3, r1
 424 001a 1360     		str	r3, [r2]
 425              	.L26:
 791:.\Generated_Source\PSoC4/UARTCOMMS_UART.c ****             }
 792:.\Generated_Source\PSoC4/UARTCOMMS_UART.c ****         }
 426              		.loc 1 792 0
 427              		@ sp needed
 428 001c 7047     		bx	lr
 429              	.L30:
 430 001e C046     		.align	2
 431              	.L29:
 432 0020 50002540 		.word	1076166736
 433 0024 FFFFFFFE 		.word	-16777217
 434              		.cfi_endproc
 435              	.LFE10:
 436              		.size	UARTCOMMS_UartSetCtsPolarity, .-UARTCOMMS_UartSetCtsPolarity
 437              		.text
 438              	.Letext0:
 439              		.file 2 "Generated_Source\\PSoC4/cytypes.h"
 440              		.file 3 ".\\Generated_Source\\PSoC4\\UARTCOMMS_SPI_UART_PVT.h"
 441              		.file 4 "Generated_Source\\PSoC4/CyLib.h"
 442              		.file 5 ".\\Generated_Source\\PSoC4\\UARTCOMMS_SPI_UART.h"