ARM GAS  C:\Users\Tim\AppData\Local\Temp\ccmdXVUO.s 			page 1


   1              		.cpu cortex-m0
   2              		.fpu softvfp
   3              		.eabi_attribute 20, 1
   4              		.eabi_attribute 21, 1
   5              		.eabi_attribute 23, 3
   6              		.eabi_attribute 24, 1
   7              		.eabi_attribute 25, 1
   8              		.eabi_attribute 26, 1
   9              		.eabi_attribute 30, 1
  10              		.eabi_attribute 34, 0
  11              		.eabi_attribute 18, 4
  12              		.code	16
  13              		.file	"ultrasonic.c"
  14              		.text
  15              	.Ltext0:
  16              		.cfi_sections	.debug_frame
  17              		.section	.text.InterruptHandler,"ax",%progbits
  18              		.align	2
  19              		.global	InterruptHandler
  20              		.code	16
  21              		.thumb_func
  22              		.type	InterruptHandler, %function
  23              	InterruptHandler:
  24              	.LFB36:
  25              		.file 1 "..\\source\\ultrasonic.c"
   1:..\source/ultrasonic.c **** /* ========================================
   2:..\source/ultrasonic.c ****  *
   3:..\source/ultrasonic.c ****  * Copyright YOUR COMPANY, THE YEAR
   4:..\source/ultrasonic.c ****  * All Rights Reserved
   5:..\source/ultrasonic.c ****  * UNPUBLISHED, LICENSED SOFTWARE.
   6:..\source/ultrasonic.c ****  *
   7:..\source/ultrasonic.c ****  * CONFIDENTIAL AND PROPRIETARY INFORMATION
   8:..\source/ultrasonic.c ****  * WHICH IS THE PROPERTY OF your company.
   9:..\source/ultrasonic.c ****  *
  10:..\source/ultrasonic.c ****  * ========================================
  11:..\source/ultrasonic.c **** */
  12:..\source/ultrasonic.c **** 
  13:..\source/ultrasonic.c **** #include "ultrasonic.h"
  14:..\source/ultrasonic.c **** #include "i2c.h"
  15:..\source/ultrasonic.c **** #include "utils.h"
  16:..\source/ultrasonic.c **** #include "time.h"
  17:..\source/ultrasonic.c **** #include "debug.h"
  18:..\source/ultrasonic.c **** #include "hwconfig.h"
  19:..\source/ultrasonic.c **** 
  20:..\source/ultrasonic.c **** #define MAX_TIMEOUT_US (50000)
  21:..\source/ultrasonic.c **** 
  22:..\source/ultrasonic.c **** #define MIN_PULSE_US (114)
  23:..\source/ultrasonic.c **** #define MAX_PULSE_US (23200)
  24:..\source/ultrasonic.c **** #define AVG_SAMPLES (10)
  25:..\source/ultrasonic.c **** 
  26:..\source/ultrasonic.c **** #define PULSE_WIDTH_10US (10)
  27:..\source/ultrasonic.c **** #define US_PER_CENTIMETER (58)
  28:..\source/ultrasonic.c **** 
  29:..\source/ultrasonic.c **** typedef struct _tag_sensors
  30:..\source/ultrasonic.c **** {
  31:..\source/ultrasonic.c ****     uint16 min_pulse;
  32:..\source/ultrasonic.c ****     uint16 max_pulse;
ARM GAS  C:\Users\Tim\AppData\Local\Temp\ccmdXVUO.s 			page 2


  33:..\source/ultrasonic.c ****     uint32 average;
  34:..\source/ultrasonic.c ****     MOVING_AVERAGE_TYPE moving_average;
  35:..\source/ultrasonic.c **** } SENSORS_TYPE;
  36:..\source/ultrasonic.c **** 
  37:..\source/ultrasonic.c **** 
  38:..\source/ultrasonic.c **** static volatile uint8 captured = 0;
  39:..\source/ultrasonic.c **** static volatile uint16 count;
  40:..\source/ultrasonic.c **** 
  41:..\source/ultrasonic.c **** static uint32 last_time = 0;
  42:..\source/ultrasonic.c **** static uint32 last_print_time = 0;
  43:..\source/ultrasonic.c **** static SENSORS_TYPE sensors[NUM_ULTRASONIC_SENSORS];
  44:..\source/ultrasonic.c **** 
  45:..\source/ultrasonic.c **** typedef void (*PIN_TRIGGER_WRITE_TYPE)(uint8 value);
  46:..\source/ultrasonic.c **** 
  47:..\source/ultrasonic.c **** static PIN_TRIGGER_WRITE_TYPE triggers[NUM_ULTRASONIC_SENSORS] = 
  48:..\source/ultrasonic.c **** {
  49:..\source/ultrasonic.c ****     HCSR04_Trigger_0_Write,
  50:..\source/ultrasonic.c ****     HCSR04_Trigger_1_Write,
  51:..\source/ultrasonic.c ****     HCSR04_Trigger_2_Write,
  52:..\source/ultrasonic.c ****     HCSR04_Trigger_3_Write
  53:..\source/ultrasonic.c ****     //HCSR04_Trigger_4_Write,
  54:..\source/ultrasonic.c ****     //HCSR04_Trigger_5_Write,
  55:..\source/ultrasonic.c ****     //HCSR04_Trigger_6_Write,
  56:..\source/ultrasonic.c ****     //HCSR04_Trigger_7_Write
  57:..\source/ultrasonic.c **** };
  58:..\source/ultrasonic.c **** 
  59:..\source/ultrasonic.c **** CY_ISR( InterruptHandler )
  60:..\source/ultrasonic.c **** {
  26              		.loc 1 60 0
  27              		.cfi_startproc
  28 0000 08B5     		push	{r3, lr}
  29              		.cfi_def_cfa_offset 8
  30              		.cfi_offset 3, -8
  31              		.cfi_offset 14, -4
  61:..\source/ultrasonic.c ****     count = HCSR04_Timer_ReadCounter();
  32              		.loc 1 61 0
  33 0002 FFF7FEFF 		bl	HCSR04_Timer_ReadCounter
  34              	.LVL0:
  35 0006 80B2     		uxth	r0, r0
  36 0008 0C4B     		ldr	r3, .L5
  37 000a 1880     		strh	r0, [r3]
  62:..\source/ultrasonic.c ****     if (count >= MIN_PULSE_US)
  38              		.loc 1 62 0
  39 000c 1B88     		ldrh	r3, [r3]
  40 000e 9BB2     		uxth	r3, r3
  41 0010 712B     		cmp	r3, #113
  42 0012 0ED9     		bls	.L2
  63:..\source/ultrasonic.c ****     {
  64:..\source/ultrasonic.c ****         count = min(count, MAX_PULSE_US);
  43              		.loc 1 64 0
  44 0014 094B     		ldr	r3, .L5
  45 0016 1B88     		ldrh	r3, [r3]
  46 0018 9BB2     		uxth	r3, r3
  47 001a 094A     		ldr	r2, .L5+4
  48 001c 9342     		cmp	r3, r2
  49 001e 03D8     		bhi	.L4
  50              		.loc 1 64 0 is_stmt 0 discriminator 1
ARM GAS  C:\Users\Tim\AppData\Local\Temp\ccmdXVUO.s 			page 3


  51 0020 064B     		ldr	r3, .L5
  52 0022 1A88     		ldrh	r2, [r3]
  53 0024 92B2     		uxth	r2, r2
  54 0026 00E0     		b	.L3
  55              	.L4:
  56              		.loc 1 64 0
  57 0028 064A     		ldr	r2, .L5+8
  58              	.L3:
  59              		.loc 1 64 0 discriminator 4
  60 002a 044B     		ldr	r3, .L5
  61 002c 1A80     		strh	r2, [r3]
  65:..\source/ultrasonic.c ****         captured = 1;
  62              		.loc 1 65 0 is_stmt 1 discriminator 4
  63 002e 0122     		mov	r2, #1
  64 0030 9A70     		strb	r2, [r3, #2]
  65              	.L2:
  66:..\source/ultrasonic.c ****     }
  67:..\source/ultrasonic.c ****     
  68:..\source/ultrasonic.c ****     HCSR04_Timer_ClearInterrupt( HCSR04_Timer_INTR_MASK_CC_MATCH );
  66              		.loc 1 68 0
  67 0032 0220     		mov	r0, #2
  68 0034 FFF7FEFF 		bl	HCSR04_Timer_ClearInterrupt
  69              	.LVL1:
  69:..\source/ultrasonic.c **** }
  70              		.loc 1 69 0
  71              		@ sp needed
  72 0038 08BD     		pop	{r3, pc}
  73              	.L6:
  74 003a C046     		.align	2
  75              	.L5:
  76 003c 00000000 		.word	.LANCHOR0
  77 0040 9F5A0000 		.word	23199
  78 0044 A05A0000 		.word	23200
  79              		.cfi_endproc
  80              	.LFE36:
  81              		.size	InterruptHandler, .-InterruptHandler
  82              		.section	.text.WaitForPulseIn,"ax",%progbits
  83              		.align	2
  84              		.code	16
  85              		.thumb_func
  86              		.type	WaitForPulseIn, %function
  87              	WaitForPulseIn:
  88              	.LFB38:
  70:..\source/ultrasonic.c **** 
  71:..\source/ultrasonic.c **** static void PulseOut(uint16 width, uint8 offset)
  72:..\source/ultrasonic.c **** {
  73:..\source/ultrasonic.c ****     triggers[offset](0);
  74:..\source/ultrasonic.c ****     triggers[offset](1);
  75:..\source/ultrasonic.c ****     CyDelayUs(width);
  76:..\source/ultrasonic.c ****     triggers[offset](0);
  77:..\source/ultrasonic.c **** }
  78:..\source/ultrasonic.c **** 
  79:..\source/ultrasonic.c **** static uint8 WaitForPulseIn()
  80:..\source/ultrasonic.c **** {
  89              		.loc 1 80 0
  90              		.cfi_startproc
  91 0000 08B5     		push	{r3, lr}
ARM GAS  C:\Users\Tim\AppData\Local\Temp\ccmdXVUO.s 			page 4


  92              		.cfi_def_cfa_offset 8
  93              		.cfi_offset 3, -8
  94              		.cfi_offset 14, -4
  81:..\source/ultrasonic.c ****     last_time = millis();
  95              		.loc 1 81 0
  96 0002 FFF7FEFF 		bl	millis
  97              	.LVL2:
  98 0006 084B     		ldr	r3, .L10
  99 0008 5860     		str	r0, [r3, #4]
 100              	.L9:
  82:..\source/ultrasonic.c ****     while (!captured && (millis() - last_time) < 10)
 101              		.loc 1 82 0 discriminator 2
 102 000a 074B     		ldr	r3, .L10
 103 000c 9B78     		ldrb	r3, [r3, #2]
 104 000e 002B     		cmp	r3, #0
 105 0010 06D1     		bne	.L8
 106              		.loc 1 82 0 is_stmt 0 discriminator 1
 107 0012 FFF7FEFF 		bl	millis
 108              	.LVL3:
 109 0016 044B     		ldr	r3, .L10
 110 0018 5B68     		ldr	r3, [r3, #4]
 111 001a C01A     		sub	r0, r0, r3
 112 001c 0928     		cmp	r0, #9
 113 001e F4D9     		bls	.L9
 114              	.L8:
  83:..\source/ultrasonic.c ****     {
  84:..\source/ultrasonic.c ****     }
  85:..\source/ultrasonic.c ****     
  86:..\source/ultrasonic.c ****     return captured;
 115              		.loc 1 86 0 is_stmt 1
 116 0020 014B     		ldr	r3, .L10
 117 0022 9878     		ldrb	r0, [r3, #2]
 118 0024 C0B2     		uxtb	r0, r0
  87:..\source/ultrasonic.c **** }
 119              		.loc 1 87 0
 120              		@ sp needed
 121 0026 08BD     		pop	{r3, pc}
 122              	.L11:
 123              		.align	2
 124              	.L10:
 125 0028 00000000 		.word	.LANCHOR0
 126              		.cfi_endproc
 127              	.LFE38:
 128              		.size	WaitForPulseIn, .-WaitForPulseIn
 129              		.section	.text.PulseOut,"ax",%progbits
 130              		.align	2
 131              		.code	16
 132              		.thumb_func
 133              		.type	PulseOut, %function
 134              	PulseOut:
 135              	.LFB37:
  72:..\source/ultrasonic.c ****     triggers[offset](0);
 136              		.loc 1 72 0
 137              		.cfi_startproc
 138              	.LVL4:
 139 0000 38B5     		push	{r3, r4, r5, lr}
 140              		.cfi_def_cfa_offset 16
ARM GAS  C:\Users\Tim\AppData\Local\Temp\ccmdXVUO.s 			page 5


 141              		.cfi_offset 3, -16
 142              		.cfi_offset 4, -12
 143              		.cfi_offset 5, -8
 144              		.cfi_offset 14, -4
 145 0002 051C     		mov	r5, r0
  73:..\source/ultrasonic.c ****     triggers[offset](1);
 146              		.loc 1 73 0
 147 0004 8900     		lsl	r1, r1, #2
 148              	.LVL5:
 149 0006 064B     		ldr	r3, .L13
 150 0008 CC58     		ldr	r4, [r1, r3]
 151 000a 0020     		mov	r0, #0
 152              	.LVL6:
 153 000c A047     		blx	r4
 154              	.LVL7:
  74:..\source/ultrasonic.c ****     CyDelayUs(width);
 155              		.loc 1 74 0
 156 000e 0120     		mov	r0, #1
 157 0010 A047     		blx	r4
 158              	.LVL8:
  75:..\source/ultrasonic.c ****     triggers[offset](0);
 159              		.loc 1 75 0
 160 0012 281C     		mov	r0, r5
 161 0014 FFF7FEFF 		bl	CyDelayUs
 162              	.LVL9:
  76:..\source/ultrasonic.c **** }
 163              		.loc 1 76 0
 164 0018 0020     		mov	r0, #0
 165 001a A047     		blx	r4
 166              	.LVL10:
  77:..\source/ultrasonic.c **** 
 167              		.loc 1 77 0
 168              		@ sp needed
 169 001c 38BD     		pop	{r3, r4, r5, pc}
 170              	.L14:
 171 001e C046     		.align	2
 172              	.L13:
 173 0020 00000000 		.word	.LANCHOR1
 174              		.cfi_endproc
 175              	.LFE37:
 176              		.size	PulseOut, .-PulseOut
 177              		.global	__aeabi_uidiv
 178              		.section	.text.CalcDistance,"ax",%progbits
 179              		.align	2
 180              		.code	16
 181              		.thumb_func
 182              		.type	CalcDistance, %function
 183              	CalcDistance:
 184              	.LFB39:
  88:..\source/ultrasonic.c **** 
  89:..\source/ultrasonic.c **** static uint16 CalcDistance(uint8 index)
  90:..\source/ultrasonic.c **** {
 185              		.loc 1 90 0
 186              		.cfi_startproc
 187              	.LVL11:
 188 0000 10B5     		push	{r4, lr}
 189              		.cfi_def_cfa_offset 8
ARM GAS  C:\Users\Tim\AppData\Local\Temp\ccmdXVUO.s 			page 6


 190              		.cfi_offset 4, -8
 191              		.cfi_offset 14, -4
  91:..\source/ultrasonic.c ****     sensors[index].max_pulse = max(count, sensors[index].max_pulse);
 192              		.loc 1 91 0
 193 0002 1349     		ldr	r1, .L18
 194 0004 0301     		lsl	r3, r0, #4
 195 0006 CB18     		add	r3, r1, r3
 196 0008 5A89     		ldrh	r2, [r3, #10]
 197 000a 0B88     		ldrh	r3, [r1]
 198 000c 9BB2     		uxth	r3, r3
 199 000e 9A42     		cmp	r2, r3
 200 0010 01D2     		bcs	.L16
 201              		.loc 1 91 0 is_stmt 0 discriminator 2
 202 0012 0A88     		ldrh	r2, [r1]
 203 0014 92B2     		uxth	r2, r2
 204              	.L16:
 205              		.loc 1 91 0 discriminator 4
 206 0016 0E49     		ldr	r1, .L18
 207 0018 0301     		lsl	r3, r0, #4
 208 001a CB18     		add	r3, r1, r3
 209 001c 5A81     		strh	r2, [r3, #10]
  92:..\source/ultrasonic.c ****     sensors[index].min_pulse = min(count, sensors[index].min_pulse);
 210              		.loc 1 92 0 is_stmt 1 discriminator 4
 211 001e 1B89     		ldrh	r3, [r3, #8]
 212 0020 0A88     		ldrh	r2, [r1]
 213 0022 92B2     		uxth	r2, r2
 214 0024 9342     		cmp	r3, r2
 215 0026 01D9     		bls	.L17
 216              		.loc 1 92 0 is_stmt 0 discriminator 2
 217 0028 0B88     		ldrh	r3, [r1]
 218 002a 9BB2     		uxth	r3, r3
 219              	.L17:
 220              		.loc 1 92 0 discriminator 4
 221 002c 084A     		ldr	r2, .L18
 222 002e 0001     		lsl	r0, r0, #4
 223              	.LVL12:
 224 0030 1118     		add	r1, r2, r0
 225 0032 0C1C     		mov	r4, r1
 226 0034 0B81     		strh	r3, [r1, #8]
  93:..\source/ultrasonic.c ****     
  94:..\source/ultrasonic.c ****     sensors[index].average = MovingAverage(&sensors[index].moving_average, count);
 227              		.loc 1 94 0 is_stmt 1 discriminator 4
 228 0036 1188     		ldrh	r1, [r2]
 229 0038 89B2     		uxth	r1, r1
 230 003a 1018     		add	r0, r2, r0
 231 003c 1030     		add	r0, r0, #16
 232 003e FFF7FEFF 		bl	MovingAverage
 233              	.LVL13:
 234 0042 E060     		str	r0, [r4, #12]
  95:..\source/ultrasonic.c ****     
  96:..\source/ultrasonic.c ****     return sensors[index].average/58;
 235              		.loc 1 96 0 discriminator 4
 236 0044 3A21     		mov	r1, #58
 237 0046 FFF7FEFF 		bl	__aeabi_uidiv
 238              	.LVL14:
 239 004a 80B2     		uxth	r0, r0
  97:..\source/ultrasonic.c **** }
ARM GAS  C:\Users\Tim\AppData\Local\Temp\ccmdXVUO.s 			page 7


 240              		.loc 1 97 0 discriminator 4
 241              		@ sp needed
 242 004c 10BD     		pop	{r4, pc}
 243              	.L19:
 244 004e C046     		.align	2
 245              	.L18:
 246 0050 00000000 		.word	.LANCHOR0
 247              		.cfi_endproc
 248              	.LFE39:
 249              		.size	CalcDistance, .-CalcDistance
 250              		.section	.text.Ultrasonic_Init,"ax",%progbits
 251              		.align	2
 252              		.global	Ultrasonic_Init
 253              		.code	16
 254              		.thumb_func
 255              		.type	Ultrasonic_Init, %function
 256              	Ultrasonic_Init:
 257              	.LFB40:
  98:..\source/ultrasonic.c **** 
  99:..\source/ultrasonic.c **** void Ultrasonic_Init()
 100:..\source/ultrasonic.c **** {
 258              		.loc 1 100 0
 259              		.cfi_startproc
 260 0000 10B5     		push	{r4, lr}
 261              		.cfi_def_cfa_offset 8
 262              		.cfi_offset 4, -8
 263              		.cfi_offset 14, -4
 264              	.LVL15:
 101:..\source/ultrasonic.c ****     uint8 ii;
 102:..\source/ultrasonic.c ****     for (ii = 0; ii < NUM_ULTRASONIC_SENSORS; ++ii)
 265              		.loc 1 102 0
 266 0002 0022     		mov	r2, #0
 267 0004 0DE0     		b	.L21
 268              	.LVL16:
 269              	.L22:
 103:..\source/ultrasonic.c ****     {
 104:..\source/ultrasonic.c ****         sensors[ii].average = 0;
 270              		.loc 1 104 0 discriminator 3
 271 0006 1301     		lsl	r3, r2, #4
 272 0008 0749     		ldr	r1, .L23
 273 000a CB18     		add	r3, r1, r3
 274 000c 0021     		mov	r1, #0
 275 000e D960     		str	r1, [r3, #12]
 105:..\source/ultrasonic.c ****         sensors[ii].min_pulse = MAX_PULSE_US;
 276              		.loc 1 105 0 discriminator 3
 277 0010 064C     		ldr	r4, .L23+4
 278 0012 1C81     		strh	r4, [r3, #8]
 106:..\source/ultrasonic.c ****         sensors[ii].max_pulse = MIN_PULSE_US;
 279              		.loc 1 106 0 discriminator 3
 280 0014 7224     		mov	r4, #114
 281 0016 5C81     		strh	r4, [r3, #10]
 107:..\source/ultrasonic.c ****         sensors[ii].moving_average.last = 0;
 282              		.loc 1 107 0 discriminator 3
 283 0018 5961     		str	r1, [r3, #20]
 108:..\source/ultrasonic.c ****         sensors[ii].moving_average.n = AVG_SAMPLES;
 284              		.loc 1 108 0 discriminator 3
 285 001a 0A31     		add	r1, r1, #10
ARM GAS  C:\Users\Tim\AppData\Local\Temp\ccmdXVUO.s 			page 8


 286 001c 1961     		str	r1, [r3, #16]
 102:..\source/ultrasonic.c ****     {
 287              		.loc 1 102 0 discriminator 3
 288 001e 0132     		add	r2, r2, #1
 289              	.LVL17:
 290 0020 D2B2     		uxtb	r2, r2
 291              	.LVL18:
 292              	.L21:
 102:..\source/ultrasonic.c ****     {
 293              		.loc 1 102 0 is_stmt 0 discriminator 1
 294 0022 032A     		cmp	r2, #3
 295 0024 EFD9     		bls	.L22
 109:..\source/ultrasonic.c ****     }
 110:..\source/ultrasonic.c **** }
 296              		.loc 1 110 0 is_stmt 1
 297              		@ sp needed
 298 0026 10BD     		pop	{r4, pc}
 299              	.L24:
 300              		.align	2
 301              	.L23:
 302 0028 00000000 		.word	.LANCHOR0
 303 002c A05A0000 		.word	23200
 304              		.cfi_endproc
 305              	.LFE40:
 306              		.size	Ultrasonic_Init, .-Ultrasonic_Init
 307              		.section	.text.Ultrasonic_Start,"ax",%progbits
 308              		.align	2
 309              		.global	Ultrasonic_Start
 310              		.code	16
 311              		.thumb_func
 312              		.type	Ultrasonic_Start, %function
 313              	Ultrasonic_Start:
 314              	.LFB41:
 111:..\source/ultrasonic.c **** 
 112:..\source/ultrasonic.c **** void Ultrasonic_Start()
 113:..\source/ultrasonic.c **** {
 315              		.loc 1 113 0
 316              		.cfi_startproc
 317 0000 08B5     		push	{r3, lr}
 318              		.cfi_def_cfa_offset 8
 319              		.cfi_offset 3, -8
 320              		.cfi_offset 14, -4
 114:..\source/ultrasonic.c ****     HCSR04_Timer_Start();
 321              		.loc 1 114 0
 322 0002 FFF7FEFF 		bl	HCSR04_Timer_Start
 323              	.LVL19:
 115:..\source/ultrasonic.c ****     HCSR04_Timeout_Intr_StartEx(InterruptHandler);
 324              		.loc 1 115 0
 325 0006 0248     		ldr	r0, .L26
 326 0008 FFF7FEFF 		bl	HCSR04_Timeout_Intr_StartEx
 327              	.LVL20:
 116:..\source/ultrasonic.c **** }
 328              		.loc 1 116 0
 329              		@ sp needed
 330 000c 08BD     		pop	{r3, pc}
 331              	.L27:
 332 000e C046     		.align	2
ARM GAS  C:\Users\Tim\AppData\Local\Temp\ccmdXVUO.s 			page 9


 333              	.L26:
 334 0010 00000000 		.word	InterruptHandler
 335              		.cfi_endproc
 336              	.LFE41:
 337              		.size	Ultrasonic_Start, .-Ultrasonic_Start
 338              		.section	.text.Ultrasonic_Measure,"ax",%progbits
 339              		.align	2
 340              		.global	Ultrasonic_Measure
 341              		.code	16
 342              		.thumb_func
 343              		.type	Ultrasonic_Measure, %function
 344              	Ultrasonic_Measure:
 345              	.LFB42:
 117:..\source/ultrasonic.c **** 
 118:..\source/ultrasonic.c **** void Ultrasonic_Measure()
 119:..\source/ultrasonic.c **** {
 346              		.loc 1 119 0
 347              		.cfi_startproc
 348 0000 10B5     		push	{r4, lr}
 349              		.cfi_def_cfa_offset 8
 350              		.cfi_offset 4, -8
 351              		.cfi_offset 14, -4
 352              	.LVL21:
 120:..\source/ultrasonic.c ****     uint8 ii;
 121:..\source/ultrasonic.c ****     uint16 distance;
 122:..\source/ultrasonic.c ****     uint8 result;
 123:..\source/ultrasonic.c ****     
 124:..\source/ultrasonic.c ****     for (ii = 0; ii < NUM_ULTRASONIC_SENSORS; ++ii)
 353              		.loc 1 124 0
 354 0002 0024     		mov	r4, #0
 355 0004 23E0     		b	.L29
 356              	.LVL22:
 357              	.L31:
 125:..\source/ultrasonic.c ****     {
 126:..\source/ultrasonic.c ****         /* Clear flag indicating a count has been captured */
 127:..\source/ultrasonic.c ****         captured = 0;
 358              		.loc 1 127 0
 359 0006 0022     		mov	r2, #0
 360 0008 124B     		ldr	r3, .L32
 361 000a 9A70     		strb	r2, [r3, #2]
 128:..\source/ultrasonic.c ****         
 129:..\source/ultrasonic.c ****         /* Select the echo pin via the mux */
 130:..\source/ultrasonic.c ****         HCSR04_Control_Write(ii);
 362              		.loc 1 130 0
 363 000c 201C     		mov	r0, r4
 364 000e FFF7FEFF 		bl	HCSR04_Control_Write
 365              	.LVL23:
 131:..\source/ultrasonic.c ****         
 132:..\source/ultrasonic.c ****         /* Pulse the trigger pin */
 133:..\source/ultrasonic.c ****         PulseOut(PULSE_WIDTH_10US, ii);
 366              		.loc 1 133 0
 367 0012 0A20     		mov	r0, #10
 368 0014 211C     		mov	r1, r4
 369 0016 FFF7FEFF 		bl	PulseOut
 370              	.LVL24:
 134:..\source/ultrasonic.c ****         
 135:..\source/ultrasonic.c ****         /* Wait for the timer to count the input width */
ARM GAS  C:\Users\Tim\AppData\Local\Temp\ccmdXVUO.s 			page 10


 136:..\source/ultrasonic.c ****         result = WaitForPulseIn();
 371              		.loc 1 136 0
 372 001a FFF7FEFF 		bl	WaitForPulseIn
 373              	.LVL25:
 137:..\source/ultrasonic.c ****         
 138:..\source/ultrasonic.c ****         if (result)
 374              		.loc 1 138 0
 375 001e 0028     		cmp	r0, #0
 376 0020 13D0     		beq	.L30
 139:..\source/ultrasonic.c ****         {
 140:..\source/ultrasonic.c ****             distance = CalcDistance(ii);                
 377              		.loc 1 140 0
 378 0022 201C     		mov	r0, r4
 379              	.LVL26:
 380 0024 FFF7FEFF 		bl	CalcDistance
 381              	.LVL27:
 382 0028 011C     		mov	r1, r0
 383              	.LVL28:
 141:..\source/ultrasonic.c ****             I2c_WriteUltrasonicDistance(ii, distance);
 384              		.loc 1 141 0
 385 002a 201C     		mov	r0, r4
 386 002c FFF7FEFF 		bl	I2c_WriteUltrasonicDistance
 387              	.LVL29:
 142:..\source/ultrasonic.c ****             
 143:..\source/ultrasonic.c ****             if (millis() - last_print_time > 1000)
 388              		.loc 1 143 0
 389 0030 FFF7FEFF 		bl	millis
 390              	.LVL30:
 391 0034 074B     		ldr	r3, .L32
 392 0036 9B6C     		ldr	r3, [r3, #72]
 393 0038 C01A     		sub	r0, r0, r3
 394 003a FA23     		mov	r3, #250
 395 003c 9B00     		lsl	r3, r3, #2
 396 003e 9842     		cmp	r0, r3
 397 0040 03D9     		bls	.L30
 144:..\source/ultrasonic.c ****             {
 145:..\source/ultrasonic.c ****                 last_print_time = millis();
 398              		.loc 1 145 0
 399 0042 FFF7FEFF 		bl	millis
 400              	.LVL31:
 401 0046 034B     		ldr	r3, .L32
 402 0048 9864     		str	r0, [r3, #72]
 403              	.L30:
 124:..\source/ultrasonic.c ****     {
 404              		.loc 1 124 0 discriminator 2
 405 004a 0134     		add	r4, r4, #1
 406              	.LVL32:
 407 004c E4B2     		uxtb	r4, r4
 408              	.LVL33:
 409              	.L29:
 124:..\source/ultrasonic.c ****     {
 410              		.loc 1 124 0 is_stmt 0 discriminator 1
 411 004e 032C     		cmp	r4, #3
 412 0050 D9D9     		bls	.L31
 146:..\source/ultrasonic.c ****                 //COMMS_DEBUG_PRINT(0, "N: %d, X: %d, C: %ld\n\r", sensors[ii].min_pulse, sensors[i
 147:..\source/ultrasonic.c ****             }
 148:..\source/ultrasonic.c ****             
ARM GAS  C:\Users\Tim\AppData\Local\Temp\ccmdXVUO.s 			page 11


 149:..\source/ultrasonic.c ****         }
 150:..\source/ultrasonic.c ****     }        
 151:..\source/ultrasonic.c **** }
 413              		.loc 1 151 0 is_stmt 1
 414              		@ sp needed
 415              	.LVL34:
 416 0052 10BD     		pop	{r4, pc}
 417              	.L33:
 418              		.align	2
 419              	.L32:
 420 0054 00000000 		.word	.LANCHOR0
 421              		.cfi_endproc
 422              	.LFE42:
 423              		.size	Ultrasonic_Measure, .-Ultrasonic_Measure
 424              		.section	.text.Ultrasonic_Test,"ax",%progbits
 425              		.align	2
 426              		.global	Ultrasonic_Test
 427              		.code	16
 428              		.thumb_func
 429              		.type	Ultrasonic_Test, %function
 430              	Ultrasonic_Test:
 431              	.LFB43:
 152:..\source/ultrasonic.c **** 
 153:..\source/ultrasonic.c **** 
 154:..\source/ultrasonic.c **** void Ultrasonic_Test()
 155:..\source/ultrasonic.c **** {
 432              		.loc 1 155 0
 433              		.cfi_startproc
 434 0000 10B5     		push	{r4, lr}
 435              		.cfi_def_cfa_offset 8
 436              		.cfi_offset 4, -8
 437              		.cfi_offset 14, -4
 156:..\source/ultrasonic.c ****     //uint16 pulse = 0;
 157:..\source/ultrasonic.c ****     //uint16 distance = 0;
 158:..\source/ultrasonic.c ****     //uint32 average = 0;
 159:..\source/ultrasonic.c ****     //static uint16 max_pulse;
 160:..\source/ultrasonic.c ****     //static uint16 min_pulse;
 161:..\source/ultrasonic.c ****     uint8 ii;
 162:..\source/ultrasonic.c **** 
 163:..\source/ultrasonic.c ****     captured = 0;
 438              		.loc 1 163 0
 439 0002 0022     		mov	r2, #0
 440 0004 094B     		ldr	r3, .L37
 441 0006 9A70     		strb	r2, [r3, #2]
 442              	.LVL35:
 164:..\source/ultrasonic.c ****     
 165:..\source/ultrasonic.c ****     for (ii = 0; ii < 2; ++ii)
 443              		.loc 1 165 0
 444 0008 0024     		mov	r4, #0
 445 000a 0BE0     		b	.L35
 446              	.LVL36:
 447              	.L36:
 166:..\source/ultrasonic.c ****     {
 167:..\source/ultrasonic.c ****         HCSR04_Control_Write(ii);
 448              		.loc 1 167 0 discriminator 3
 449 000c 201C     		mov	r0, r4
 450 000e FFF7FEFF 		bl	HCSR04_Control_Write
ARM GAS  C:\Users\Tim\AppData\Local\Temp\ccmdXVUO.s 			page 12


 451              	.LVL37:
 168:..\source/ultrasonic.c ****         PulseOut(10, ii);
 452              		.loc 1 168 0 discriminator 3
 453 0012 0A20     		mov	r0, #10
 454 0014 211C     		mov	r1, r4
 455 0016 FFF7FEFF 		bl	PulseOut
 456              	.LVL38:
 169:..\source/ultrasonic.c ****         CyDelay(100);
 457              		.loc 1 169 0 discriminator 3
 458 001a 6420     		mov	r0, #100
 459 001c FFF7FEFF 		bl	CyDelay
 460              	.LVL39:
 165:..\source/ultrasonic.c ****     {
 461              		.loc 1 165 0 discriminator 3
 462 0020 0134     		add	r4, r4, #1
 463              	.LVL40:
 464 0022 E4B2     		uxtb	r4, r4
 465              	.LVL41:
 466              	.L35:
 165:..\source/ultrasonic.c ****     {
 467              		.loc 1 165 0 is_stmt 0 discriminator 1
 468 0024 012C     		cmp	r4, #1
 469 0026 F1D9     		bls	.L36
 170:..\source/ultrasonic.c ****     
 171:..\source/ultrasonic.c **** #ifdef xxx
 172:..\source/ultrasonic.c ****         while (!captured)
 173:..\source/ultrasonic.c ****         {
 174:..\source/ultrasonic.c ****             //DEBUG_PRINT(0, "Timer Count: %ld\n\r", HCSR04_Timer_ReadStatus());
 175:..\source/ultrasonic.c ****             CyDelay(1);
 176:..\source/ultrasonic.c ****         }
 177:..\source/ultrasonic.c ****         
 178:..\source/ultrasonic.c ****         if (!captured)
 179:..\source/ultrasonic.c ****         {
 180:..\source/ultrasonic.c ****             DEBUG_PRINT(0, "Timeout: %d\n\r", 500);
 181:..\source/ultrasonic.c ****         }
 182:..\source/ultrasonic.c ****         else
 183:..\source/ultrasonic.c ****         {
 184:..\source/ultrasonic.c ****             DEBUG_PRINT(0, "[%d] - C: %d\n\r", ii, count);
 185:..\source/ultrasonic.c ****             if (count > max_pulse)
 186:..\source/ultrasonic.c ****             {
 187:..\source/ultrasonic.c ****                 max_pulse = count;
 188:..\source/ultrasonic.c ****             }
 189:..\source/ultrasonic.c ****             if (count < min_pulse)
 190:..\source/ultrasonic.c ****             {
 191:..\source/ultrasonic.c ****                 min_pulse = count;
 192:..\source/ultrasonic.c ****             }
 193:..\source/ultrasonic.c ****             average = MovingAverage(&ma, count);
 194:..\source/ultrasonic.c ****         }
 195:..\source/ultrasonic.c **** #endif
 196:..\source/ultrasonic.c ****         
 197:..\source/ultrasonic.c ****     }    
 198:..\source/ultrasonic.c **** }
 470              		.loc 1 198 0 is_stmt 1
 471              		@ sp needed
 472              	.LVL42:
 473 0028 10BD     		pop	{r4, pc}
 474              	.L38:
ARM GAS  C:\Users\Tim\AppData\Local\Temp\ccmdXVUO.s 			page 13


 475 002a C046     		.align	2
 476              	.L37:
 477 002c 00000000 		.word	.LANCHOR0
 478              		.cfi_endproc
 479              	.LFE43:
 480              		.size	Ultrasonic_Test, .-Ultrasonic_Test
 481              		.comm	formatted_string,256,4
 482              		.section	.rodata
 483              		.align	2
 484              		.set	.LANCHOR1,. + 0
 485              		.type	triggers, %object
 486              		.size	triggers, 16
 487              	triggers:
 488 0000 00000000 		.word	HCSR04_Trigger_0_Write
 489 0004 00000000 		.word	HCSR04_Trigger_1_Write
 490 0008 00000000 		.word	HCSR04_Trigger_2_Write
 491 000c 00000000 		.word	HCSR04_Trigger_3_Write
 492              		.bss
 493              		.align	2
 494              		.set	.LANCHOR0,. + 0
 495              		.type	count, %object
 496              		.size	count, 2
 497              	count:
 498 0000 0000     		.space	2
 499              		.type	captured, %object
 500              		.size	captured, 1
 501              	captured:
 502 0002 00       		.space	1
 503 0003 00       		.space	1
 504              		.type	last_time, %object
 505              		.size	last_time, 4
 506              	last_time:
 507 0004 00000000 		.space	4
 508              		.type	sensors, %object
 509              		.size	sensors, 64
 510              	sensors:
 511 0008 00000000 		.space	64
 511      00000000 
 511      00000000 
 511      00000000 
 511      00000000 
 512              		.type	last_print_time, %object
 513              		.size	last_print_time, 4
 514              	last_print_time:
 515 0048 00000000 		.space	4
 516              		.text
 517              	.Letext0:
 518              		.file 2 "Generated_Source\\PSoC4/cytypes.h"
 519              		.file 3 "..\\source\\utils.h"
 520              		.file 4 "Generated_Source\\PSoC4/HCSR04_Timer.h"
 521              		.file 5 "..\\source\\time.h"
 522              		.file 6 "Generated_Source\\PSoC4/CyLib.h"
 523              		.file 7 "Generated_Source\\PSoC4/HCSR04_Timeout_Intr.h"
 524              		.file 8 "Generated_Source\\PSoC4/HCSR04_Control.h"
 525              		.file 9 "..\\source\\i2c.h"
 526              		.file 10 "..\\source\\debug.h"