ARM GAS  C:\Users\Tim\AppData\Local\Temp\cc3i48oR.s 			page 1


   1              		.cpu cortex-m0
   2              		.fpu softvfp
   3              		.eabi_attribute 20, 1
   4              		.eabi_attribute 21, 1
   5              		.eabi_attribute 23, 3
   6              		.eabi_attribute 24, 1
   7              		.eabi_attribute 25, 1
   8              		.eabi_attribute 26, 1
   9              		.eabi_attribute 30, 1
  10              		.eabi_attribute 34, 0
  11              		.eabi_attribute 18, 4
  12              		.code	16
  13              		.file	"utils.c"
  14              		.text
  15              	.Ltext0:
  16              		.cfi_sections	.debug_frame
  17              		.global	__aeabi_idiv
  18              		.section	.text.MovingAverage,"ax",%progbits
  19              		.align	2
  20              		.global	MovingAverage
  21              		.code	16
  22              		.thumb_func
  23              		.type	MovingAverage, %function
  24              	MovingAverage:
  25              	.LFB36:
  26              		.file 1 "..\\source\\utils.c"
   1:..\source/utils.c **** /* ========================================
   2:..\source/utils.c ****  *
   3:..\source/utils.c ****  * Copyright YOUR COMPANY, THE YEAR
   4:..\source/utils.c ****  * All Rights Reserved
   5:..\source/utils.c ****  * UNPUBLISHED, LICENSED SOFTWARE.
   6:..\source/utils.c ****  *
   7:..\source/utils.c ****  * CONFIDENTIAL AND PROPRIETARY INFORMATION
   8:..\source/utils.c ****  * WHICH IS THE PROPERTY OF your company.
   9:..\source/utils.c ****  *
  10:..\source/utils.c ****  * ========================================
  11:..\source/utils.c **** */
  12:..\source/utils.c **** 
  13:..\source/utils.c **** #include "utils.h"
  14:..\source/utils.c **** 
  15:..\source/utils.c **** int32 MovingAverage(MOVING_AVERAGE_TYPE* ma, int32 value)
  16:..\source/utils.c **** /*
  17:..\source/utils.c **** MA*[i]= MA*[i-1] +X[i] - MA*[i-1]/N
  18:..\source/utils.c **** 
  19:..\source/utils.c **** where MA* is the moving average*N. 
  20:..\source/utils.c **** 
  21:..\source/utils.c **** MA[i]= MA*[i]/N
  22:..\source/utils.c **** */
  23:..\source/utils.c **** {
  27              		.loc 1 23 0
  28              		.cfi_startproc
  29              	.LVL0:
  30 0000 70B5     		push	{r4, r5, r6, lr}
  31              		.cfi_def_cfa_offset 16
  32              		.cfi_offset 4, -16
  33              		.cfi_offset 5, -12
  34              		.cfi_offset 6, -8
ARM GAS  C:\Users\Tim\AppData\Local\Temp\cc3i48oR.s 			page 2


  35              		.cfi_offset 14, -4
  36 0002 051C     		mov	r5, r0
  24:..\source/utils.c ****     int32 ma_curr;
  25:..\source/utils.c ****     
  26:..\source/utils.c ****     ma_curr = ma->last + value - ma->last/ma->n;
  37              		.loc 1 26 0
  38 0004 4368     		ldr	r3, [r0, #4]
  39 0006 5C18     		add	r4, r3, r1
  40 0008 0668     		ldr	r6, [r0]
  41 000a 181C     		mov	r0, r3
  42              	.LVL1:
  43 000c 311C     		mov	r1, r6
  44              	.LVL2:
  45 000e FFF7FEFF 		bl	__aeabi_idiv
  46              	.LVL3:
  47 0012 201A     		sub	r0, r4, r0
  48              	.LVL4:
  27:..\source/utils.c ****     ma->last = ma_curr;
  49              		.loc 1 27 0
  50 0014 6860     		str	r0, [r5, #4]
  28:..\source/utils.c ****     
  29:..\source/utils.c ****     return ma_curr/ma->n;
  51              		.loc 1 29 0
  52 0016 311C     		mov	r1, r6
  53 0018 FFF7FEFF 		bl	__aeabi_idiv
  54              	.LVL5:
  30:..\source/utils.c **** }
  55              		.loc 1 30 0
  56              		@ sp needed
  57              	.LVL6:
  58 001c 70BD     		pop	{r4, r5, r6, pc}
  59              		.cfi_endproc
  60              	.LFE36:
  61              		.size	MovingAverage, .-MovingAverage
  62 001e C046     		.section	.text.Uint16ToTwoBytes,"ax",%progbits
  63              		.align	2
  64              		.global	Uint16ToTwoBytes
  65              		.code	16
  66              		.thumb_func
  67              		.type	Uint16ToTwoBytes, %function
  68              	Uint16ToTwoBytes:
  69              	.LFB37:
  31:..\source/utils.c **** 
  32:..\source/utils.c **** void Uint16ToTwoBytes(uint16 value, uint8* bytes)
  33:..\source/utils.c **** {
  70              		.loc 1 33 0
  71              		.cfi_startproc
  72              	.LVL7:
  34:..\source/utils.c ****     bytes[0] = (uint8) (value & 0xFF00) >> 8;
  73              		.loc 1 34 0
  74 0000 0023     		mov	r3, #0
  75 0002 0B70     		strb	r3, [r1]
  35:..\source/utils.c ****     bytes[1] = (uint8) (value & 0x00FF);
  76              		.loc 1 35 0
  77 0004 4870     		strb	r0, [r1, #1]
  36:..\source/utils.c **** }
  78              		.loc 1 36 0
ARM GAS  C:\Users\Tim\AppData\Local\Temp\cc3i48oR.s 			page 3


  79              		@ sp needed
  80 0006 7047     		bx	lr
  81              		.cfi_endproc
  82              	.LFE37:
  83              		.size	Uint16ToTwoBytes, .-Uint16ToTwoBytes
  84              		.section	.text.Uint32ToFourBytes,"ax",%progbits
  85              		.align	2
  86              		.global	Uint32ToFourBytes
  87              		.code	16
  88              		.thumb_func
  89              		.type	Uint32ToFourBytes, %function
  90              	Uint32ToFourBytes:
  91              	.LFB38:
  37:..\source/utils.c **** 
  38:..\source/utils.c **** void Uint32ToFourBytes(uint32 value, uint8* bytes)
  39:..\source/utils.c **** {
  92              		.loc 1 39 0
  93              		.cfi_startproc
  94              	.LVL8:
  40:..\source/utils.c ****     bytes[0] = (value & 0xFF000000) >> 24;
  95              		.loc 1 40 0
  96 0000 030E     		lsr	r3, r0, #24
  97 0002 0B70     		strb	r3, [r1]
  41:..\source/utils.c ****     bytes[1] = (value & 0x00FF0000) >> 16;
  98              		.loc 1 41 0
  99 0004 030C     		lsr	r3, r0, #16
 100 0006 4B70     		strb	r3, [r1, #1]
  42:..\source/utils.c ****     bytes[2] = (value & 0x0000FF00) >> 8;
 101              		.loc 1 42 0
 102 0008 030A     		lsr	r3, r0, #8
 103 000a 8B70     		strb	r3, [r1, #2]
  43:..\source/utils.c ****     bytes[3] = (value & 0x000000FF);
 104              		.loc 1 43 0
 105 000c C870     		strb	r0, [r1, #3]
  44:..\source/utils.c **** }
 106              		.loc 1 44 0
 107              		@ sp needed
 108 000e 7047     		bx	lr
 109              		.cfi_endproc
 110              	.LFE38:
 111              		.size	Uint32ToFourBytes, .-Uint32ToFourBytes
 112              		.section	.text.Int32ToFourBytes,"ax",%progbits
 113              		.align	2
 114              		.global	Int32ToFourBytes
 115              		.code	16
 116              		.thumb_func
 117              		.type	Int32ToFourBytes, %function
 118              	Int32ToFourBytes:
 119              	.LFB39:
  45:..\source/utils.c **** 
  46:..\source/utils.c **** void Int32ToFourBytes(int32 value, uint8* bytes)
  47:..\source/utils.c **** {
 120              		.loc 1 47 0
 121              		.cfi_startproc
 122              	.LVL9:
 123 0000 08B5     		push	{r3, lr}
 124              		.cfi_def_cfa_offset 8
ARM GAS  C:\Users\Tim\AppData\Local\Temp\cc3i48oR.s 			page 4


 125              		.cfi_offset 3, -8
 126              		.cfi_offset 14, -4
  48:..\source/utils.c ****     Uint32ToFourBytes((uint32)value, bytes);
 127              		.loc 1 48 0
 128 0002 FFF7FEFF 		bl	Uint32ToFourBytes
 129              	.LVL10:
  49:..\source/utils.c **** }
 130              		.loc 1 49 0
 131              		@ sp needed
 132 0006 08BD     		pop	{r3, pc}
 133              		.cfi_endproc
 134              	.LFE39:
 135              		.size	Int32ToFourBytes, .-Int32ToFourBytes
 136              		.section	.text.FloatToFourBytes,"ax",%progbits
 137              		.align	2
 138              		.global	FloatToFourBytes
 139              		.code	16
 140              		.thumb_func
 141              		.type	FloatToFourBytes, %function
 142              	FloatToFourBytes:
 143              	.LFB40:
  50:..\source/utils.c **** 
  51:..\source/utils.c **** void FloatToFourBytes(float value, uint8* bytes)
  52:..\source/utils.c **** {
 144              		.loc 1 52 0
 145              		.cfi_startproc
 146              	.LVL11:
 147 0000 08B5     		push	{r3, lr}
 148              		.cfi_def_cfa_offset 8
 149              		.cfi_offset 3, -8
 150              		.cfi_offset 14, -4
  53:..\source/utils.c ****     Uint32ToFourBytes(*((uint32*)&value), bytes);
 151              		.loc 1 53 0
 152 0002 FFF7FEFF 		bl	Uint32ToFourBytes
 153              	.LVL12:
  54:..\source/utils.c **** }
 154              		.loc 1 54 0
 155              		@ sp needed
 156 0006 08BD     		pop	{r3, pc}
 157              		.cfi_endproc
 158              	.LFE40:
 159              		.size	FloatToFourBytes, .-FloatToFourBytes
 160              		.section	.text.TwoBytesToUint16,"ax",%progbits
 161              		.align	2
 162              		.global	TwoBytesToUint16
 163              		.code	16
 164              		.thumb_func
 165              		.type	TwoBytesToUint16, %function
 166              	TwoBytesToUint16:
 167              	.LFB41:
  55:..\source/utils.c **** 
  56:..\source/utils.c **** uint16 TwoBytesToUint16(uint8* bytes)
  57:..\source/utils.c **** {
 168              		.loc 1 57 0
 169              		.cfi_startproc
 170              	.LVL13:
  58:..\source/utils.c ****     return (uint16) ( (bytes[0] << 8) + bytes[1] );
ARM GAS  C:\Users\Tim\AppData\Local\Temp\cc3i48oR.s 			page 5


 171              		.loc 1 58 0
 172 0000 0278     		ldrb	r2, [r0]
 173 0002 1202     		lsl	r2, r2, #8
 174 0004 4378     		ldrb	r3, [r0, #1]
 175 0006 D018     		add	r0, r2, r3
 176              	.LVL14:
 177 0008 80B2     		uxth	r0, r0
  59:..\source/utils.c **** }
 178              		.loc 1 59 0
 179              		@ sp needed
 180 000a 7047     		bx	lr
 181              		.cfi_endproc
 182              	.LFE41:
 183              		.size	TwoBytesToUint16, .-TwoBytesToUint16
 184              		.section	.text.TwoBytesInt16,"ax",%progbits
 185              		.align	2
 186              		.global	TwoBytesInt16
 187              		.code	16
 188              		.thumb_func
 189              		.type	TwoBytesInt16, %function
 190              	TwoBytesInt16:
 191              	.LFB42:
  60:..\source/utils.c **** 
  61:..\source/utils.c **** int16 TwoBytesInt16(uint8* bytes)
  62:..\source/utils.c **** {
 192              		.loc 1 62 0
 193              		.cfi_startproc
 194              	.LVL15:
 195 0000 08B5     		push	{r3, lr}
 196              		.cfi_def_cfa_offset 8
 197              		.cfi_offset 3, -8
 198              		.cfi_offset 14, -4
  63:..\source/utils.c ****     return (int16) TwoBytesToUint16(bytes);
 199              		.loc 1 63 0
 200 0002 FFF7FEFF 		bl	TwoBytesToUint16
 201              	.LVL16:
 202 0006 00B2     		sxth	r0, r0
  64:..\source/utils.c **** }
 203              		.loc 1 64 0
 204              		@ sp needed
 205 0008 08BD     		pop	{r3, pc}
 206              		.cfi_endproc
 207              	.LFE42:
 208              		.size	TwoBytesInt16, .-TwoBytesInt16
 209              		.section	.text.FourBytesToUint32,"ax",%progbits
 210              		.align	2
 211              		.global	FourBytesToUint32
 212              		.code	16
 213              		.thumb_func
 214              		.type	FourBytesToUint32, %function
 215              	FourBytesToUint32:
 216              	.LFB43:
  65:..\source/utils.c **** 
  66:..\source/utils.c **** uint32 FourBytesToUint32(uint8* bytes)
  67:..\source/utils.c **** {
 217              		.loc 1 67 0
 218              		.cfi_startproc
ARM GAS  C:\Users\Tim\AppData\Local\Temp\cc3i48oR.s 			page 6


 219              	.LVL17:
  68:..\source/utils.c ****     return (uint32) ( (bytes[0] << 24) + (bytes[1] << 16) + (bytes[2] << 8) + bytes[3] );
 220              		.loc 1 68 0
 221 0000 0278     		ldrb	r2, [r0]
 222 0002 1206     		lsl	r2, r2, #24
 223 0004 4378     		ldrb	r3, [r0, #1]
 224 0006 1B04     		lsl	r3, r3, #16
 225 0008 D218     		add	r2, r2, r3
 226 000a 8378     		ldrb	r3, [r0, #2]
 227 000c 1B02     		lsl	r3, r3, #8
 228 000e D318     		add	r3, r2, r3
 229 0010 C078     		ldrb	r0, [r0, #3]
 230              	.LVL18:
 231 0012 1818     		add	r0, r3, r0
  69:..\source/utils.c **** }
 232              		.loc 1 69 0
 233              		@ sp needed
 234 0014 7047     		bx	lr
 235              		.cfi_endproc
 236              	.LFE43:
 237              		.size	FourBytesToUint32, .-FourBytesToUint32
 238 0016 C046     		.section	.text.FourBytesToInt32,"ax",%progbits
 239              		.align	2
 240              		.global	FourBytesToInt32
 241              		.code	16
 242              		.thumb_func
 243              		.type	FourBytesToInt32, %function
 244              	FourBytesToInt32:
 245              	.LFB44:
  70:..\source/utils.c **** 
  71:..\source/utils.c **** int32 FourBytesToInt32(uint8* bytes)
  72:..\source/utils.c **** {
 246              		.loc 1 72 0
 247              		.cfi_startproc
 248              	.LVL19:
 249 0000 08B5     		push	{r3, lr}
 250              		.cfi_def_cfa_offset 8
 251              		.cfi_offset 3, -8
 252              		.cfi_offset 14, -4
  73:..\source/utils.c ****     return (int32) FourBytesToUint32(bytes);
 253              		.loc 1 73 0
 254 0002 FFF7FEFF 		bl	FourBytesToUint32
 255              	.LVL20:
  74:..\source/utils.c **** }
 256              		.loc 1 74 0
 257              		@ sp needed
 258 0006 08BD     		pop	{r3, pc}
 259              		.cfi_endproc
 260              	.LFE44:
 261              		.size	FourBytesToInt32, .-FourBytesToInt32
 262              		.text
 263              	.Letext0:
 264              		.file 2 "Generated_Source\\PSoC4/cytypes.h"
 265              		.file 3 "..\\source\\utils.h"