ARM GAS  C:\Users\Tim\AppData\Local\Temp\ccQapspG.s 			page 1


   1              		.cpu cortex-m0
   2              		.fpu softvfp
   3              		.eabi_attribute 20, 1
   4              		.eabi_attribute 21, 1
   5              		.eabi_attribute 23, 3
   6              		.eabi_attribute 24, 1
   7              		.eabi_attribute 25, 1
   8              		.eabi_attribute 26, 1
   9              		.eabi_attribute 30, 1
  10              		.eabi_attribute 34, 0
  11              		.eabi_attribute 18, 4
  12              		.code	16
  13              		.file	"ADC_Infrared.c"
  14              		.text
  15              	.Ltext0:
  16              		.cfi_sections	.debug_frame
  17              		.global	__aeabi_idiv
  18              		.section	.text.ADC_Infrared_Init,"ax",%progbits
  19              		.align	2
  20              		.global	ADC_Infrared_Init
  21              		.code	16
  22              		.thumb_func
  23              		.type	ADC_Infrared_Init, %function
  24              	ADC_Infrared_Init:
  25              	.LFB2:
  26              		.file 1 ".\\Generated_Source\\PSoC4\\ADC_Infrared.c"
   1:.\Generated_Source\PSoC4/ADC_Infrared.c **** /*******************************************************************************
   2:.\Generated_Source\PSoC4/ADC_Infrared.c **** * File Name: ADC_Infrared.c
   3:.\Generated_Source\PSoC4/ADC_Infrared.c **** * Version 2.20
   4:.\Generated_Source\PSoC4/ADC_Infrared.c **** *
   5:.\Generated_Source\PSoC4/ADC_Infrared.c **** * Description:
   6:.\Generated_Source\PSoC4/ADC_Infrared.c **** *  This file provides the source code to the API for the Sequencing Successive
   7:.\Generated_Source\PSoC4/ADC_Infrared.c **** *  Approximation ADC Component Component.
   8:.\Generated_Source\PSoC4/ADC_Infrared.c **** *
   9:.\Generated_Source\PSoC4/ADC_Infrared.c **** * Note:
  10:.\Generated_Source\PSoC4/ADC_Infrared.c **** *
  11:.\Generated_Source\PSoC4/ADC_Infrared.c **** ********************************************************************************
  12:.\Generated_Source\PSoC4/ADC_Infrared.c **** * Copyright 2008-2015, Cypress Semiconductor Corporation.  All rights reserved.
  13:.\Generated_Source\PSoC4/ADC_Infrared.c **** * You may use this file only in accordance with the license, terms, conditions,
  14:.\Generated_Source\PSoC4/ADC_Infrared.c **** * disclaimers, and limitations in the end user license agreement accompanying
  15:.\Generated_Source\PSoC4/ADC_Infrared.c **** * the software package with which this file was provided.
  16:.\Generated_Source\PSoC4/ADC_Infrared.c **** *******************************************************************************/
  17:.\Generated_Source\PSoC4/ADC_Infrared.c **** 
  18:.\Generated_Source\PSoC4/ADC_Infrared.c **** #include "ADC_Infrared.h"
  19:.\Generated_Source\PSoC4/ADC_Infrared.c **** 
  20:.\Generated_Source\PSoC4/ADC_Infrared.c **** 
  21:.\Generated_Source\PSoC4/ADC_Infrared.c **** /***************************************
  22:.\Generated_Source\PSoC4/ADC_Infrared.c **** * Global data allocation
  23:.\Generated_Source\PSoC4/ADC_Infrared.c **** ***************************************/
  24:.\Generated_Source\PSoC4/ADC_Infrared.c **** uint8 ADC_Infrared_initVar = 0u;
  25:.\Generated_Source\PSoC4/ADC_Infrared.c **** volatile int16 ADC_Infrared_offset[ADC_Infrared_TOTAL_CHANNELS_NUM];
  26:.\Generated_Source\PSoC4/ADC_Infrared.c **** volatile int32 ADC_Infrared_countsPer10Volt[ADC_Infrared_TOTAL_CHANNELS_NUM];   /* Gain compensatio
  27:.\Generated_Source\PSoC4/ADC_Infrared.c **** 
  28:.\Generated_Source\PSoC4/ADC_Infrared.c **** 
  29:.\Generated_Source\PSoC4/ADC_Infrared.c **** /***************************************
  30:.\Generated_Source\PSoC4/ADC_Infrared.c **** * Local data allocation
  31:.\Generated_Source\PSoC4/ADC_Infrared.c **** ***************************************/
ARM GAS  C:\Users\Tim\AppData\Local\Temp\ccQapspG.s 			page 2


  32:.\Generated_Source\PSoC4/ADC_Infrared.c **** /* Channels configuration generated by customiser */
  33:.\Generated_Source\PSoC4/ADC_Infrared.c **** static const uint32 CYCODE ADC_Infrared_channelsConfig[] = { 0x00000000u, 0x00000000u, 0x00000000u,
  34:.\Generated_Source\PSoC4/ADC_Infrared.c ****  0x00000000u, 0x00000000u, 0x00000000u };
  35:.\Generated_Source\PSoC4/ADC_Infrared.c **** 
  36:.\Generated_Source\PSoC4/ADC_Infrared.c **** 
  37:.\Generated_Source\PSoC4/ADC_Infrared.c **** /*******************************************************************************
  38:.\Generated_Source\PSoC4/ADC_Infrared.c **** * Function Name: ADC_Infrared_Start
  39:.\Generated_Source\PSoC4/ADC_Infrared.c **** ********************************************************************************
  40:.\Generated_Source\PSoC4/ADC_Infrared.c **** *
  41:.\Generated_Source\PSoC4/ADC_Infrared.c **** * Summary:
  42:.\Generated_Source\PSoC4/ADC_Infrared.c **** *  Performs all required initialization for this component
  43:.\Generated_Source\PSoC4/ADC_Infrared.c **** *  and enables the power. The power will be set to the appropriate
  44:.\Generated_Source\PSoC4/ADC_Infrared.c **** *  power based on the clock frequency.
  45:.\Generated_Source\PSoC4/ADC_Infrared.c **** *
  46:.\Generated_Source\PSoC4/ADC_Infrared.c **** * Parameters:
  47:.\Generated_Source\PSoC4/ADC_Infrared.c **** *  None.
  48:.\Generated_Source\PSoC4/ADC_Infrared.c **** *
  49:.\Generated_Source\PSoC4/ADC_Infrared.c **** * Return:
  50:.\Generated_Source\PSoC4/ADC_Infrared.c **** *  None.
  51:.\Generated_Source\PSoC4/ADC_Infrared.c **** *
  52:.\Generated_Source\PSoC4/ADC_Infrared.c **** * Global variables:
  53:.\Generated_Source\PSoC4/ADC_Infrared.c **** *  The ADC_Infrared_initVar variable is used to indicate when/if initial
  54:.\Generated_Source\PSoC4/ADC_Infrared.c **** *  configuration of this component has happened. The variable is initialized to
  55:.\Generated_Source\PSoC4/ADC_Infrared.c **** *  zero and set to 1 the first time ADC_Start() is called. This allows for
  56:.\Generated_Source\PSoC4/ADC_Infrared.c **** *  component Re-Start without re-initialization in all subsequent calls to the
  57:.\Generated_Source\PSoC4/ADC_Infrared.c **** *  ADC_Infrared_Start() routine.
  58:.\Generated_Source\PSoC4/ADC_Infrared.c **** *  If re-initialization of the component is required the variable should be set
  59:.\Generated_Source\PSoC4/ADC_Infrared.c **** *  to zero before call of ADC_Infrared_Start() routine, or the user may call
  60:.\Generated_Source\PSoC4/ADC_Infrared.c **** *  ADC_Infrared_Init() and ADC_Infrared_Enable() as done in the
  61:.\Generated_Source\PSoC4/ADC_Infrared.c **** *  ADC_Infrared_Start() routine.
  62:.\Generated_Source\PSoC4/ADC_Infrared.c **** *
  63:.\Generated_Source\PSoC4/ADC_Infrared.c **** *******************************************************************************/
  64:.\Generated_Source\PSoC4/ADC_Infrared.c **** void ADC_Infrared_Start(void)
  65:.\Generated_Source\PSoC4/ADC_Infrared.c **** {
  66:.\Generated_Source\PSoC4/ADC_Infrared.c ****     /* If not Initialized then initialize all required hardware and software */
  67:.\Generated_Source\PSoC4/ADC_Infrared.c ****     if(ADC_Infrared_initVar == 0u)
  68:.\Generated_Source\PSoC4/ADC_Infrared.c ****     {
  69:.\Generated_Source\PSoC4/ADC_Infrared.c ****         ADC_Infrared_Init();
  70:.\Generated_Source\PSoC4/ADC_Infrared.c ****         ADC_Infrared_initVar = 1u;
  71:.\Generated_Source\PSoC4/ADC_Infrared.c ****     }
  72:.\Generated_Source\PSoC4/ADC_Infrared.c ****     ADC_Infrared_Enable();
  73:.\Generated_Source\PSoC4/ADC_Infrared.c **** }
  74:.\Generated_Source\PSoC4/ADC_Infrared.c **** 
  75:.\Generated_Source\PSoC4/ADC_Infrared.c **** 
  76:.\Generated_Source\PSoC4/ADC_Infrared.c **** /*******************************************************************************
  77:.\Generated_Source\PSoC4/ADC_Infrared.c **** * Function Name: ADC_Infrared_Init
  78:.\Generated_Source\PSoC4/ADC_Infrared.c **** ********************************************************************************
  79:.\Generated_Source\PSoC4/ADC_Infrared.c **** *
  80:.\Generated_Source\PSoC4/ADC_Infrared.c **** * Summary:
  81:.\Generated_Source\PSoC4/ADC_Infrared.c **** *  Initialize component's parameters to the parameters set by user in the
  82:.\Generated_Source\PSoC4/ADC_Infrared.c **** *  customizer of the component placed onto schematic. Usually called in
  83:.\Generated_Source\PSoC4/ADC_Infrared.c **** *  ADC_Infrared_Start().
  84:.\Generated_Source\PSoC4/ADC_Infrared.c **** *
  85:.\Generated_Source\PSoC4/ADC_Infrared.c **** * Parameters:
  86:.\Generated_Source\PSoC4/ADC_Infrared.c **** *  None.
  87:.\Generated_Source\PSoC4/ADC_Infrared.c **** *
  88:.\Generated_Source\PSoC4/ADC_Infrared.c **** * Return:
ARM GAS  C:\Users\Tim\AppData\Local\Temp\ccQapspG.s 			page 3


  89:.\Generated_Source\PSoC4/ADC_Infrared.c **** *  None.
  90:.\Generated_Source\PSoC4/ADC_Infrared.c **** *
  91:.\Generated_Source\PSoC4/ADC_Infrared.c **** * Global variables:
  92:.\Generated_Source\PSoC4/ADC_Infrared.c **** *  The ADC_Infrared_offset variable is initialized.
  93:.\Generated_Source\PSoC4/ADC_Infrared.c **** *
  94:.\Generated_Source\PSoC4/ADC_Infrared.c **** *******************************************************************************/
  95:.\Generated_Source\PSoC4/ADC_Infrared.c **** void ADC_Infrared_Init(void)
  96:.\Generated_Source\PSoC4/ADC_Infrared.c **** {
  27              		.loc 1 96 0
  28              		.cfi_startproc
  29 0000 10B5     		push	{r4, lr}
  30              		.cfi_def_cfa_offset 8
  31              		.cfi_offset 4, -8
  32              		.cfi_offset 14, -4
  97:.\Generated_Source\PSoC4/ADC_Infrared.c ****     uint32 chNum;
  98:.\Generated_Source\PSoC4/ADC_Infrared.c ****     uint32 tmpRegVal;
  99:.\Generated_Source\PSoC4/ADC_Infrared.c ****     int32 counts;
 100:.\Generated_Source\PSoC4/ADC_Infrared.c **** 
 101:.\Generated_Source\PSoC4/ADC_Infrared.c ****     #if(ADC_Infrared_TOTAL_CHANNELS_NUM > 1u)
 102:.\Generated_Source\PSoC4/ADC_Infrared.c ****         static const uint8 CYCODE ADC_Infrared_InputsPlacement[] =
 103:.\Generated_Source\PSoC4/ADC_Infrared.c ****         {
 104:.\Generated_Source\PSoC4/ADC_Infrared.c ****             (uint8)(ADC_Infrared_cy_psoc4_sarmux_8__CH_0_PORT << 4u) |
 105:.\Generated_Source\PSoC4/ADC_Infrared.c ****             (uint8)ADC_Infrared_cy_psoc4_sarmux_8__CH_0_PIN
 106:.\Generated_Source\PSoC4/ADC_Infrared.c ****             ,(uint8)(ADC_Infrared_cy_psoc4_sarmux_8__CH_1_PORT << 4u) |
 107:.\Generated_Source\PSoC4/ADC_Infrared.c ****              (uint8)ADC_Infrared_cy_psoc4_sarmux_8__CH_1_PIN
 108:.\Generated_Source\PSoC4/ADC_Infrared.c ****             #if(ADC_Infrared_TOTAL_CHANNELS_NUM > 2u)
 109:.\Generated_Source\PSoC4/ADC_Infrared.c ****                 ,(uint8)(ADC_Infrared_cy_psoc4_sarmux_8__CH_2_PORT << 4u) |
 110:.\Generated_Source\PSoC4/ADC_Infrared.c ****                  (uint8)ADC_Infrared_cy_psoc4_sarmux_8__CH_2_PIN
 111:.\Generated_Source\PSoC4/ADC_Infrared.c ****             #endif /* End ADC_Infrared_TOTAL_CHANNELS_NUM > 2u */
 112:.\Generated_Source\PSoC4/ADC_Infrared.c ****             #if(ADC_Infrared_TOTAL_CHANNELS_NUM > 3u)
 113:.\Generated_Source\PSoC4/ADC_Infrared.c ****                 ,(uint8)(ADC_Infrared_cy_psoc4_sarmux_8__CH_3_PORT << 4u) |
 114:.\Generated_Source\PSoC4/ADC_Infrared.c ****                  (uint8)ADC_Infrared_cy_psoc4_sarmux_8__CH_3_PIN
 115:.\Generated_Source\PSoC4/ADC_Infrared.c ****             #endif /* End ADC_Infrared_TOTAL_CHANNELS_NUM > 3u */
 116:.\Generated_Source\PSoC4/ADC_Infrared.c ****             #if(ADC_Infrared_TOTAL_CHANNELS_NUM > 4u)
 117:.\Generated_Source\PSoC4/ADC_Infrared.c ****                 ,(uint8)(ADC_Infrared_cy_psoc4_sarmux_8__CH_4_PORT << 4u) |
 118:.\Generated_Source\PSoC4/ADC_Infrared.c ****                  (uint8)ADC_Infrared_cy_psoc4_sarmux_8__CH_4_PIN
 119:.\Generated_Source\PSoC4/ADC_Infrared.c ****             #endif /* End ADC_Infrared_TOTAL_CHANNELS_NUM > 4u */
 120:.\Generated_Source\PSoC4/ADC_Infrared.c ****             #if(ADC_Infrared_TOTAL_CHANNELS_NUM > 5u)
 121:.\Generated_Source\PSoC4/ADC_Infrared.c ****                 ,(uint8)(ADC_Infrared_cy_psoc4_sarmux_8__CH_5_PORT << 4u) |
 122:.\Generated_Source\PSoC4/ADC_Infrared.c ****                  (uint8)ADC_Infrared_cy_psoc4_sarmux_8__CH_5_PIN
 123:.\Generated_Source\PSoC4/ADC_Infrared.c ****             #endif /* End ADC_Infrared_TOTAL_CHANNELS_NUM > 5u */
 124:.\Generated_Source\PSoC4/ADC_Infrared.c ****             #if(ADC_Infrared_TOTAL_CHANNELS_NUM > 6u)
 125:.\Generated_Source\PSoC4/ADC_Infrared.c ****                 ,(uint8)(ADC_Infrared_cy_psoc4_sarmux_8__CH_6_PORT << 4u) |
 126:.\Generated_Source\PSoC4/ADC_Infrared.c ****                  (uint8)ADC_Infrared_cy_psoc4_sarmux_8__CH_6_PIN
 127:.\Generated_Source\PSoC4/ADC_Infrared.c ****             #endif /* End ADC_Infrared_TOTAL_CHANNELS_NUM > 6u */
 128:.\Generated_Source\PSoC4/ADC_Infrared.c ****             #if(ADC_Infrared_TOTAL_CHANNELS_NUM > 7u)
 129:.\Generated_Source\PSoC4/ADC_Infrared.c ****                 ,(uint8)(ADC_Infrared_cy_psoc4_sarmux_8__CH_7_PORT << 4u) |
 130:.\Generated_Source\PSoC4/ADC_Infrared.c ****                  (uint8)ADC_Infrared_cy_psoc4_sarmux_8__CH_7_PIN
 131:.\Generated_Source\PSoC4/ADC_Infrared.c ****             #endif /* End ADC_Infrared_TOTAL_CHANNELS_NUM > 7u */
 132:.\Generated_Source\PSoC4/ADC_Infrared.c ****             #if(ADC_Infrared_TOTAL_CHANNELS_NUM > 8u)
 133:.\Generated_Source\PSoC4/ADC_Infrared.c ****                 ,(uint8)(ADC_Infrared_cy_psoc4_sarmux_8__CH_8_PORT << 4u) |
 134:.\Generated_Source\PSoC4/ADC_Infrared.c ****                  (uint8)ADC_Infrared_cy_psoc4_sarmux_8__CH_8_PIN
 135:.\Generated_Source\PSoC4/ADC_Infrared.c ****             #endif /* End ADC_Infrared_TOTAL_CHANNELS_NUM > 8u */
 136:.\Generated_Source\PSoC4/ADC_Infrared.c ****             #if(ADC_Infrared_TOTAL_CHANNELS_NUM > 9u)
 137:.\Generated_Source\PSoC4/ADC_Infrared.c ****                 ,(uint8)(ADC_Infrared_cy_psoc4_sarmux_8__CH_9_PORT << 4u) |
 138:.\Generated_Source\PSoC4/ADC_Infrared.c ****                  (uint8)ADC_Infrared_cy_psoc4_sarmux_8__CH_9_PIN
 139:.\Generated_Source\PSoC4/ADC_Infrared.c ****             #endif /* End ADC_Infrared_TOTAL_CHANNELS_NUM > 9u */
ARM GAS  C:\Users\Tim\AppData\Local\Temp\ccQapspG.s 			page 4


 140:.\Generated_Source\PSoC4/ADC_Infrared.c ****             #if(ADC_Infrared_TOTAL_CHANNELS_NUM > 10u)
 141:.\Generated_Source\PSoC4/ADC_Infrared.c ****                 ,(uint8)(ADC_Infrared_cy_psoc4_sarmux_8__CH_10_PORT << 4u) |
 142:.\Generated_Source\PSoC4/ADC_Infrared.c ****                  (uint8)ADC_Infrared_cy_psoc4_sarmux_8__CH_10_PIN
 143:.\Generated_Source\PSoC4/ADC_Infrared.c ****             #endif /* End ADC_Infrared_TOTAL_CHANNELS_NUM > 10u */
 144:.\Generated_Source\PSoC4/ADC_Infrared.c ****             #if(ADC_Infrared_TOTAL_CHANNELS_NUM > 11u)
 145:.\Generated_Source\PSoC4/ADC_Infrared.c ****                 ,(uint8)(ADC_Infrared_cy_psoc4_sarmux_8__CH_11_PORT << 4u) |
 146:.\Generated_Source\PSoC4/ADC_Infrared.c ****                  (uint8)ADC_Infrared_cy_psoc4_sarmux_8__CH_11_PIN
 147:.\Generated_Source\PSoC4/ADC_Infrared.c ****             #endif /* End ADC_Infrared_TOTAL_CHANNELS_NUM > 11u */
 148:.\Generated_Source\PSoC4/ADC_Infrared.c ****             #if(ADC_Infrared_TOTAL_CHANNELS_NUM > 12u)
 149:.\Generated_Source\PSoC4/ADC_Infrared.c ****                 ,(uint8)(ADC_Infrared_cy_psoc4_sarmux_8__CH_12_PORT << 4u) |
 150:.\Generated_Source\PSoC4/ADC_Infrared.c ****                  (uint8)ADC_Infrared_cy_psoc4_sarmux_8__CH_12_PIN
 151:.\Generated_Source\PSoC4/ADC_Infrared.c ****             #endif /* End ADC_Infrared_TOTAL_CHANNELS_NUM > 12u */
 152:.\Generated_Source\PSoC4/ADC_Infrared.c ****             #if(ADC_Infrared_TOTAL_CHANNELS_NUM > 13u)
 153:.\Generated_Source\PSoC4/ADC_Infrared.c ****                 ,(uint8)(ADC_Infrared_cy_psoc4_sarmux_8__CH_13_PORT << 4u) |
 154:.\Generated_Source\PSoC4/ADC_Infrared.c ****                  (uint8)ADC_Infrared_cy_psoc4_sarmux_8__CH_13_PIN
 155:.\Generated_Source\PSoC4/ADC_Infrared.c ****             #endif /* End ADC_Infrared_TOTAL_CHANNELS_NUM > 13u */
 156:.\Generated_Source\PSoC4/ADC_Infrared.c ****             #if(ADC_Infrared_TOTAL_CHANNELS_NUM > 14u)
 157:.\Generated_Source\PSoC4/ADC_Infrared.c ****                 ,(uint8)(ADC_Infrared_cy_psoc4_sarmux_8__CH_14_PORT << 4u) |
 158:.\Generated_Source\PSoC4/ADC_Infrared.c ****                  (uint8)ADC_Infrared_cy_psoc4_sarmux_8__CH_14_PIN
 159:.\Generated_Source\PSoC4/ADC_Infrared.c ****             #endif /* End ADC_Infrared_TOTAL_CHANNELS_NUM > 14u */
 160:.\Generated_Source\PSoC4/ADC_Infrared.c ****             #if(ADC_Infrared_TOTAL_CHANNELS_NUM > 15u)
 161:.\Generated_Source\PSoC4/ADC_Infrared.c ****                 ,(uint8)(ADC_Infrared_cy_psoc4_sarmux_8__CH_15_PORT << 4u) |
 162:.\Generated_Source\PSoC4/ADC_Infrared.c ****                  (uint8)ADC_Infrared_cy_psoc4_sarmux_8__CH_15_PIN
 163:.\Generated_Source\PSoC4/ADC_Infrared.c ****             #endif /* End ADC_Infrared_TOTAL_CHANNELS_NUM > 15u */
 164:.\Generated_Source\PSoC4/ADC_Infrared.c ****             #if(ADC_Infrared_TOTAL_CHANNELS_NUM > 16u)
 165:.\Generated_Source\PSoC4/ADC_Infrared.c ****                 ,(uint8)(ADC_Infrared_cy_psoc4_sarmux_8__CH_16_PORT << 4u) |
 166:.\Generated_Source\PSoC4/ADC_Infrared.c ****                  (uint8)ADC_Infrared_cy_psoc4_sarmux_8__CH_16_PIN
 167:.\Generated_Source\PSoC4/ADC_Infrared.c ****             #endif /* End ADC_Infrared_TOTAL_CHANNELS_NUM > 16u */
 168:.\Generated_Source\PSoC4/ADC_Infrared.c ****         };
 169:.\Generated_Source\PSoC4/ADC_Infrared.c ****     #endif /* End ADC_Infrared_TOTAL_CHANNELS_NUM > 1u */
 170:.\Generated_Source\PSoC4/ADC_Infrared.c **** 
 171:.\Generated_Source\PSoC4/ADC_Infrared.c ****     #if(ADC_Infrared_IRQ_REMOVE == 0u)
 172:.\Generated_Source\PSoC4/ADC_Infrared.c ****         /* Start and set interrupt vector */
 173:.\Generated_Source\PSoC4/ADC_Infrared.c ****         CyIntSetPriority(ADC_Infrared_INTC_NUMBER, ADC_Infrared_INTC_PRIOR_NUMBER);
  33              		.loc 1 173 0
  34 0002 1020     		mov	r0, #16
  35 0004 0321     		mov	r1, #3
  36 0006 FFF7FEFF 		bl	CyIntSetPriority
  37              	.LVL0:
 174:.\Generated_Source\PSoC4/ADC_Infrared.c ****         (void)CyIntSetVector(ADC_Infrared_INTC_NUMBER, &ADC_Infrared_ISR);
  38              		.loc 1 174 0
  39 000a 1020     		mov	r0, #16
  40 000c 3D49     		ldr	r1, .L12
  41 000e FFF7FEFF 		bl	CyIntSetVector
  42              	.LVL1:
 175:.\Generated_Source\PSoC4/ADC_Infrared.c ****     #endif   /* End ADC_Infrared_IRQ_REMOVE */
 176:.\Generated_Source\PSoC4/ADC_Infrared.c **** 
 177:.\Generated_Source\PSoC4/ADC_Infrared.c ****     /* Init SAR and MUX registers */
 178:.\Generated_Source\PSoC4/ADC_Infrared.c ****     ADC_Infrared_SAR_CHAN_EN_REG = ADC_Infrared_DEFAULT_EN_CHANNELS;
  43              		.loc 1 178 0
  44 0012 FF22     		mov	r2, #255
  45 0014 3C4B     		ldr	r3, .L12+4
  46 0016 1A60     		str	r2, [r3]
 179:.\Generated_Source\PSoC4/ADC_Infrared.c ****     ADC_Infrared_SAR_CTRL_REG |= ADC_Infrared_DEFAULT_CTRL_REG_CFG | 
 180:.\Generated_Source\PSoC4/ADC_Infrared.c ****         /* Enable the SAR internal pump when global pump is enabled */
 181:.\Generated_Source\PSoC4/ADC_Infrared.c ****         (((ADC_Infrared_PUMP_CTRL_REG & ADC_Infrared_PUMP_CTRL_ENABLED) != 0u) ? 
  47              		.loc 1 181 0
ARM GAS  C:\Users\Tim\AppData\Local\Temp\ccQapspG.s 			page 5


  48 0018 3C4B     		ldr	r3, .L12+8
  49 001a 1B68     		ldr	r3, [r3]
 179:.\Generated_Source\PSoC4/ADC_Infrared.c ****     ADC_Infrared_SAR_CTRL_REG |= ADC_Infrared_DEFAULT_CTRL_REG_CFG | 
  50              		.loc 1 179 0
  51 001c 002B     		cmp	r3, #0
  52 001e 01DA     		bge	.L10
  53 0020 3B49     		ldr	r1, .L12+12
  54 0022 00E0     		b	.L2
  55              	.L10:
  56 0024 3B49     		ldr	r1, .L12+16
  57              	.L2:
 179:.\Generated_Source\PSoC4/ADC_Infrared.c ****     ADC_Infrared_SAR_CTRL_REG |= ADC_Infrared_DEFAULT_CTRL_REG_CFG | 
  58              		.loc 1 179 0 is_stmt 0 discriminator 4
  59 0026 3C4A     		ldr	r2, .L12+20
  60 0028 1368     		ldr	r3, [r2]
  61 002a 0B43     		orr	r3, r1
  62 002c 1360     		str	r3, [r2]
 182:.\Generated_Source\PSoC4/ADC_Infrared.c ****         ADC_Infrared_BOOSTPUMP_EN : 0u);
 183:.\Generated_Source\PSoC4/ADC_Infrared.c ****     ADC_Infrared_SAR_SAMPLE_CTRL_REG = ADC_Infrared_DEFAULT_SAMPLE_CTRL_REG_CFG;
  63              		.loc 1 183 0 is_stmt 1 discriminator 4
  64 002e 3B4A     		ldr	r2, .L12+24
  65 0030 3B4B     		ldr	r3, .L12+28
  66 0032 1A60     		str	r2, [r3]
 184:.\Generated_Source\PSoC4/ADC_Infrared.c ****     ADC_Infrared_SAR_RANGE_THRES_REG = ADC_Infrared_DEFAULT_RANGE_THRES_REG_CFG;
  67              		.loc 1 184 0 discriminator 4
  68 0034 3B4A     		ldr	r2, .L12+32
  69 0036 3C4B     		ldr	r3, .L12+36
  70 0038 1A60     		str	r2, [r3]
 185:.\Generated_Source\PSoC4/ADC_Infrared.c ****     ADC_Infrared_SAR_RANGE_COND_REG  = ADC_Infrared_COMPARE_MODE;
  71              		.loc 1 185 0 discriminator 4
  72 003a 0023     		mov	r3, #0
  73 003c 3B4A     		ldr	r2, .L12+40
  74 003e 1360     		str	r3, [r2]
 186:.\Generated_Source\PSoC4/ADC_Infrared.c ****     ADC_Infrared_SAR_SAMPLE_TIME01_REG = ADC_Infrared_DEFAULT_SAMPLE_TIME01_REG_CFG;
  75              		.loc 1 186 0 discriminator 4
  76 0040 3B4A     		ldr	r2, .L12+44
  77 0042 3C49     		ldr	r1, .L12+48
  78 0044 0A60     		str	r2, [r1]
 187:.\Generated_Source\PSoC4/ADC_Infrared.c ****     ADC_Infrared_SAR_SAMPLE_TIME23_REG = ADC_Infrared_DEFAULT_SAMPLE_TIME23_REG_CFG;
  79              		.loc 1 187 0 discriminator 4
  80 0046 3C49     		ldr	r1, .L12+52
  81 0048 0A60     		str	r2, [r1]
 188:.\Generated_Source\PSoC4/ADC_Infrared.c ****     
 189:.\Generated_Source\PSoC4/ADC_Infrared.c ****     /* Connect Vm to VSSA when even one channel is single-ended or multiple channels configured */
 190:.\Generated_Source\PSoC4/ADC_Infrared.c ****     #if(ADC_Infrared_DEFAULT_MUX_SWITCH0 != 0u)
 191:.\Generated_Source\PSoC4/ADC_Infrared.c ****         ADC_Infrared_MUX_SWITCH0_REG |= ADC_Infrared_DEFAULT_MUX_SWITCH0;
 192:.\Generated_Source\PSoC4/ADC_Infrared.c ****         /* Set MUX_HW_CTRL_VSSA in MUX_SWITCH_HW_CTRL when multiple channels enabled */
 193:.\Generated_Source\PSoC4/ADC_Infrared.c ****         #if(ADC_Infrared_TOTAL_CHANNELS_NUM > 1u)
 194:.\Generated_Source\PSoC4/ADC_Infrared.c ****             ADC_Infrared_MUX_SWITCH_HW_CTRL_REG |= ADC_Infrared_DEFAULT_MUX_SWITCH0;
 195:.\Generated_Source\PSoC4/ADC_Infrared.c ****         #endif /* ADC_Infrared_TOTAL_CHANNELS_NUM > 1u */
 196:.\Generated_Source\PSoC4/ADC_Infrared.c ****     #endif /*ADC_Infrared_CHANNELS_MODE !=0 */
 197:.\Generated_Source\PSoC4/ADC_Infrared.c **** 
 198:.\Generated_Source\PSoC4/ADC_Infrared.c ****     ADC_Infrared_SAR_SATURATE_INTR_MASK_REG = 0u;
  82              		.loc 1 198 0 discriminator 4
  83 004a 3C4A     		ldr	r2, .L12+56
  84 004c 1360     		str	r3, [r2]
 199:.\Generated_Source\PSoC4/ADC_Infrared.c ****     ADC_Infrared_SAR_RANGE_INTR_MASK_REG = 0u;
ARM GAS  C:\Users\Tim\AppData\Local\Temp\ccQapspG.s 			page 6


  85              		.loc 1 199 0 discriminator 4
  86 004e 3C4A     		ldr	r2, .L12+60
  87 0050 1360     		str	r3, [r2]
 200:.\Generated_Source\PSoC4/ADC_Infrared.c ****     ADC_Infrared_SAR_INTR_MASK_REG = ADC_Infrared_SAR_INTR_MASK;
  88              		.loc 1 200 0 discriminator 4
  89 0052 0122     		mov	r2, #1
  90 0054 3B4B     		ldr	r3, .L12+64
  91 0056 1A60     		str	r2, [r3]
 201:.\Generated_Source\PSoC4/ADC_Infrared.c **** 
 202:.\Generated_Source\PSoC4/ADC_Infrared.c ****     #if(ADC_Infrared_CY_SAR_IP_VER == ADC_Infrared_CY_SAR_IP_VER0)
 203:.\Generated_Source\PSoC4/ADC_Infrared.c ****         ADC_Infrared_ANA_TRIM_REG = ADC_Infrared_TRIM_COEF;
 204:.\Generated_Source\PSoC4/ADC_Infrared.c ****     #endif /* (ADC_Infrared_CY_SAR_IP_VER == ADC_Infrared_CY_SAR_IP_VER0) */
 205:.\Generated_Source\PSoC4/ADC_Infrared.c **** 
 206:.\Generated_Source\PSoC4/ADC_Infrared.c ****     /* Read and modify default configuration based on characterization */
 207:.\Generated_Source\PSoC4/ADC_Infrared.c ****     tmpRegVal = ADC_Infrared_SAR_DFT_CTRL_REG;
  92              		.loc 1 207 0 discriminator 4
  93 0058 3B4A     		ldr	r2, .L12+68
  94 005a 1168     		ldr	r1, [r2]
  95              	.LVL2:
 208:.\Generated_Source\PSoC4/ADC_Infrared.c ****     tmpRegVal &= (uint32)~ADC_Infrared_DCEN;
 209:.\Generated_Source\PSoC4/ADC_Infrared.c ****     
 210:.\Generated_Source\PSoC4/ADC_Infrared.c ****     #if(ADC_Infrared_CY_SAR_IP_VER == ADC_Infrared_CY_SAR_IP_VER0)
 211:.\Generated_Source\PSoC4/ADC_Infrared.c ****         #if(ADC_Infrared_NOMINAL_CLOCK_FREQ > (ADC_Infrared_MAX_FREQUENCY / 2))
 212:.\Generated_Source\PSoC4/ADC_Infrared.c ****             tmpRegVal |= ADC_Infrared_SEL_CSEL_DFT_CHAR;
 213:.\Generated_Source\PSoC4/ADC_Infrared.c ****         #else  /* clock speed < 9 Mhz */
 214:.\Generated_Source\PSoC4/ADC_Infrared.c ****             tmpRegVal |= ADC_Infrared_DLY_INC;
 215:.\Generated_Source\PSoC4/ADC_Infrared.c ****         #endif /* clock speed > 9 Mhz */
 216:.\Generated_Source\PSoC4/ADC_Infrared.c ****     #else
 217:.\Generated_Source\PSoC4/ADC_Infrared.c ****         #if ((ADC_Infrared_DEFAULT_VREF_SEL == ADC_Infrared__INTERNAL1024) || \
 218:.\Generated_Source\PSoC4/ADC_Infrared.c ****              (ADC_Infrared_DEFAULT_VREF_SEL == ADC_Infrared__INTERNALVREF))
 219:.\Generated_Source\PSoC4/ADC_Infrared.c ****             tmpRegVal |= ADC_Infrared_DLY_INC;
 220:.\Generated_Source\PSoC4/ADC_Infrared.c ****         #else
 221:.\Generated_Source\PSoC4/ADC_Infrared.c ****             tmpRegVal |= ADC_Infrared_DCEN;
 222:.\Generated_Source\PSoC4/ADC_Infrared.c ****             tmpRegVal &= (uint32)~ADC_Infrared_DLY_INC;
  96              		.loc 1 222 0 discriminator 4
  97 005c 3B4B     		ldr	r3, .L12+72
  98 005e 0B40     		and	r3, r1
  99 0060 8021     		mov	r1, #128
 100              	.LVL3:
 101 0062 8905     		lsl	r1, r1, #22
 102 0064 0B43     		orr	r3, r1
 103              	.LVL4:
 223:.\Generated_Source\PSoC4/ADC_Infrared.c ****         #endif /* ((ADC_Infrared_DEFAULT_VREF_SEL == ADC_Infrared__INTERNAL1024) || \
 224:.\Generated_Source\PSoC4/ADC_Infrared.c ****                    (ADC_Infrared_DEFAULT_VREF_SEL == ADC_Infrared__INTERNALVREF)) */
 225:.\Generated_Source\PSoC4/ADC_Infrared.c ****     #endif /* (ADC_Infrared_CY_SAR_IP_VER == ADC_Infrared_CY_SAR_IP_VER0) */
 226:.\Generated_Source\PSoC4/ADC_Infrared.c ****     
 227:.\Generated_Source\PSoC4/ADC_Infrared.c ****     ADC_Infrared_SAR_DFT_CTRL_REG = tmpRegVal;
 104              		.loc 1 227 0 discriminator 4
 105 0066 1360     		str	r3, [r2]
 106              	.LVL5:
 228:.\Generated_Source\PSoC4/ADC_Infrared.c **** 
 229:.\Generated_Source\PSoC4/ADC_Infrared.c ****     #if(ADC_Infrared_MAX_RESOLUTION != ADC_Infrared_RESOLUTION_12)
 230:.\Generated_Source\PSoC4/ADC_Infrared.c ****         ADC_Infrared_WOUNDING_REG = ADC_Infrared_ALT_WOUNDING;
 231:.\Generated_Source\PSoC4/ADC_Infrared.c ****     #endif /* ADC_Infrared_MAX_RESOLUTION != ADC_Infrared_RESOLUTION_12 */
 232:.\Generated_Source\PSoC4/ADC_Infrared.c **** 
 233:.\Generated_Source\PSoC4/ADC_Infrared.c ****     for(chNum = 0u; chNum < ADC_Infrared_TOTAL_CHANNELS_NUM; chNum++)
 107              		.loc 1 233 0 discriminator 4
ARM GAS  C:\Users\Tim\AppData\Local\Temp\ccQapspG.s 			page 7


 108 0068 0024     		mov	r4, #0
 109 006a 47E0     		b	.L3
 110              	.LVL6:
 111              	.L9:
 234:.\Generated_Source\PSoC4/ADC_Infrared.c ****     {
 235:.\Generated_Source\PSoC4/ADC_Infrared.c ****         tmpRegVal = (ADC_Infrared_channelsConfig[chNum] & ADC_Infrared_CHANNEL_CONFIG_MASK);
 112              		.loc 1 235 0
 113 006c 3849     		ldr	r1, .L12+76
 114 006e A200     		lsl	r2, r4, #2
 115 0070 5058     		ldr	r0, [r2, r1]
 116 0072 DC23     		mov	r3, #220
 117 0074 9B01     		lsl	r3, r3, #6
 118 0076 0340     		and	r3, r0
 119              	.LVL7:
 236:.\Generated_Source\PSoC4/ADC_Infrared.c ****         #if(ADC_Infrared_TOTAL_CHANNELS_NUM > 1u)
 237:.\Generated_Source\PSoC4/ADC_Infrared.c ****             tmpRegVal |= ADC_Infrared_InputsPlacement[chNum];
 120              		.loc 1 237 0
 121 0078 2031     		add	r1, r1, #32
 122 007a 095D     		ldrb	r1, [r1, r4]
 123 007c 0B43     		orr	r3, r1
 124              	.LVL8:
 238:.\Generated_Source\PSoC4/ADC_Infrared.c ****         #endif /* End ADC_Infrared_TOTAL_CHANNELS_NUM > 1u */
 239:.\Generated_Source\PSoC4/ADC_Infrared.c ****         
 240:.\Generated_Source\PSoC4/ADC_Infrared.c ****         
 241:.\Generated_Source\PSoC4/ADC_Infrared.c ****         /* When the part is limited to 10-bit then the SUB_RESOLUTION bit
 242:.\Generated_Source\PSoC4/ADC_Infrared.c ****         *  will be ignored and the RESOLUTION bit selects between 10-bit
 243:.\Generated_Source\PSoC4/ADC_Infrared.c ****         *  (0) and 8-bit (1) resolution.
 244:.\Generated_Source\PSoC4/ADC_Infrared.c ****         */
 245:.\Generated_Source\PSoC4/ADC_Infrared.c ****         #if((ADC_Infrared_MAX_RESOLUTION != ADC_Infrared_RESOLUTION_12) && \
 246:.\Generated_Source\PSoC4/ADC_Infrared.c ****             (ADC_Infrared_ALT_WOUNDING == ADC_Infrared_WOUNDING_10BIT))
 247:.\Generated_Source\PSoC4/ADC_Infrared.c ****             tmpRegVal &= (uint32)(~ADC_Infrared_ALT_RESOLUTION_ON);
 248:.\Generated_Source\PSoC4/ADC_Infrared.c ****         #endif /* ADC_Infrared_MAX_RESOLUTION != ADC_Infrared_RESOLUTION_12 */
 249:.\Generated_Source\PSoC4/ADC_Infrared.c **** 
 250:.\Generated_Source\PSoC4/ADC_Infrared.c ****         #if(ADC_Infrared_INJ_CHANNEL_ENABLED)
 251:.\Generated_Source\PSoC4/ADC_Infrared.c ****         if(chNum < ADC_Infrared_SEQUENCED_CHANNELS_NUM)
 252:.\Generated_Source\PSoC4/ADC_Infrared.c ****         #endif /* ADC_Infrared_INJ_CHANNEL_ENABLED */
 253:.\Generated_Source\PSoC4/ADC_Infrared.c ****         {
 254:.\Generated_Source\PSoC4/ADC_Infrared.c ****             CY_SET_REG32((reg32 *)(ADC_Infrared_SAR_CHAN_CONFIG_IND + (uint32)(chNum << 2)), tmpReg
 125              		.loc 1 254 0
 126 007e 3549     		ldr	r1, .L12+80
 127 0080 8C46     		mov	ip, r1
 128 0082 6244     		add	r2, r2, ip
 129 0084 1360     		str	r3, [r2]
 255:.\Generated_Source\PSoC4/ADC_Infrared.c **** 
 256:.\Generated_Source\PSoC4/ADC_Infrared.c ****             if((ADC_Infrared_channelsConfig[chNum] & ADC_Infrared_IS_SATURATE_EN_MASK) != 0u)
 130              		.loc 1 256 0
 131 0086 C307     		lsl	r3, r0, #31
 132 0088 08D5     		bpl	.L4
 133              	.LVL9:
 257:.\Generated_Source\PSoC4/ADC_Infrared.c ****             {
 258:.\Generated_Source\PSoC4/ADC_Infrared.c ****                 ADC_Infrared_SAR_SATURATE_INTR_MASK_REG |= (uint16)((uint16)1 << chNum);
 134              		.loc 1 258 0
 135 008a 2C49     		ldr	r1, .L12+56
 136 008c 0868     		ldr	r0, [r1]
 137 008e 8022     		mov	r2, #128
 138              	.LVL10:
 139 0090 5202     		lsl	r2, r2, #9
ARM GAS  C:\Users\Tim\AppData\Local\Temp\ccQapspG.s 			page 8


 140 0092 131C     		mov	r3, r2
 141 0094 A340     		lsl	r3, r3, r4
 142 0096 1B0C     		lsr	r3, r3, #16
 143 0098 0343     		orr	r3, r0
 144 009a 0B60     		str	r3, [r1]
 145              	.LVL11:
 146              	.L4:
 259:.\Generated_Source\PSoC4/ADC_Infrared.c ****             }
 260:.\Generated_Source\PSoC4/ADC_Infrared.c **** 
 261:.\Generated_Source\PSoC4/ADC_Infrared.c ****             if((ADC_Infrared_channelsConfig[chNum] & ADC_Infrared_IS_RANGE_CTRL_EN_MASK) != 0u)
 147              		.loc 1 261 0
 148 009c A300     		lsl	r3, r4, #2
 149 009e 2C4A     		ldr	r2, .L12+76
 150              	.LVL12:
 151 00a0 9B58     		ldr	r3, [r3, r2]
 152 00a2 9B07     		lsl	r3, r3, #30
 153 00a4 08D5     		bpl	.L5
 262:.\Generated_Source\PSoC4/ADC_Infrared.c ****             {
 263:.\Generated_Source\PSoC4/ADC_Infrared.c ****                 ADC_Infrared_SAR_RANGE_INTR_MASK_REG |= (uint16)((uint16)1 << chNum);
 154              		.loc 1 263 0
 155 00a6 2649     		ldr	r1, .L12+60
 156 00a8 0868     		ldr	r0, [r1]
 157 00aa 8022     		mov	r2, #128
 158              	.LVL13:
 159 00ac 5202     		lsl	r2, r2, #9
 160 00ae 131C     		mov	r3, r2
 161 00b0 A340     		lsl	r3, r3, r4
 162 00b2 1B0C     		lsr	r3, r3, #16
 163 00b4 0343     		orr	r3, r0
 164 00b6 0B60     		str	r3, [r1]
 165              	.L5:
 264:.\Generated_Source\PSoC4/ADC_Infrared.c ****             }
 265:.\Generated_Source\PSoC4/ADC_Infrared.c ****         }
 266:.\Generated_Source\PSoC4/ADC_Infrared.c ****         #if(ADC_Infrared_INJ_CHANNEL_ENABLED)
 267:.\Generated_Source\PSoC4/ADC_Infrared.c ****             else
 268:.\Generated_Source\PSoC4/ADC_Infrared.c ****             {
 269:.\Generated_Source\PSoC4/ADC_Infrared.c ****                 CY_SET_REG32(ADC_Infrared_SAR_INJ_CHAN_CONFIG_PTR, tmpRegVal | ADC_Infrared_INJ_TAI
 270:.\Generated_Source\PSoC4/ADC_Infrared.c **** 
 271:.\Generated_Source\PSoC4/ADC_Infrared.c ****                 if((ADC_Infrared_channelsConfig[chNum] & ADC_Infrared_IS_SATURATE_EN_MASK) != 0u)
 272:.\Generated_Source\PSoC4/ADC_Infrared.c ****                 {
 273:.\Generated_Source\PSoC4/ADC_Infrared.c ****                     ADC_Infrared_SAR_INTR_MASK_REG |= ADC_Infrared_INJ_SATURATE_MASK;
 274:.\Generated_Source\PSoC4/ADC_Infrared.c ****                 }
 275:.\Generated_Source\PSoC4/ADC_Infrared.c **** 
 276:.\Generated_Source\PSoC4/ADC_Infrared.c ****                 if((ADC_Infrared_channelsConfig[chNum] & ADC_Infrared_IS_RANGE_CTRL_EN_MASK) != 0u)
 277:.\Generated_Source\PSoC4/ADC_Infrared.c ****                 {
 278:.\Generated_Source\PSoC4/ADC_Infrared.c ****                     ADC_Infrared_SAR_INTR_MASK_REG |= ADC_Infrared_INJ_RANGE_MASK;
 279:.\Generated_Source\PSoC4/ADC_Infrared.c ****                 }
 280:.\Generated_Source\PSoC4/ADC_Infrared.c ****             }
 281:.\Generated_Source\PSoC4/ADC_Infrared.c ****         #endif /* ADC_Infrared_INJ_CHANNEL_ENABLED */
 282:.\Generated_Source\PSoC4/ADC_Infrared.c **** 
 283:.\Generated_Source\PSoC4/ADC_Infrared.c ****         if((ADC_Infrared_channelsConfig[chNum] & ADC_Infrared_ALT_RESOLUTION_ON) != 0u)
 166              		.loc 1 283 0
 167 00b8 A300     		lsl	r3, r4, #2
 168 00ba 254A     		ldr	r2, .L12+76
 169              	.LVL14:
 170 00bc 9B58     		ldr	r3, [r3, r2]
 171 00be 9A05     		lsl	r2, r3, #22
ARM GAS  C:\Users\Tim\AppData\Local\Temp\ccQapspG.s 			page 9


 172 00c0 02D5     		bpl	.L11
 173              	.LVL15:
 284:.\Generated_Source\PSoC4/ADC_Infrared.c ****         {
 285:.\Generated_Source\PSoC4/ADC_Infrared.c ****                counts = (int32)ADC_Infrared_DEFAULT_MAX_WRK_ALT;
 174              		.loc 1 285 0
 175 00c2 8020     		mov	r0, #128
 176 00c4 4000     		lsl	r0, r0, #1
 177 00c6 01E0     		b	.L6
 178              	.L11:
 286:.\Generated_Source\PSoC4/ADC_Infrared.c ****         }
 287:.\Generated_Source\PSoC4/ADC_Infrared.c ****         else
 288:.\Generated_Source\PSoC4/ADC_Infrared.c ****         {
 289:.\Generated_Source\PSoC4/ADC_Infrared.c ****                counts = (int32)ADC_Infrared_SAR_WRK_MAX_12BIT;
 179              		.loc 1 289 0
 180 00c8 8020     		mov	r0, #128
 181 00ca 4001     		lsl	r0, r0, #5
 182              	.L6:
 183              	.LVL16:
 290:.\Generated_Source\PSoC4/ADC_Infrared.c ****         }
 291:.\Generated_Source\PSoC4/ADC_Infrared.c **** 
 292:.\Generated_Source\PSoC4/ADC_Infrared.c ****         if((ADC_Infrared_channelsConfig[chNum] & ADC_Infrared_DIFFERENTIAL_EN) == 0u)
 184              		.loc 1 292 0
 185 00cc DB05     		lsl	r3, r3, #23
 186 00ce 04D4     		bmi	.L7
 293:.\Generated_Source\PSoC4/ADC_Infrared.c ****         {
 294:.\Generated_Source\PSoC4/ADC_Infrared.c ****             #if((ADC_Infrared_DEFAULT_SE_RESULT_FORMAT_SEL == ADC_Infrared__FSIGNED) && \
 295:.\Generated_Source\PSoC4/ADC_Infrared.c ****                 (ADC_Infrared_DEFAULT_NEG_INPUT_SEL == ADC_Infrared__VREF))
 296:.\Generated_Source\PSoC4/ADC_Infrared.c ****                 /* Set offset to the minus half scale to convert results to unsigned format */
 297:.\Generated_Source\PSoC4/ADC_Infrared.c ****                 ADC_Infrared_offset[chNum] = (int16)(counts / -2);
 298:.\Generated_Source\PSoC4/ADC_Infrared.c ****             #else
 299:.\Generated_Source\PSoC4/ADC_Infrared.c ****                 ADC_Infrared_offset[chNum] = 0;
 187              		.loc 1 299 0
 188 00d0 6300     		lsl	r3, r4, #1
 189 00d2 0021     		mov	r1, #0
 190 00d4 204A     		ldr	r2, .L12+84
 191 00d6 9952     		strh	r1, [r3, r2]
 192 00d8 03E0     		b	.L8
 193              	.L7:
 300:.\Generated_Source\PSoC4/ADC_Infrared.c ****             #endif /* end DEFAULT_SE_RESULT_FORMAT_SEL == ADC_Infrared__FSIGNED */
 301:.\Generated_Source\PSoC4/ADC_Infrared.c ****         }
 302:.\Generated_Source\PSoC4/ADC_Infrared.c ****         else    /* Differential channel */
 303:.\Generated_Source\PSoC4/ADC_Infrared.c ****         {
 304:.\Generated_Source\PSoC4/ADC_Infrared.c ****             #if(ADC_Infrared_DEFAULT_DIFF_RESULT_FORMAT_SEL == ADC_Infrared__FUNSIGNED)
 305:.\Generated_Source\PSoC4/ADC_Infrared.c ****                 /* Set offset to the half scale to convert results to signed format */
 306:.\Generated_Source\PSoC4/ADC_Infrared.c ****                 ADC_Infrared_offset[chNum] = (int16)(counts / 2);
 194              		.loc 1 306 0
 195 00da 4208     		lsr	r2, r0, #1
 196 00dc 6300     		lsl	r3, r4, #1
 197 00de 1E49     		ldr	r1, .L12+84
 198 00e0 5A52     		strh	r2, [r3, r1]
 199              	.L8:
 307:.\Generated_Source\PSoC4/ADC_Infrared.c ****             #else
 308:.\Generated_Source\PSoC4/ADC_Infrared.c ****                 ADC_Infrared_offset[chNum] = 0;
 309:.\Generated_Source\PSoC4/ADC_Infrared.c ****             #endif /* end ADC_Infrared_DEFAULT_DIFF_RESULT_FORMAT_SEL == ADC_Infrared__FUNSIGNED */
 310:.\Generated_Source\PSoC4/ADC_Infrared.c ****         }
 311:.\Generated_Source\PSoC4/ADC_Infrared.c ****         /* Calculate gain in counts per 10 volts with rounding */
 312:.\Generated_Source\PSoC4/ADC_Infrared.c ****         ADC_Infrared_countsPer10Volt[chNum] = (int16)(((counts * ADC_Infrared_10MV_COUNTS) +
ARM GAS  C:\Users\Tim\AppData\Local\Temp\ccQapspG.s 			page 10


 200              		.loc 1 312 0 discriminator 2
 201 00e2 1E4B     		ldr	r3, .L12+88
 202 00e4 5843     		mul	r0, r3
 203              	.LVL17:
 204 00e6 1E4B     		ldr	r3, .L12+92
 205 00e8 9C46     		mov	ip, r3
 206 00ea 6044     		add	r0, r0, ip
 313:.\Generated_Source\PSoC4/ADC_Infrared.c ****                             ADC_Infrared_DEFAULT_VREF_MV_VALUE) / (ADC_Infrared_DEFAULT_VREF_MV_VAL
 207              		.loc 1 313 0 discriminator 2
 208 00ec 1D49     		ldr	r1, .L12+96
 209 00ee FFF7FEFF 		bl	__aeabi_idiv
 210              	.LVL18:
 312:.\Generated_Source\PSoC4/ADC_Infrared.c ****                             ADC_Infrared_DEFAULT_VREF_MV_VALUE) / (ADC_Infrared_DEFAULT_VREF_MV_VAL
 211              		.loc 1 312 0 discriminator 2
 212 00f2 00B2     		sxth	r0, r0
 213 00f4 A200     		lsl	r2, r4, #2
 214 00f6 1C4B     		ldr	r3, .L12+100
 215 00f8 D050     		str	r0, [r2, r3]
 233:.\Generated_Source\PSoC4/ADC_Infrared.c ****     {
 216              		.loc 1 233 0 discriminator 2
 217 00fa 0134     		add	r4, r4, #1
 218              	.LVL19:
 219              	.L3:
 233:.\Generated_Source\PSoC4/ADC_Infrared.c ****     {
 220              		.loc 1 233 0 is_stmt 0 discriminator 1
 221 00fc 072C     		cmp	r4, #7
 222 00fe B5D9     		bls	.L9
 314:.\Generated_Source\PSoC4/ADC_Infrared.c ****     }
 315:.\Generated_Source\PSoC4/ADC_Infrared.c **** }
 223              		.loc 1 315 0 is_stmt 1
 224              		@ sp needed
 225              	.LVL20:
 226 0100 10BD     		pop	{r4, pc}
 227              	.L13:
 228 0102 C046     		.align	2
 229              	.L12:
 230 0104 00000000 		.word	ADC_Infrared_ISR
 231 0108 20003A40 		.word	1077542944
 232 010c 80033A40 		.word	1077543808
 233 0110 502E1013 		.word	319827536
 234 0114 502E0013 		.word	318778960
 235 0118 00003A40 		.word	1077542912
 236 011c 80000080 		.word	-2147483520
 237 0120 04003A40 		.word	1077542916
 238 0124 0000FF07 		.word	134152192
 239 0128 18003A40 		.word	1077542936
 240 012c 1C003A40 		.word	1077542940
 241 0130 04000400 		.word	262148
 242 0134 10003A40 		.word	1077542928
 243 0138 14003A40 		.word	1077542932
 244 013c 28023A40 		.word	1077543464
 245 0140 38023A40 		.word	1077543480
 246 0144 18023A40 		.word	1077543448
 247 0148 30003A40 		.word	1077542960
 248 014c FEFFFFDF 		.word	-536870914
 249 0150 00000000 		.word	.LANCHOR0
 250 0154 80003A40 		.word	1077543040
ARM GAS  C:\Users\Tim\AppData\Local\Temp\ccQapspG.s 			page 11


 251 0158 00000000 		.word	ADC_Infrared_offset
 252 015c 10270000 		.word	10000
 253 0160 C4090000 		.word	2500
 254 0164 88130000 		.word	5000
 255 0168 00000000 		.word	ADC_Infrared_countsPer10Volt
 256              		.cfi_endproc
 257              	.LFE2:
 258              		.size	ADC_Infrared_Init, .-ADC_Infrared_Init
 259              		.section	.text.ADC_Infrared_Enable,"ax",%progbits
 260              		.align	2
 261              		.global	ADC_Infrared_Enable
 262              		.code	16
 263              		.thumb_func
 264              		.type	ADC_Infrared_Enable, %function
 265              	ADC_Infrared_Enable:
 266              	.LFB3:
 316:.\Generated_Source\PSoC4/ADC_Infrared.c **** 
 317:.\Generated_Source\PSoC4/ADC_Infrared.c **** /*******************************************************************************
 318:.\Generated_Source\PSoC4/ADC_Infrared.c **** * Function Name: ADC_SAR_1_Enable
 319:.\Generated_Source\PSoC4/ADC_Infrared.c **** ********************************************************************************
 320:.\Generated_Source\PSoC4/ADC_Infrared.c **** *
 321:.\Generated_Source\PSoC4/ADC_Infrared.c **** * Summary:
 322:.\Generated_Source\PSoC4/ADC_Infrared.c **** *  Enables the clock and analog power for SAR ADC.
 323:.\Generated_Source\PSoC4/ADC_Infrared.c **** *
 324:.\Generated_Source\PSoC4/ADC_Infrared.c **** * Parameters:
 325:.\Generated_Source\PSoC4/ADC_Infrared.c **** *  None.
 326:.\Generated_Source\PSoC4/ADC_Infrared.c **** *
 327:.\Generated_Source\PSoC4/ADC_Infrared.c **** * Return:
 328:.\Generated_Source\PSoC4/ADC_Infrared.c **** *  None.
 329:.\Generated_Source\PSoC4/ADC_Infrared.c **** *
 330:.\Generated_Source\PSoC4/ADC_Infrared.c **** *******************************************************************************/
 331:.\Generated_Source\PSoC4/ADC_Infrared.c **** void ADC_Infrared_Enable(void)
 332:.\Generated_Source\PSoC4/ADC_Infrared.c **** {
 267              		.loc 1 332 0
 268              		.cfi_startproc
 269 0000 08B5     		push	{r3, lr}
 270              		.cfi_def_cfa_offset 8
 271              		.cfi_offset 3, -8
 272              		.cfi_offset 14, -4
 333:.\Generated_Source\PSoC4/ADC_Infrared.c ****     if (0u == (ADC_Infrared_SAR_CTRL_REG & ADC_Infrared_ENABLE))
 273              		.loc 1 333 0
 274 0002 094B     		ldr	r3, .L17
 275 0004 1B68     		ldr	r3, [r3]
 276 0006 002B     		cmp	r3, #0
 277 0008 0CDB     		blt	.L14
 278              	.L16:
 334:.\Generated_Source\PSoC4/ADC_Infrared.c ****     {
 335:.\Generated_Source\PSoC4/ADC_Infrared.c ****         #if(ADC_Infrared_CY_SAR_IP_VER != ADC_Infrared_CY_SAR_IP_VER0)
 336:.\Generated_Source\PSoC4/ADC_Infrared.c **** 
 337:.\Generated_Source\PSoC4/ADC_Infrared.c ****             while (0u != (ADC_Infrared_SAR_STATUS_REG & ADC_Infrared_STATUS_BUSY))
 279              		.loc 1 337 0 discriminator 1
 280 000a 084B     		ldr	r3, .L17+4
 281 000c 1B68     		ldr	r3, [r3]
 282 000e 002B     		cmp	r3, #0
 283 0010 FBDB     		blt	.L16
 338:.\Generated_Source\PSoC4/ADC_Infrared.c ****             {
 339:.\Generated_Source\PSoC4/ADC_Infrared.c ****                 /* wait for SAR to go idle to avoid deadlock */
ARM GAS  C:\Users\Tim\AppData\Local\Temp\ccQapspG.s 			page 12


 340:.\Generated_Source\PSoC4/ADC_Infrared.c ****             }
 341:.\Generated_Source\PSoC4/ADC_Infrared.c ****         #endif /* (ADC_Infrared_CY_SAR_IP_VER != ADC_Infrared_CY_SAR_IP_VER0) */
 342:.\Generated_Source\PSoC4/ADC_Infrared.c ****         
 343:.\Generated_Source\PSoC4/ADC_Infrared.c ****         ADC_Infrared_SAR_CTRL_REG |= ADC_Infrared_ENABLE;
 284              		.loc 1 343 0
 285 0012 054A     		ldr	r2, .L17
 286 0014 1368     		ldr	r3, [r2]
 287 0016 8021     		mov	r1, #128
 288 0018 0906     		lsl	r1, r1, #24
 289 001a 0B43     		orr	r3, r1
 290 001c 1360     		str	r3, [r2]
 344:.\Generated_Source\PSoC4/ADC_Infrared.c ****         
 345:.\Generated_Source\PSoC4/ADC_Infrared.c ****         /* The block is ready to use 10 us after the enable signal is set high. */
 346:.\Generated_Source\PSoC4/ADC_Infrared.c ****         CyDelayUs(ADC_Infrared_10US_DELAY);         
 291              		.loc 1 346 0
 292 001e 0A20     		mov	r0, #10
 293 0020 FFF7FEFF 		bl	CyDelayUs
 294              	.LVL21:
 295              	.L14:
 347:.\Generated_Source\PSoC4/ADC_Infrared.c ****     }
 348:.\Generated_Source\PSoC4/ADC_Infrared.c **** }
 296              		.loc 1 348 0
 297              		@ sp needed
 298 0024 08BD     		pop	{r3, pc}
 299              	.L18:
 300 0026 C046     		.align	2
 301              	.L17:
 302 0028 00003A40 		.word	1077542912
 303 002c 08023A40 		.word	1077543432
 304              		.cfi_endproc
 305              	.LFE3:
 306              		.size	ADC_Infrared_Enable, .-ADC_Infrared_Enable
 307              		.section	.text.ADC_Infrared_Start,"ax",%progbits
 308              		.align	2
 309              		.global	ADC_Infrared_Start
 310              		.code	16
 311              		.thumb_func
 312              		.type	ADC_Infrared_Start, %function
 313              	ADC_Infrared_Start:
 314              	.LFB1:
  65:.\Generated_Source\PSoC4/ADC_Infrared.c ****     /* If not Initialized then initialize all required hardware and software */
 315              		.loc 1 65 0
 316              		.cfi_startproc
 317 0000 08B5     		push	{r3, lr}
 318              		.cfi_def_cfa_offset 8
 319              		.cfi_offset 3, -8
 320              		.cfi_offset 14, -4
  67:.\Generated_Source\PSoC4/ADC_Infrared.c ****     {
 321              		.loc 1 67 0
 322 0002 064B     		ldr	r3, .L21
 323 0004 1B78     		ldrb	r3, [r3]
 324 0006 002B     		cmp	r3, #0
 325 0008 04D1     		bne	.L20
  69:.\Generated_Source\PSoC4/ADC_Infrared.c ****         ADC_Infrared_initVar = 1u;
 326              		.loc 1 69 0
 327 000a FFF7FEFF 		bl	ADC_Infrared_Init
 328              	.LVL22:
ARM GAS  C:\Users\Tim\AppData\Local\Temp\ccQapspG.s 			page 13


  70:.\Generated_Source\PSoC4/ADC_Infrared.c ****     }
 329              		.loc 1 70 0
 330 000e 0122     		mov	r2, #1
 331 0010 024B     		ldr	r3, .L21
 332 0012 1A70     		strb	r2, [r3]
 333              	.L20:
  72:.\Generated_Source\PSoC4/ADC_Infrared.c **** }
 334              		.loc 1 72 0
 335 0014 FFF7FEFF 		bl	ADC_Infrared_Enable
 336              	.LVL23:
  73:.\Generated_Source\PSoC4/ADC_Infrared.c **** 
 337              		.loc 1 73 0
 338              		@ sp needed
 339 0018 08BD     		pop	{r3, pc}
 340              	.L22:
 341 001a C046     		.align	2
 342              	.L21:
 343 001c 00000000 		.word	.LANCHOR1
 344              		.cfi_endproc
 345              	.LFE1:
 346              		.size	ADC_Infrared_Start, .-ADC_Infrared_Start
 347              		.section	.text.ADC_Infrared_Stop,"ax",%progbits
 348              		.align	2
 349              		.global	ADC_Infrared_Stop
 350              		.code	16
 351              		.thumb_func
 352              		.type	ADC_Infrared_Stop, %function
 353              	ADC_Infrared_Stop:
 354              	.LFB4:
 349:.\Generated_Source\PSoC4/ADC_Infrared.c **** 
 350:.\Generated_Source\PSoC4/ADC_Infrared.c **** 
 351:.\Generated_Source\PSoC4/ADC_Infrared.c **** /*******************************************************************************
 352:.\Generated_Source\PSoC4/ADC_Infrared.c **** * Function Name: ADC_Infrared_Stop
 353:.\Generated_Source\PSoC4/ADC_Infrared.c **** ********************************************************************************
 354:.\Generated_Source\PSoC4/ADC_Infrared.c **** *
 355:.\Generated_Source\PSoC4/ADC_Infrared.c **** * Summary:
 356:.\Generated_Source\PSoC4/ADC_Infrared.c **** *  This function stops ADC conversions and puts the ADC into its lowest power
 357:.\Generated_Source\PSoC4/ADC_Infrared.c **** *  mode.
 358:.\Generated_Source\PSoC4/ADC_Infrared.c **** *
 359:.\Generated_Source\PSoC4/ADC_Infrared.c **** * Parameters:
 360:.\Generated_Source\PSoC4/ADC_Infrared.c **** *  None.
 361:.\Generated_Source\PSoC4/ADC_Infrared.c **** *
 362:.\Generated_Source\PSoC4/ADC_Infrared.c **** * Return:
 363:.\Generated_Source\PSoC4/ADC_Infrared.c **** *  None.
 364:.\Generated_Source\PSoC4/ADC_Infrared.c **** *
 365:.\Generated_Source\PSoC4/ADC_Infrared.c **** *******************************************************************************/
 366:.\Generated_Source\PSoC4/ADC_Infrared.c **** void ADC_Infrared_Stop(void)
 367:.\Generated_Source\PSoC4/ADC_Infrared.c **** {
 355              		.loc 1 367 0
 356              		.cfi_startproc
 368:.\Generated_Source\PSoC4/ADC_Infrared.c ****     ADC_Infrared_SAR_CTRL_REG &= (uint32)~ADC_Infrared_ENABLE;
 357              		.loc 1 368 0
 358 0000 024A     		ldr	r2, .L24
 359 0002 1368     		ldr	r3, [r2]
 360 0004 5B00     		lsl	r3, r3, #1
 361 0006 5B08     		lsr	r3, r3, #1
 362 0008 1360     		str	r3, [r2]
ARM GAS  C:\Users\Tim\AppData\Local\Temp\ccQapspG.s 			page 14


 369:.\Generated_Source\PSoC4/ADC_Infrared.c **** }
 363              		.loc 1 369 0
 364              		@ sp needed
 365 000a 7047     		bx	lr
 366              	.L25:
 367              		.align	2
 368              	.L24:
 369 000c 00003A40 		.word	1077542912
 370              		.cfi_endproc
 371              	.LFE4:
 372              		.size	ADC_Infrared_Stop, .-ADC_Infrared_Stop
 373              		.section	.text.ADC_Infrared_StartConvert,"ax",%progbits
 374              		.align	2
 375              		.global	ADC_Infrared_StartConvert
 376              		.code	16
 377              		.thumb_func
 378              		.type	ADC_Infrared_StartConvert, %function
 379              	ADC_Infrared_StartConvert:
 380              	.LFB5:
 370:.\Generated_Source\PSoC4/ADC_Infrared.c **** 
 371:.\Generated_Source\PSoC4/ADC_Infrared.c **** 
 372:.\Generated_Source\PSoC4/ADC_Infrared.c **** /*******************************************************************************
 373:.\Generated_Source\PSoC4/ADC_Infrared.c **** * Function Name: ADC_Infrared_StartConvert
 374:.\Generated_Source\PSoC4/ADC_Infrared.c **** ********************************************************************************
 375:.\Generated_Source\PSoC4/ADC_Infrared.c **** *
 376:.\Generated_Source\PSoC4/ADC_Infrared.c **** * Summary:
 377:.\Generated_Source\PSoC4/ADC_Infrared.c **** *  Description:
 378:.\Generated_Source\PSoC4/ADC_Infrared.c **** *  For free running mode, this API starts the conversion process and it
 379:.\Generated_Source\PSoC4/ADC_Infrared.c **** *  runs continuously.
 380:.\Generated_Source\PSoC4/ADC_Infrared.c **** *
 381:.\Generated_Source\PSoC4/ADC_Infrared.c **** *  In a triggered mode, this routine triggers every conversion by
 382:.\Generated_Source\PSoC4/ADC_Infrared.c **** *  writing into the FW_TRIGGER bit in SAR_START_CTRL reg. In triggered mode,
 383:.\Generated_Source\PSoC4/ADC_Infrared.c **** *  every conversion has to start by this API.
 384:.\Generated_Source\PSoC4/ADC_Infrared.c **** *
 385:.\Generated_Source\PSoC4/ADC_Infrared.c **** * Parameters:
 386:.\Generated_Source\PSoC4/ADC_Infrared.c **** *  None.
 387:.\Generated_Source\PSoC4/ADC_Infrared.c **** *
 388:.\Generated_Source\PSoC4/ADC_Infrared.c **** * Return:
 389:.\Generated_Source\PSoC4/ADC_Infrared.c **** *  None.
 390:.\Generated_Source\PSoC4/ADC_Infrared.c **** *
 391:.\Generated_Source\PSoC4/ADC_Infrared.c **** *******************************************************************************/
 392:.\Generated_Source\PSoC4/ADC_Infrared.c **** void ADC_Infrared_StartConvert(void)
 393:.\Generated_Source\PSoC4/ADC_Infrared.c **** {
 381              		.loc 1 393 0
 382              		.cfi_startproc
 394:.\Generated_Source\PSoC4/ADC_Infrared.c ****     #if(ADC_Infrared_DEFAULT_SAMPLE_MODE_SEL == ADC_Infrared__FREERUNNING)
 395:.\Generated_Source\PSoC4/ADC_Infrared.c ****         ADC_Infrared_SAR_SAMPLE_CTRL_REG |= ADC_Infrared_CONTINUOUS_EN;
 383              		.loc 1 395 0
 384 0000 034A     		ldr	r2, .L27
 385 0002 1368     		ldr	r3, [r2]
 386 0004 8021     		mov	r1, #128
 387 0006 4902     		lsl	r1, r1, #9
 388 0008 0B43     		orr	r3, r1
 389 000a 1360     		str	r3, [r2]
 396:.\Generated_Source\PSoC4/ADC_Infrared.c ****     #else /* Firmware trigger */
 397:.\Generated_Source\PSoC4/ADC_Infrared.c ****         ADC_Infrared_SAR_START_CTRL_REG = ADC_Infrared_FW_TRIGGER;
 398:.\Generated_Source\PSoC4/ADC_Infrared.c ****     #endif /* End ADC_Infrared_DEFAULT_SAMPLE_MODE == ADC_Infrared__FREERUNNING */
ARM GAS  C:\Users\Tim\AppData\Local\Temp\ccQapspG.s 			page 15


 399:.\Generated_Source\PSoC4/ADC_Infrared.c **** 
 400:.\Generated_Source\PSoC4/ADC_Infrared.c **** }
 390              		.loc 1 400 0
 391              		@ sp needed
 392 000c 7047     		bx	lr
 393              	.L28:
 394 000e C046     		.align	2
 395              	.L27:
 396 0010 04003A40 		.word	1077542916
 397              		.cfi_endproc
 398              	.LFE5:
 399              		.size	ADC_Infrared_StartConvert, .-ADC_Infrared_StartConvert
 400              		.section	.text.ADC_Infrared_StopConvert,"ax",%progbits
 401              		.align	2
 402              		.global	ADC_Infrared_StopConvert
 403              		.code	16
 404              		.thumb_func
 405              		.type	ADC_Infrared_StopConvert, %function
 406              	ADC_Infrared_StopConvert:
 407              	.LFB6:
 401:.\Generated_Source\PSoC4/ADC_Infrared.c **** 
 402:.\Generated_Source\PSoC4/ADC_Infrared.c **** 
 403:.\Generated_Source\PSoC4/ADC_Infrared.c **** /*******************************************************************************
 404:.\Generated_Source\PSoC4/ADC_Infrared.c **** * Function Name: ADC_Infrared_StopConvert
 405:.\Generated_Source\PSoC4/ADC_Infrared.c **** ********************************************************************************
 406:.\Generated_Source\PSoC4/ADC_Infrared.c **** *
 407:.\Generated_Source\PSoC4/ADC_Infrared.c **** * Summary:
 408:.\Generated_Source\PSoC4/ADC_Infrared.c **** *  Forces the ADC to stop all conversions.
 409:.\Generated_Source\PSoC4/ADC_Infrared.c **** *
 410:.\Generated_Source\PSoC4/ADC_Infrared.c **** * Parameters:
 411:.\Generated_Source\PSoC4/ADC_Infrared.c **** *  None.
 412:.\Generated_Source\PSoC4/ADC_Infrared.c **** *
 413:.\Generated_Source\PSoC4/ADC_Infrared.c **** * Return:
 414:.\Generated_Source\PSoC4/ADC_Infrared.c **** *  None.
 415:.\Generated_Source\PSoC4/ADC_Infrared.c **** *
 416:.\Generated_Source\PSoC4/ADC_Infrared.c **** *******************************************************************************/
 417:.\Generated_Source\PSoC4/ADC_Infrared.c **** void ADC_Infrared_StopConvert(void)
 418:.\Generated_Source\PSoC4/ADC_Infrared.c **** {
 408              		.loc 1 418 0
 409              		.cfi_startproc
 419:.\Generated_Source\PSoC4/ADC_Infrared.c ****     #if(ADC_Infrared_DEFAULT_SAMPLE_MODE_SEL == ADC_Infrared__FREERUNNING)
 420:.\Generated_Source\PSoC4/ADC_Infrared.c ****         ADC_Infrared_SAR_SAMPLE_CTRL_REG &= (uint32)(~ADC_Infrared_CONTINUOUS_EN);
 410              		.loc 1 420 0
 411 0000 024A     		ldr	r2, .L30
 412 0002 1168     		ldr	r1, [r2]
 413 0004 024B     		ldr	r3, .L30+4
 414 0006 0B40     		and	r3, r1
 415 0008 1360     		str	r3, [r2]
 421:.\Generated_Source\PSoC4/ADC_Infrared.c ****     #endif /* ADC_Infrared_DEFAULT_SAMPLE_MODE == ADC_Infrared__FREERUNNING */
 422:.\Generated_Source\PSoC4/ADC_Infrared.c **** }
 416              		.loc 1 422 0
 417              		@ sp needed
 418 000a 7047     		bx	lr
 419              	.L31:
 420              		.align	2
 421              	.L30:
 422 000c 04003A40 		.word	1077542916
ARM GAS  C:\Users\Tim\AppData\Local\Temp\ccQapspG.s 			page 16


 423 0010 FFFFFEFF 		.word	-65537
 424              		.cfi_endproc
 425              	.LFE6:
 426              		.size	ADC_Infrared_StopConvert, .-ADC_Infrared_StopConvert
 427              		.section	.text.ADC_Infrared_IsEndConversion,"ax",%progbits
 428              		.align	2
 429              		.global	ADC_Infrared_IsEndConversion
 430              		.code	16
 431              		.thumb_func
 432              		.type	ADC_Infrared_IsEndConversion, %function
 433              	ADC_Infrared_IsEndConversion:
 434              	.LFB7:
 423:.\Generated_Source\PSoC4/ADC_Infrared.c **** 
 424:.\Generated_Source\PSoC4/ADC_Infrared.c **** 
 425:.\Generated_Source\PSoC4/ADC_Infrared.c **** /*******************************************************************************
 426:.\Generated_Source\PSoC4/ADC_Infrared.c **** * Function Name: ADC_Infrared_IsEndConversion
 427:.\Generated_Source\PSoC4/ADC_Infrared.c **** ********************************************************************************
 428:.\Generated_Source\PSoC4/ADC_Infrared.c **** *
 429:.\Generated_Source\PSoC4/ADC_Infrared.c **** * Summary:
 430:.\Generated_Source\PSoC4/ADC_Infrared.c **** *  Description: Checks for ADC end of conversion for the case one
 431:.\Generated_Source\PSoC4/ADC_Infrared.c **** *  channel and end of scan for the case of multiple channels. It acts
 432:.\Generated_Source\PSoC4/ADC_Infrared.c **** *  as a software version of the EOC. This function provides the
 433:.\Generated_Source\PSoC4/ADC_Infrared.c **** *  programmer with two options. In one mode this function
 434:.\Generated_Source\PSoC4/ADC_Infrared.c **** *  immediately returns with the conversion status. In the other mode,
 435:.\Generated_Source\PSoC4/ADC_Infrared.c **** *  the function does not return (blocking) until the conversion has
 436:.\Generated_Source\PSoC4/ADC_Infrared.c **** *  completed.
 437:.\Generated_Source\PSoC4/ADC_Infrared.c **** *
 438:.\Generated_Source\PSoC4/ADC_Infrared.c **** * Parameters:
 439:.\Generated_Source\PSoC4/ADC_Infrared.c **** *  ADC_RETURN_STATUS        -> Immediately returns conversion result status
 440:.\Generated_Source\PSoC4/ADC_Infrared.c **** *  ADC_WAIT_FOR_RESULT      -> Does not return until ADC complete
 441:.\Generated_Source\PSoC4/ADC_Infrared.c **** *  ADC_RETURN_STATUS_INJ    -> Immediately returns conversion result status
 442:.\Generated_Source\PSoC4/ADC_Infrared.c **** *                              for injection channel
 443:.\Generated_Source\PSoC4/ADC_Infrared.c **** *  ADC_WAIT_FOR_RESULT_INJ  -> Does not return until ADC completes injection
 444:.\Generated_Source\PSoC4/ADC_Infrared.c **** *                              channel conversion
 445:.\Generated_Source\PSoC4/ADC_Infrared.c **** *
 446:.\Generated_Source\PSoC4/ADC_Infrared.c **** * Return:
 447:.\Generated_Source\PSoC4/ADC_Infrared.c **** *  If a non-zero value is returned, the last conversion or scan has completed.
 448:.\Generated_Source\PSoC4/ADC_Infrared.c **** *  If the returned value is zero, the ADC is still in the process of a scan.
 449:.\Generated_Source\PSoC4/ADC_Infrared.c **** *
 450:.\Generated_Source\PSoC4/ADC_Infrared.c **** *******************************************************************************/
 451:.\Generated_Source\PSoC4/ADC_Infrared.c **** uint32 ADC_Infrared_IsEndConversion(uint32 retMode)
 452:.\Generated_Source\PSoC4/ADC_Infrared.c **** {
 435              		.loc 1 452 0
 436              		.cfi_startproc
 437              	.LVL24:
 438 0000 021C     		mov	r2, r0
 439              	.LVL25:
 453:.\Generated_Source\PSoC4/ADC_Infrared.c ****     uint32 status = 0u;
 454:.\Generated_Source\PSoC4/ADC_Infrared.c **** 
 455:.\Generated_Source\PSoC4/ADC_Infrared.c ****     if((retMode & (ADC_Infrared_RETURN_STATUS | ADC_Infrared_WAIT_FOR_RESULT)) != 0u)
 440              		.loc 1 455 0
 441 0002 8307     		lsl	r3, r0, #30
 442 0004 0CD0     		beq	.L36
 443              	.LVL26:
 444              	.L35:
 456:.\Generated_Source\PSoC4/ADC_Infrared.c ****     {
 457:.\Generated_Source\PSoC4/ADC_Infrared.c ****         do
ARM GAS  C:\Users\Tim\AppData\Local\Temp\ccQapspG.s 			page 17


 458:.\Generated_Source\PSoC4/ADC_Infrared.c ****         {
 459:.\Generated_Source\PSoC4/ADC_Infrared.c ****             status = ADC_Infrared_SAR_INTR_REG & ADC_Infrared_EOS_MASK;
 445              		.loc 1 459 0 discriminator 2
 446 0006 074B     		ldr	r3, .L37
 447 0008 1B68     		ldr	r3, [r3]
 448 000a 0120     		mov	r0, #1
 449 000c 1840     		and	r0, r3
 450              	.LVL27:
 460:.\Generated_Source\PSoC4/ADC_Infrared.c ****         }while((status == 0u) && ((retMode & ADC_Infrared_WAIT_FOR_RESULT) != 0u));
 451              		.loc 1 460 0 discriminator 2
 452 000e 01D1     		bne	.L34
 453              		.loc 1 460 0 is_stmt 0 discriminator 1
 454 0010 9307     		lsl	r3, r2, #30
 455 0012 F8D4     		bmi	.L35
 456              	.L34:
 461:.\Generated_Source\PSoC4/ADC_Infrared.c **** 
 462:.\Generated_Source\PSoC4/ADC_Infrared.c ****         if(status != 0u)
 457              		.loc 1 462 0 is_stmt 1
 458 0014 0028     		cmp	r0, #0
 459 0016 04D0     		beq	.L33
 463:.\Generated_Source\PSoC4/ADC_Infrared.c ****         {
 464:.\Generated_Source\PSoC4/ADC_Infrared.c ****             /* Clear EOS bit */
 465:.\Generated_Source\PSoC4/ADC_Infrared.c ****             ADC_Infrared_SAR_INTR_REG = ADC_Infrared_EOS_MASK;
 460              		.loc 1 465 0
 461 0018 0122     		mov	r2, #1
 462              	.LVL28:
 463 001a 024B     		ldr	r3, .L37
 464 001c 1A60     		str	r2, [r3]
 465 001e 00E0     		b	.L33
 466              	.LVL29:
 467              	.L36:
 453:.\Generated_Source\PSoC4/ADC_Infrared.c **** 
 468              		.loc 1 453 0
 469 0020 0020     		mov	r0, #0
 470              	.LVL30:
 471              	.L33:
 466:.\Generated_Source\PSoC4/ADC_Infrared.c ****         }
 467:.\Generated_Source\PSoC4/ADC_Infrared.c ****     }
 468:.\Generated_Source\PSoC4/ADC_Infrared.c **** 
 469:.\Generated_Source\PSoC4/ADC_Infrared.c ****     #if(ADC_Infrared_INJ_CHANNEL_ENABLED)
 470:.\Generated_Source\PSoC4/ADC_Infrared.c ****         if((retMode & (ADC_Infrared_RETURN_STATUS_INJ | ADC_Infrared_WAIT_FOR_RESULT_INJ)) != 0u)
 471:.\Generated_Source\PSoC4/ADC_Infrared.c ****         {
 472:.\Generated_Source\PSoC4/ADC_Infrared.c ****             do
 473:.\Generated_Source\PSoC4/ADC_Infrared.c ****             {
 474:.\Generated_Source\PSoC4/ADC_Infrared.c ****                 status |= ADC_Infrared_SAR_INTR_REG & ADC_Infrared_INJ_EOC_MASK;
 475:.\Generated_Source\PSoC4/ADC_Infrared.c ****             }while(((status & ADC_Infrared_INJ_EOC_MASK) == 0u) &&
 476:.\Generated_Source\PSoC4/ADC_Infrared.c ****                    ((retMode & ADC_Infrared_WAIT_FOR_RESULT_INJ) != 0u));
 477:.\Generated_Source\PSoC4/ADC_Infrared.c **** 
 478:.\Generated_Source\PSoC4/ADC_Infrared.c ****             if((status & ADC_Infrared_INJ_EOC_MASK) != 0u)
 479:.\Generated_Source\PSoC4/ADC_Infrared.c ****             {
 480:.\Generated_Source\PSoC4/ADC_Infrared.c ****                 /* Clear Injection EOS bit */
 481:.\Generated_Source\PSoC4/ADC_Infrared.c ****                 ADC_Infrared_SAR_INTR_REG = ADC_Infrared_INJ_EOC_MASK;
 482:.\Generated_Source\PSoC4/ADC_Infrared.c ****             }
 483:.\Generated_Source\PSoC4/ADC_Infrared.c ****         }
 484:.\Generated_Source\PSoC4/ADC_Infrared.c ****     #endif /* ADC_Infrared_INJ_CHANNEL_ENABLED */
 485:.\Generated_Source\PSoC4/ADC_Infrared.c **** 
 486:.\Generated_Source\PSoC4/ADC_Infrared.c ****     return (status);
ARM GAS  C:\Users\Tim\AppData\Local\Temp\ccQapspG.s 			page 18


 487:.\Generated_Source\PSoC4/ADC_Infrared.c **** }
 472              		.loc 1 487 0
 473              		@ sp needed
 474 0022 7047     		bx	lr
 475              	.L38:
 476              		.align	2
 477              	.L37:
 478 0024 10023A40 		.word	1077543440
 479              		.cfi_endproc
 480              	.LFE7:
 481              		.size	ADC_Infrared_IsEndConversion, .-ADC_Infrared_IsEndConversion
 482              		.section	.text.ADC_Infrared_GetResult16,"ax",%progbits
 483              		.align	2
 484              		.global	ADC_Infrared_GetResult16
 485              		.code	16
 486              		.thumb_func
 487              		.type	ADC_Infrared_GetResult16, %function
 488              	ADC_Infrared_GetResult16:
 489              	.LFB8:
 488:.\Generated_Source\PSoC4/ADC_Infrared.c **** 
 489:.\Generated_Source\PSoC4/ADC_Infrared.c **** 
 490:.\Generated_Source\PSoC4/ADC_Infrared.c **** /*******************************************************************************
 491:.\Generated_Source\PSoC4/ADC_Infrared.c **** * Function Name: ADC_Infrared_GetResult16
 492:.\Generated_Source\PSoC4/ADC_Infrared.c **** ********************************************************************************
 493:.\Generated_Source\PSoC4/ADC_Infrared.c **** *
 494:.\Generated_Source\PSoC4/ADC_Infrared.c **** * Summary:
 495:.\Generated_Source\PSoC4/ADC_Infrared.c **** *  Gets the data available in the SAR DATA register.
 496:.\Generated_Source\PSoC4/ADC_Infrared.c **** *
 497:.\Generated_Source\PSoC4/ADC_Infrared.c **** * Parameters:
 498:.\Generated_Source\PSoC4/ADC_Infrared.c **** *  chan: The ADC channel in which to return the result. The first channel
 499:.\Generated_Source\PSoC4/ADC_Infrared.c **** *  is 0 and the injection channel if enabled is the number of valid channels.
 500:.\Generated_Source\PSoC4/ADC_Infrared.c **** *
 501:.\Generated_Source\PSoC4/ADC_Infrared.c **** * Return:
 502:.\Generated_Source\PSoC4/ADC_Infrared.c **** *  Returns converted data as a signed 16-bit integer
 503:.\Generated_Source\PSoC4/ADC_Infrared.c **** *
 504:.\Generated_Source\PSoC4/ADC_Infrared.c **** *******************************************************************************/
 505:.\Generated_Source\PSoC4/ADC_Infrared.c **** int16 ADC_Infrared_GetResult16(uint32 chan)
 506:.\Generated_Source\PSoC4/ADC_Infrared.c **** {
 490              		.loc 1 506 0
 491              		.cfi_startproc
 492              	.LVL31:
 493 0000 10B5     		push	{r4, lr}
 494              		.cfi_def_cfa_offset 8
 495              		.cfi_offset 4, -8
 496              		.cfi_offset 14, -4
 497 0002 041E     		sub	r4, r0, #0
 507:.\Generated_Source\PSoC4/ADC_Infrared.c ****     uint32 result;
 508:.\Generated_Source\PSoC4/ADC_Infrared.c **** 
 509:.\Generated_Source\PSoC4/ADC_Infrared.c ****     /* Halt CPU in debug mode if channel is out of valid range */
 510:.\Generated_Source\PSoC4/ADC_Infrared.c ****     CYASSERT(chan < ADC_Infrared_TOTAL_CHANNELS_NUM);
 498              		.loc 1 510 0
 499 0004 072C     		cmp	r4, #7
 500 0006 02D9     		bls	.L40
 501              		.loc 1 510 0 is_stmt 0 discriminator 1
 502 0008 0020     		mov	r0, #0
 503              	.LVL32:
 504 000a FFF7FEFF 		bl	CyHalt
ARM GAS  C:\Users\Tim\AppData\Local\Temp\ccQapspG.s 			page 19


 505              	.LVL33:
 506              	.L40:
 511:.\Generated_Source\PSoC4/ADC_Infrared.c **** 
 512:.\Generated_Source\PSoC4/ADC_Infrared.c ****     if(chan < ADC_Infrared_SEQUENCED_CHANNELS_NUM)
 507              		.loc 1 512 0 is_stmt 1
 508 000e 072C     		cmp	r4, #7
 509 0010 07D8     		bhi	.L42
 513:.\Generated_Source\PSoC4/ADC_Infrared.c ****     {
 514:.\Generated_Source\PSoC4/ADC_Infrared.c ****         result = CY_GET_REG32((reg32 *)(ADC_Infrared_SAR_CHAN_RESULT_IND + (uint32)(chan << 2u))) &
 510              		.loc 1 514 0
 511 0012 A400     		lsl	r4, r4, #2
 512              	.LVL34:
 513 0014 044B     		ldr	r3, .L43
 514 0016 9C46     		mov	ip, r3
 515 0018 6444     		add	r4, r4, ip
 516 001a 2068     		ldr	r0, [r4]
 517 001c 0004     		lsl	r0, r0, #16
 518 001e 000C     		lsr	r0, r0, #16
 519              	.LVL35:
 520 0020 00E0     		b	.L41
 521              	.LVL36:
 522              	.L42:
 515:.\Generated_Source\PSoC4/ADC_Infrared.c ****                 ADC_Infrared_RESULT_MASK;
 516:.\Generated_Source\PSoC4/ADC_Infrared.c ****     }
 517:.\Generated_Source\PSoC4/ADC_Infrared.c ****     else
 518:.\Generated_Source\PSoC4/ADC_Infrared.c ****     {
 519:.\Generated_Source\PSoC4/ADC_Infrared.c ****         #if(ADC_Infrared_INJ_CHANNEL_ENABLED)
 520:.\Generated_Source\PSoC4/ADC_Infrared.c ****             result = ADC_Infrared_SAR_INJ_RESULT_REG & ADC_Infrared_RESULT_MASK;
 521:.\Generated_Source\PSoC4/ADC_Infrared.c ****         #else
 522:.\Generated_Source\PSoC4/ADC_Infrared.c ****             result = 0u;
 523              		.loc 1 522 0
 524 0022 0020     		mov	r0, #0
 525              	.LVL37:
 526              	.L41:
 523:.\Generated_Source\PSoC4/ADC_Infrared.c ****         #endif /* ADC_Infrared_INJ_CHANNEL_ENABLED */
 524:.\Generated_Source\PSoC4/ADC_Infrared.c ****     }
 525:.\Generated_Source\PSoC4/ADC_Infrared.c **** 
 526:.\Generated_Source\PSoC4/ADC_Infrared.c ****     return ( (int16)result );
 527              		.loc 1 526 0
 528 0024 00B2     		sxth	r0, r0
 529              	.LVL38:
 527:.\Generated_Source\PSoC4/ADC_Infrared.c **** }
 530              		.loc 1 527 0
 531              		@ sp needed
 532 0026 10BD     		pop	{r4, pc}
 533              	.L44:
 534              		.align	2
 535              	.L43:
 536 0028 80013A40 		.word	1077543296
 537              		.cfi_endproc
 538              	.LFE8:
 539              		.size	ADC_Infrared_GetResult16, .-ADC_Infrared_GetResult16
 540              		.section	.text.ADC_Infrared_SetChanMask,"ax",%progbits
 541              		.align	2
 542              		.global	ADC_Infrared_SetChanMask
 543              		.code	16
 544              		.thumb_func
ARM GAS  C:\Users\Tim\AppData\Local\Temp\ccQapspG.s 			page 20


 545              		.type	ADC_Infrared_SetChanMask, %function
 546              	ADC_Infrared_SetChanMask:
 547              	.LFB9:
 528:.\Generated_Source\PSoC4/ADC_Infrared.c **** 
 529:.\Generated_Source\PSoC4/ADC_Infrared.c **** 
 530:.\Generated_Source\PSoC4/ADC_Infrared.c **** /*******************************************************************************
 531:.\Generated_Source\PSoC4/ADC_Infrared.c **** * Function Name: ADC_Infrared_SetChanMask
 532:.\Generated_Source\PSoC4/ADC_Infrared.c **** ********************************************************************************
 533:.\Generated_Source\PSoC4/ADC_Infrared.c **** *
 534:.\Generated_Source\PSoC4/ADC_Infrared.c **** * Summary:
 535:.\Generated_Source\PSoC4/ADC_Infrared.c **** *  Sets the channel enable mask.
 536:.\Generated_Source\PSoC4/ADC_Infrared.c **** *
 537:.\Generated_Source\PSoC4/ADC_Infrared.c **** * Parameters:
 538:.\Generated_Source\PSoC4/ADC_Infrared.c **** *  mask: Sets which channels that will be
 539:.\Generated_Source\PSoC4/ADC_Infrared.c **** *  scanned. Setting bits for channels that do not exist will have no
 540:.\Generated_Source\PSoC4/ADC_Infrared.c **** *  effect. For example, if only 6 channels were enabled, setting a
 541:.\Generated_Source\PSoC4/ADC_Infrared.c **** *  mask of 0x0103 would only enable the last two channels (0 and 1).
 542:.\Generated_Source\PSoC4/ADC_Infrared.c **** *  This API will not enable the injection channel.
 543:.\Generated_Source\PSoC4/ADC_Infrared.c **** *  Examples: If the component is setup to sequence through 8
 544:.\Generated_Source\PSoC4/ADC_Infrared.c **** *  channels, a mask of 0x000F would enable channels 0, 1, 2, and 3.
 545:.\Generated_Source\PSoC4/ADC_Infrared.c **** *
 546:.\Generated_Source\PSoC4/ADC_Infrared.c **** * Return:
 547:.\Generated_Source\PSoC4/ADC_Infrared.c **** *  None.
 548:.\Generated_Source\PSoC4/ADC_Infrared.c **** *
 549:.\Generated_Source\PSoC4/ADC_Infrared.c **** *******************************************************************************/
 550:.\Generated_Source\PSoC4/ADC_Infrared.c **** void ADC_Infrared_SetChanMask(uint32 mask)
 551:.\Generated_Source\PSoC4/ADC_Infrared.c **** {
 548              		.loc 1 551 0
 549              		.cfi_startproc
 550              	.LVL39:
 552:.\Generated_Source\PSoC4/ADC_Infrared.c ****     ADC_Infrared_SAR_CHAN_EN_REG = mask & ADC_Infrared_MAX_CHANNELS_EN_MASK;
 551              		.loc 1 552 0
 552 0000 FF23     		mov	r3, #255
 553 0002 1840     		and	r0, r3
 554              	.LVL40:
 555 0004 014B     		ldr	r3, .L46
 556 0006 1860     		str	r0, [r3]
 553:.\Generated_Source\PSoC4/ADC_Infrared.c **** }
 557              		.loc 1 553 0
 558              		@ sp needed
 559 0008 7047     		bx	lr
 560              	.L47:
 561 000a C046     		.align	2
 562              	.L46:
 563 000c 20003A40 		.word	1077542944
 564              		.cfi_endproc
 565              	.LFE9:
 566              		.size	ADC_Infrared_SetChanMask, .-ADC_Infrared_SetChanMask
 567              		.section	.text.ADC_Infrared_SetLowLimit,"ax",%progbits
 568              		.align	2
 569              		.global	ADC_Infrared_SetLowLimit
 570              		.code	16
 571              		.thumb_func
 572              		.type	ADC_Infrared_SetLowLimit, %function
 573              	ADC_Infrared_SetLowLimit:
 574              	.LFB10:
 554:.\Generated_Source\PSoC4/ADC_Infrared.c **** 
ARM GAS  C:\Users\Tim\AppData\Local\Temp\ccQapspG.s 			page 21


 555:.\Generated_Source\PSoC4/ADC_Infrared.c **** #if(ADC_Infrared_INJ_CHANNEL_ENABLED)
 556:.\Generated_Source\PSoC4/ADC_Infrared.c **** 
 557:.\Generated_Source\PSoC4/ADC_Infrared.c **** 
 558:.\Generated_Source\PSoC4/ADC_Infrared.c ****     /*******************************************************************************
 559:.\Generated_Source\PSoC4/ADC_Infrared.c ****     * Function Name: ADC_Infrared_EnableInjection
 560:.\Generated_Source\PSoC4/ADC_Infrared.c ****     ********************************************************************************
 561:.\Generated_Source\PSoC4/ADC_Infrared.c ****     *
 562:.\Generated_Source\PSoC4/ADC_Infrared.c ****     * Summary:
 563:.\Generated_Source\PSoC4/ADC_Infrared.c ****     *  Enables the injection channel for the next scan only.
 564:.\Generated_Source\PSoC4/ADC_Infrared.c ****     *
 565:.\Generated_Source\PSoC4/ADC_Infrared.c ****     * Parameters:
 566:.\Generated_Source\PSoC4/ADC_Infrared.c ****     *  None.
 567:.\Generated_Source\PSoC4/ADC_Infrared.c ****     *
 568:.\Generated_Source\PSoC4/ADC_Infrared.c ****     * Return:
 569:.\Generated_Source\PSoC4/ADC_Infrared.c ****     *  None.
 570:.\Generated_Source\PSoC4/ADC_Infrared.c ****     *
 571:.\Generated_Source\PSoC4/ADC_Infrared.c ****     *******************************************************************************/
 572:.\Generated_Source\PSoC4/ADC_Infrared.c ****     void ADC_Infrared_EnableInjection(void)
 573:.\Generated_Source\PSoC4/ADC_Infrared.c ****     {
 574:.\Generated_Source\PSoC4/ADC_Infrared.c ****         ADC_Infrared_SAR_INJ_CHAN_CONFIG_REG |= ADC_Infrared_INJ_CHAN_EN;
 575:.\Generated_Source\PSoC4/ADC_Infrared.c ****     }
 576:.\Generated_Source\PSoC4/ADC_Infrared.c **** 
 577:.\Generated_Source\PSoC4/ADC_Infrared.c **** #endif /* ADC_Infrared_INJ_CHANNEL_ENABLED */
 578:.\Generated_Source\PSoC4/ADC_Infrared.c **** 
 579:.\Generated_Source\PSoC4/ADC_Infrared.c **** 
 580:.\Generated_Source\PSoC4/ADC_Infrared.c **** /*******************************************************************************
 581:.\Generated_Source\PSoC4/ADC_Infrared.c **** * Function Name: ADC_Infrared_SetLowLimit
 582:.\Generated_Source\PSoC4/ADC_Infrared.c **** ********************************************************************************
 583:.\Generated_Source\PSoC4/ADC_Infrared.c **** *
 584:.\Generated_Source\PSoC4/ADC_Infrared.c **** * Summary:
 585:.\Generated_Source\PSoC4/ADC_Infrared.c **** *  Sets the low limit parameter for a limit condition.
 586:.\Generated_Source\PSoC4/ADC_Infrared.c **** *
 587:.\Generated_Source\PSoC4/ADC_Infrared.c **** * Parameters:
 588:.\Generated_Source\PSoC4/ADC_Infrared.c **** *  lowLimit: The low limit for a limit condition.
 589:.\Generated_Source\PSoC4/ADC_Infrared.c **** *
 590:.\Generated_Source\PSoC4/ADC_Infrared.c **** * Return:
 591:.\Generated_Source\PSoC4/ADC_Infrared.c **** *  None.
 592:.\Generated_Source\PSoC4/ADC_Infrared.c **** *
 593:.\Generated_Source\PSoC4/ADC_Infrared.c **** *******************************************************************************/
 594:.\Generated_Source\PSoC4/ADC_Infrared.c **** void ADC_Infrared_SetLowLimit(uint32 lowLimit)
 595:.\Generated_Source\PSoC4/ADC_Infrared.c **** {
 575              		.loc 1 595 0
 576              		.cfi_startproc
 577              	.LVL41:
 596:.\Generated_Source\PSoC4/ADC_Infrared.c ****     ADC_Infrared_SAR_RANGE_THRES_REG &= (uint32)(~ADC_Infrared_RANGE_LOW_MASK);
 578              		.loc 1 596 0
 579 0000 054A     		ldr	r2, .L49
 580 0002 1368     		ldr	r3, [r2]
 581 0004 1B0C     		lsr	r3, r3, #16
 582 0006 1B04     		lsl	r3, r3, #16
 583 0008 1360     		str	r3, [r2]
 597:.\Generated_Source\PSoC4/ADC_Infrared.c ****     ADC_Infrared_SAR_RANGE_THRES_REG |= lowLimit & ADC_Infrared_RANGE_LOW_MASK;
 584              		.loc 1 597 0
 585 000a 1368     		ldr	r3, [r2]
 586 000c 0004     		lsl	r0, r0, #16
 587              	.LVL42:
 588 000e 000C     		lsr	r0, r0, #16
ARM GAS  C:\Users\Tim\AppData\Local\Temp\ccQapspG.s 			page 22


 589 0010 1843     		orr	r0, r3
 590 0012 1060     		str	r0, [r2]
 598:.\Generated_Source\PSoC4/ADC_Infrared.c **** }
 591              		.loc 1 598 0
 592              		@ sp needed
 593 0014 7047     		bx	lr
 594              	.L50:
 595 0016 C046     		.align	2
 596              	.L49:
 597 0018 18003A40 		.word	1077542936
 598              		.cfi_endproc
 599              	.LFE10:
 600              		.size	ADC_Infrared_SetLowLimit, .-ADC_Infrared_SetLowLimit
 601              		.section	.text.ADC_Infrared_SetHighLimit,"ax",%progbits
 602              		.align	2
 603              		.global	ADC_Infrared_SetHighLimit
 604              		.code	16
 605              		.thumb_func
 606              		.type	ADC_Infrared_SetHighLimit, %function
 607              	ADC_Infrared_SetHighLimit:
 608              	.LFB11:
 599:.\Generated_Source\PSoC4/ADC_Infrared.c **** 
 600:.\Generated_Source\PSoC4/ADC_Infrared.c **** 
 601:.\Generated_Source\PSoC4/ADC_Infrared.c **** /*******************************************************************************
 602:.\Generated_Source\PSoC4/ADC_Infrared.c **** * Function Name: ADC_Infrared_SetHighLimit
 603:.\Generated_Source\PSoC4/ADC_Infrared.c **** ********************************************************************************
 604:.\Generated_Source\PSoC4/ADC_Infrared.c **** *
 605:.\Generated_Source\PSoC4/ADC_Infrared.c **** * Summary:
 606:.\Generated_Source\PSoC4/ADC_Infrared.c **** *  Sets the low limit parameter for a limit condition.
 607:.\Generated_Source\PSoC4/ADC_Infrared.c **** *
 608:.\Generated_Source\PSoC4/ADC_Infrared.c **** * Parameters:
 609:.\Generated_Source\PSoC4/ADC_Infrared.c **** *  highLimit: The high limit for a limit condition.
 610:.\Generated_Source\PSoC4/ADC_Infrared.c **** *
 611:.\Generated_Source\PSoC4/ADC_Infrared.c **** * Return:
 612:.\Generated_Source\PSoC4/ADC_Infrared.c **** *  None.
 613:.\Generated_Source\PSoC4/ADC_Infrared.c **** *
 614:.\Generated_Source\PSoC4/ADC_Infrared.c **** *******************************************************************************/
 615:.\Generated_Source\PSoC4/ADC_Infrared.c **** void ADC_Infrared_SetHighLimit(uint32 highLimit)
 616:.\Generated_Source\PSoC4/ADC_Infrared.c **** {
 609              		.loc 1 616 0
 610              		.cfi_startproc
 611              	.LVL43:
 617:.\Generated_Source\PSoC4/ADC_Infrared.c ****     ADC_Infrared_SAR_RANGE_THRES_REG &= (uint32)(~ADC_Infrared_RANGE_HIGH_MASK);
 612              		.loc 1 617 0
 613 0000 044A     		ldr	r2, .L52
 614 0002 1368     		ldr	r3, [r2]
 615 0004 1B04     		lsl	r3, r3, #16
 616 0006 1B0C     		lsr	r3, r3, #16
 617 0008 1360     		str	r3, [r2]
 618:.\Generated_Source\PSoC4/ADC_Infrared.c ****     ADC_Infrared_SAR_RANGE_THRES_REG |= (uint32)(highLimit << ADC_Infrared_RANGE_HIGH_OFFSET);
 618              		.loc 1 618 0
 619 000a 1368     		ldr	r3, [r2]
 620 000c 0004     		lsl	r0, r0, #16
 621              	.LVL44:
 622 000e 1843     		orr	r0, r3
 623 0010 1060     		str	r0, [r2]
 619:.\Generated_Source\PSoC4/ADC_Infrared.c **** }
ARM GAS  C:\Users\Tim\AppData\Local\Temp\ccQapspG.s 			page 23


 624              		.loc 1 619 0
 625              		@ sp needed
 626 0012 7047     		bx	lr
 627              	.L53:
 628              		.align	2
 629              	.L52:
 630 0014 18003A40 		.word	1077542936
 631              		.cfi_endproc
 632              	.LFE11:
 633              		.size	ADC_Infrared_SetHighLimit, .-ADC_Infrared_SetHighLimit
 634              		.section	.text.ADC_Infrared_SetLimitMask,"ax",%progbits
 635              		.align	2
 636              		.global	ADC_Infrared_SetLimitMask
 637              		.code	16
 638              		.thumb_func
 639              		.type	ADC_Infrared_SetLimitMask, %function
 640              	ADC_Infrared_SetLimitMask:
 641              	.LFB12:
 620:.\Generated_Source\PSoC4/ADC_Infrared.c **** 
 621:.\Generated_Source\PSoC4/ADC_Infrared.c **** 
 622:.\Generated_Source\PSoC4/ADC_Infrared.c **** /*******************************************************************************
 623:.\Generated_Source\PSoC4/ADC_Infrared.c **** * Function Name: ADC_Infrared_SetLimitMask
 624:.\Generated_Source\PSoC4/ADC_Infrared.c **** ********************************************************************************
 625:.\Generated_Source\PSoC4/ADC_Infrared.c **** *
 626:.\Generated_Source\PSoC4/ADC_Infrared.c **** * Summary:
 627:.\Generated_Source\PSoC4/ADC_Infrared.c **** *  Sets the channel limit condition mask.
 628:.\Generated_Source\PSoC4/ADC_Infrared.c **** *
 629:.\Generated_Source\PSoC4/ADC_Infrared.c **** * Parameters:
 630:.\Generated_Source\PSoC4/ADC_Infrared.c **** *  mask: Sets which channels that may cause a
 631:.\Generated_Source\PSoC4/ADC_Infrared.c **** *  limit condition interrupt. Setting bits for channels that do not exist
 632:.\Generated_Source\PSoC4/ADC_Infrared.c **** *  will have no effect. For example, if only 6 channels were enabled,
 633:.\Generated_Source\PSoC4/ADC_Infrared.c **** *  setting a mask of 0x0103 would only enable the last two channels (0 and 1).
 634:.\Generated_Source\PSoC4/ADC_Infrared.c **** *
 635:.\Generated_Source\PSoC4/ADC_Infrared.c **** * Return:
 636:.\Generated_Source\PSoC4/ADC_Infrared.c **** *  None.
 637:.\Generated_Source\PSoC4/ADC_Infrared.c **** *
 638:.\Generated_Source\PSoC4/ADC_Infrared.c **** *******************************************************************************/
 639:.\Generated_Source\PSoC4/ADC_Infrared.c **** void ADC_Infrared_SetLimitMask(uint32 mask)
 640:.\Generated_Source\PSoC4/ADC_Infrared.c **** {
 642              		.loc 1 640 0
 643              		.cfi_startproc
 644              	.LVL45:
 641:.\Generated_Source\PSoC4/ADC_Infrared.c ****     ADC_Infrared_SAR_RANGE_INTR_MASK_REG = mask & ADC_Infrared_MAX_CHANNELS_EN_MASK;
 645              		.loc 1 641 0
 646 0000 FF23     		mov	r3, #255
 647 0002 1840     		and	r0, r3
 648              	.LVL46:
 649 0004 014B     		ldr	r3, .L55
 650 0006 1860     		str	r0, [r3]
 642:.\Generated_Source\PSoC4/ADC_Infrared.c **** }
 651              		.loc 1 642 0
 652              		@ sp needed
 653 0008 7047     		bx	lr
 654              	.L56:
 655 000a C046     		.align	2
 656              	.L55:
 657 000c 38023A40 		.word	1077543480
ARM GAS  C:\Users\Tim\AppData\Local\Temp\ccQapspG.s 			page 24


 658              		.cfi_endproc
 659              	.LFE12:
 660              		.size	ADC_Infrared_SetLimitMask, .-ADC_Infrared_SetLimitMask
 661              		.section	.text.ADC_Infrared_SetSatMask,"ax",%progbits
 662              		.align	2
 663              		.global	ADC_Infrared_SetSatMask
 664              		.code	16
 665              		.thumb_func
 666              		.type	ADC_Infrared_SetSatMask, %function
 667              	ADC_Infrared_SetSatMask:
 668              	.LFB13:
 643:.\Generated_Source\PSoC4/ADC_Infrared.c **** 
 644:.\Generated_Source\PSoC4/ADC_Infrared.c **** 
 645:.\Generated_Source\PSoC4/ADC_Infrared.c **** /*******************************************************************************
 646:.\Generated_Source\PSoC4/ADC_Infrared.c **** * Function Name: ADC_Infrared_SetSatMask
 647:.\Generated_Source\PSoC4/ADC_Infrared.c **** ********************************************************************************
 648:.\Generated_Source\PSoC4/ADC_Infrared.c **** *
 649:.\Generated_Source\PSoC4/ADC_Infrared.c **** * Summary:
 650:.\Generated_Source\PSoC4/ADC_Infrared.c **** *  Sets the channel saturation event mask.
 651:.\Generated_Source\PSoC4/ADC_Infrared.c **** *
 652:.\Generated_Source\PSoC4/ADC_Infrared.c **** * Parameters:
 653:.\Generated_Source\PSoC4/ADC_Infrared.c **** *  mask: Sets which channels that may cause a
 654:.\Generated_Source\PSoC4/ADC_Infrared.c **** *  saturation event interrupt. Setting bits for channels that do not exist
 655:.\Generated_Source\PSoC4/ADC_Infrared.c **** *  will have no effect. For example, if only 8 channels were enabled,
 656:.\Generated_Source\PSoC4/ADC_Infrared.c **** *  setting a mask of 0x01C0 would only enable two channels (6 and 7).
 657:.\Generated_Source\PSoC4/ADC_Infrared.c **** *
 658:.\Generated_Source\PSoC4/ADC_Infrared.c **** * Return:
 659:.\Generated_Source\PSoC4/ADC_Infrared.c **** *  None.
 660:.\Generated_Source\PSoC4/ADC_Infrared.c **** *
 661:.\Generated_Source\PSoC4/ADC_Infrared.c **** *******************************************************************************/
 662:.\Generated_Source\PSoC4/ADC_Infrared.c **** void ADC_Infrared_SetSatMask(uint32 mask)
 663:.\Generated_Source\PSoC4/ADC_Infrared.c **** {
 669              		.loc 1 663 0
 670              		.cfi_startproc
 671              	.LVL47:
 664:.\Generated_Source\PSoC4/ADC_Infrared.c ****     ADC_Infrared_SAR_SATURATE_INTR_MASK_REG = mask & ADC_Infrared_MAX_CHANNELS_EN_MASK;
 672              		.loc 1 664 0
 673 0000 FF23     		mov	r3, #255
 674 0002 1840     		and	r0, r3
 675              	.LVL48:
 676 0004 014B     		ldr	r3, .L58
 677 0006 1860     		str	r0, [r3]
 665:.\Generated_Source\PSoC4/ADC_Infrared.c **** }
 678              		.loc 1 665 0
 679              		@ sp needed
 680 0008 7047     		bx	lr
 681              	.L59:
 682 000a C046     		.align	2
 683              	.L58:
 684 000c 28023A40 		.word	1077543464
 685              		.cfi_endproc
 686              	.LFE13:
 687              		.size	ADC_Infrared_SetSatMask, .-ADC_Infrared_SetSatMask
 688              		.section	.text.ADC_Infrared_SetOffset,"ax",%progbits
 689              		.align	2
 690              		.global	ADC_Infrared_SetOffset
 691              		.code	16
ARM GAS  C:\Users\Tim\AppData\Local\Temp\ccQapspG.s 			page 25


 692              		.thumb_func
 693              		.type	ADC_Infrared_SetOffset, %function
 694              	ADC_Infrared_SetOffset:
 695              	.LFB14:
 666:.\Generated_Source\PSoC4/ADC_Infrared.c **** 
 667:.\Generated_Source\PSoC4/ADC_Infrared.c **** 
 668:.\Generated_Source\PSoC4/ADC_Infrared.c **** /*******************************************************************************
 669:.\Generated_Source\PSoC4/ADC_Infrared.c **** * Function Name: ADC_Infrared_SetOffset
 670:.\Generated_Source\PSoC4/ADC_Infrared.c **** ********************************************************************************
 671:.\Generated_Source\PSoC4/ADC_Infrared.c **** *
 672:.\Generated_Source\PSoC4/ADC_Infrared.c **** * Summary:
 673:.\Generated_Source\PSoC4/ADC_Infrared.c **** *   Description: Sets the ADC offset which is used by the functions
 674:.\Generated_Source\PSoC4/ADC_Infrared.c **** *   ADC_CountsTo_uVolts, ADC_CountsTo_mVolts and ADC_CountsTo_Volts
 675:.\Generated_Source\PSoC4/ADC_Infrared.c **** *   to substract the offset from the given reading
 676:.\Generated_Source\PSoC4/ADC_Infrared.c **** *   before calculating the voltage conversion.
 677:.\Generated_Source\PSoC4/ADC_Infrared.c **** *
 678:.\Generated_Source\PSoC4/ADC_Infrared.c **** * Parameters:
 679:.\Generated_Source\PSoC4/ADC_Infrared.c **** *  chan: ADC channel number.
 680:.\Generated_Source\PSoC4/ADC_Infrared.c **** *  offset: This value is a measured value when the
 681:.\Generated_Source\PSoC4/ADC_Infrared.c **** *          inputs are shorted or connected to the same input voltage.
 682:.\Generated_Source\PSoC4/ADC_Infrared.c **** *
 683:.\Generated_Source\PSoC4/ADC_Infrared.c **** * Return:
 684:.\Generated_Source\PSoC4/ADC_Infrared.c **** *  None.
 685:.\Generated_Source\PSoC4/ADC_Infrared.c **** *
 686:.\Generated_Source\PSoC4/ADC_Infrared.c **** * Global variables:
 687:.\Generated_Source\PSoC4/ADC_Infrared.c **** *  ADC_Infrared_Offset:  Modified to set the user provided offset.
 688:.\Generated_Source\PSoC4/ADC_Infrared.c **** *
 689:.\Generated_Source\PSoC4/ADC_Infrared.c **** *******************************************************************************/
 690:.\Generated_Source\PSoC4/ADC_Infrared.c **** void ADC_Infrared_SetOffset(uint32 chan, int16 offset)
 691:.\Generated_Source\PSoC4/ADC_Infrared.c **** {
 696              		.loc 1 691 0
 697              		.cfi_startproc
 698              	.LVL49:
 699 0000 38B5     		push	{r3, r4, r5, lr}
 700              		.cfi_def_cfa_offset 16
 701              		.cfi_offset 3, -16
 702              		.cfi_offset 4, -12
 703              		.cfi_offset 5, -8
 704              		.cfi_offset 14, -4
 705 0002 041C     		mov	r4, r0
 706 0004 0D1C     		mov	r5, r1
 692:.\Generated_Source\PSoC4/ADC_Infrared.c ****     /* Halt CPU in debug mode if channel is out of valid range */
 693:.\Generated_Source\PSoC4/ADC_Infrared.c ****     CYASSERT(chan < ADC_Infrared_TOTAL_CHANNELS_NUM);
 707              		.loc 1 693 0
 708 0006 0728     		cmp	r0, #7
 709 0008 02D9     		bls	.L61
 710              		.loc 1 693 0 is_stmt 0 discriminator 1
 711 000a 0020     		mov	r0, #0
 712              	.LVL50:
 713 000c FFF7FEFF 		bl	CyHalt
 714              	.LVL51:
 715              	.L61:
 694:.\Generated_Source\PSoC4/ADC_Infrared.c **** 
 695:.\Generated_Source\PSoC4/ADC_Infrared.c ****     ADC_Infrared_offset[chan] = offset;
 716              		.loc 1 695 0 is_stmt 1
 717 0010 6400     		lsl	r4, r4, #1
 718              	.LVL52:
ARM GAS  C:\Users\Tim\AppData\Local\Temp\ccQapspG.s 			page 26


 719 0012 014B     		ldr	r3, .L62
 720 0014 E552     		strh	r5, [r4, r3]
 696:.\Generated_Source\PSoC4/ADC_Infrared.c **** }
 721              		.loc 1 696 0
 722              		@ sp needed
 723 0016 38BD     		pop	{r3, r4, r5, pc}
 724              	.L63:
 725              		.align	2
 726              	.L62:
 727 0018 00000000 		.word	ADC_Infrared_offset
 728              		.cfi_endproc
 729              	.LFE14:
 730              		.size	ADC_Infrared_SetOffset, .-ADC_Infrared_SetOffset
 731              		.section	.text.ADC_Infrared_SetGain,"ax",%progbits
 732              		.align	2
 733              		.global	ADC_Infrared_SetGain
 734              		.code	16
 735              		.thumb_func
 736              		.type	ADC_Infrared_SetGain, %function
 737              	ADC_Infrared_SetGain:
 738              	.LFB15:
 697:.\Generated_Source\PSoC4/ADC_Infrared.c **** 
 698:.\Generated_Source\PSoC4/ADC_Infrared.c **** 
 699:.\Generated_Source\PSoC4/ADC_Infrared.c **** /*******************************************************************************
 700:.\Generated_Source\PSoC4/ADC_Infrared.c **** * Function Name: ADC_Infrared_SetGain
 701:.\Generated_Source\PSoC4/ADC_Infrared.c **** ********************************************************************************
 702:.\Generated_Source\PSoC4/ADC_Infrared.c **** *
 703:.\Generated_Source\PSoC4/ADC_Infrared.c **** * Summary:
 704:.\Generated_Source\PSoC4/ADC_Infrared.c **** *  Description: Sets the ADC gain in counts per 10 volt for the voltage
 705:.\Generated_Source\PSoC4/ADC_Infrared.c **** *  conversion functions below. This value is set by default by the
 706:.\Generated_Source\PSoC4/ADC_Infrared.c **** *  reference and input range settings. It should only be used to further
 707:.\Generated_Source\PSoC4/ADC_Infrared.c **** *  calibrate the ADC with a known input or if an external reference is
 708:.\Generated_Source\PSoC4/ADC_Infrared.c **** *  used. Affects the ADC_CountsTo_uVolts, ADC_CountsTo_mVolts
 709:.\Generated_Source\PSoC4/ADC_Infrared.c **** *  and ADC_CountsTo_Volts functions by supplying the correct
 710:.\Generated_Source\PSoC4/ADC_Infrared.c **** *  conversion between ADC counts and voltage.
 711:.\Generated_Source\PSoC4/ADC_Infrared.c **** *
 712:.\Generated_Source\PSoC4/ADC_Infrared.c **** * Parameters:
 713:.\Generated_Source\PSoC4/ADC_Infrared.c **** *  chan: ADC channel number.
 714:.\Generated_Source\PSoC4/ADC_Infrared.c **** *  adcGain: ADC gain in counts per 10 volts.
 715:.\Generated_Source\PSoC4/ADC_Infrared.c **** *
 716:.\Generated_Source\PSoC4/ADC_Infrared.c **** * Return:
 717:.\Generated_Source\PSoC4/ADC_Infrared.c **** *  None.
 718:.\Generated_Source\PSoC4/ADC_Infrared.c **** *
 719:.\Generated_Source\PSoC4/ADC_Infrared.c **** * Global variables:
 720:.\Generated_Source\PSoC4/ADC_Infrared.c **** *  ADC_Infrared_CountsPer10Volt:  modified to set the ADC gain in counts
 721:.\Generated_Source\PSoC4/ADC_Infrared.c **** *   per 10 volt.
 722:.\Generated_Source\PSoC4/ADC_Infrared.c **** *
 723:.\Generated_Source\PSoC4/ADC_Infrared.c **** *******************************************************************************/
 724:.\Generated_Source\PSoC4/ADC_Infrared.c **** void ADC_Infrared_SetGain(uint32 chan, int32 adcGain)
 725:.\Generated_Source\PSoC4/ADC_Infrared.c **** {
 739              		.loc 1 725 0
 740              		.cfi_startproc
 741              	.LVL53:
 742 0000 38B5     		push	{r3, r4, r5, lr}
 743              		.cfi_def_cfa_offset 16
 744              		.cfi_offset 3, -16
 745              		.cfi_offset 4, -12
ARM GAS  C:\Users\Tim\AppData\Local\Temp\ccQapspG.s 			page 27


 746              		.cfi_offset 5, -8
 747              		.cfi_offset 14, -4
 748 0002 041C     		mov	r4, r0
 749 0004 0D1C     		mov	r5, r1
 726:.\Generated_Source\PSoC4/ADC_Infrared.c ****     /* Halt CPU in debug mode if channel is out of valid range */
 727:.\Generated_Source\PSoC4/ADC_Infrared.c ****     CYASSERT(chan < ADC_Infrared_TOTAL_CHANNELS_NUM);
 750              		.loc 1 727 0
 751 0006 0728     		cmp	r0, #7
 752 0008 02D9     		bls	.L65
 753              		.loc 1 727 0 is_stmt 0 discriminator 1
 754 000a 0020     		mov	r0, #0
 755              	.LVL54:
 756 000c FFF7FEFF 		bl	CyHalt
 757              	.LVL55:
 758              	.L65:
 728:.\Generated_Source\PSoC4/ADC_Infrared.c **** 
 729:.\Generated_Source\PSoC4/ADC_Infrared.c ****     ADC_Infrared_countsPer10Volt[chan] = adcGain;
 759              		.loc 1 729 0 is_stmt 1
 760 0010 A400     		lsl	r4, r4, #2
 761              	.LVL56:
 762 0012 014B     		ldr	r3, .L66
 763 0014 E550     		str	r5, [r4, r3]
 730:.\Generated_Source\PSoC4/ADC_Infrared.c **** }
 764              		.loc 1 730 0
 765              		@ sp needed
 766              	.LVL57:
 767 0016 38BD     		pop	{r3, r4, r5, pc}
 768              	.L67:
 769              		.align	2
 770              	.L66:
 771 0018 00000000 		.word	ADC_Infrared_countsPer10Volt
 772              		.cfi_endproc
 773              	.LFE15:
 774              		.size	ADC_Infrared_SetGain, .-ADC_Infrared_SetGain
 775              		.section	.text.ADC_Infrared_CountsTo_mVolts,"ax",%progbits
 776              		.align	2
 777              		.global	ADC_Infrared_CountsTo_mVolts
 778              		.code	16
 779              		.thumb_func
 780              		.type	ADC_Infrared_CountsTo_mVolts, %function
 781              	ADC_Infrared_CountsTo_mVolts:
 782              	.LFB16:
 731:.\Generated_Source\PSoC4/ADC_Infrared.c **** 
 732:.\Generated_Source\PSoC4/ADC_Infrared.c **** 
 733:.\Generated_Source\PSoC4/ADC_Infrared.c **** #if(ADC_Infrared_DEFAULT_JUSTIFICATION_SEL == ADC_Infrared__RIGHT)
 734:.\Generated_Source\PSoC4/ADC_Infrared.c **** 
 735:.\Generated_Source\PSoC4/ADC_Infrared.c **** 
 736:.\Generated_Source\PSoC4/ADC_Infrared.c ****     /*******************************************************************************
 737:.\Generated_Source\PSoC4/ADC_Infrared.c ****     * Function Name: ADC_Infrared_CountsTo_mVolts
 738:.\Generated_Source\PSoC4/ADC_Infrared.c ****     ********************************************************************************
 739:.\Generated_Source\PSoC4/ADC_Infrared.c ****     *
 740:.\Generated_Source\PSoC4/ADC_Infrared.c ****     * Summary:
 741:.\Generated_Source\PSoC4/ADC_Infrared.c ****     *  This function converts ADC counts to mVolts
 742:.\Generated_Source\PSoC4/ADC_Infrared.c ****     *  This function is not available when left data format justification selected.
 743:.\Generated_Source\PSoC4/ADC_Infrared.c ****     *
 744:.\Generated_Source\PSoC4/ADC_Infrared.c ****     * Parameters:
 745:.\Generated_Source\PSoC4/ADC_Infrared.c ****     *  chan: The ADC channel number.
ARM GAS  C:\Users\Tim\AppData\Local\Temp\ccQapspG.s 			page 28


 746:.\Generated_Source\PSoC4/ADC_Infrared.c ****     *  adcCounts: Result from the ADC conversion
 747:.\Generated_Source\PSoC4/ADC_Infrared.c ****     *
 748:.\Generated_Source\PSoC4/ADC_Infrared.c ****     * Return:
 749:.\Generated_Source\PSoC4/ADC_Infrared.c ****     *  Results in mVolts
 750:.\Generated_Source\PSoC4/ADC_Infrared.c ****     *
 751:.\Generated_Source\PSoC4/ADC_Infrared.c ****     * Global variables:
 752:.\Generated_Source\PSoC4/ADC_Infrared.c ****     *  ADC_Infrared_countsPer10Volt:  used to convert ADC counts to mVolts.
 753:.\Generated_Source\PSoC4/ADC_Infrared.c ****     *  ADC_Infrared_Offset:  Used as the offset while converting ADC counts
 754:.\Generated_Source\PSoC4/ADC_Infrared.c ****     *   to mVolts.
 755:.\Generated_Source\PSoC4/ADC_Infrared.c ****     *
 756:.\Generated_Source\PSoC4/ADC_Infrared.c ****     *******************************************************************************/
 757:.\Generated_Source\PSoC4/ADC_Infrared.c ****     int16 ADC_Infrared_CountsTo_mVolts(uint32 chan, int16 adcCounts)
 758:.\Generated_Source\PSoC4/ADC_Infrared.c ****     {
 783              		.loc 1 758 0
 784              		.cfi_startproc
 785              	.LVL58:
 786 0000 38B5     		push	{r3, r4, r5, lr}
 787              		.cfi_def_cfa_offset 16
 788              		.cfi_offset 3, -16
 789              		.cfi_offset 4, -12
 790              		.cfi_offset 5, -8
 791              		.cfi_offset 14, -4
 792 0002 041C     		mov	r4, r0
 793 0004 0D1C     		mov	r5, r1
 759:.\Generated_Source\PSoC4/ADC_Infrared.c ****         int16 mVolts;
 760:.\Generated_Source\PSoC4/ADC_Infrared.c **** 
 761:.\Generated_Source\PSoC4/ADC_Infrared.c ****         /* Halt CPU in debug mode if channel is out of valid range */
 762:.\Generated_Source\PSoC4/ADC_Infrared.c ****         CYASSERT(chan < ADC_Infrared_TOTAL_CHANNELS_NUM);
 794              		.loc 1 762 0
 795 0006 0728     		cmp	r0, #7
 796 0008 02D9     		bls	.L69
 797              		.loc 1 762 0 is_stmt 0 discriminator 1
 798 000a 0020     		mov	r0, #0
 799              	.LVL59:
 800 000c FFF7FEFF 		bl	CyHalt
 801              	.LVL60:
 802              	.L69:
 763:.\Generated_Source\PSoC4/ADC_Infrared.c **** 
 764:.\Generated_Source\PSoC4/ADC_Infrared.c ****         /* Divide the adcCount when accumulate averaging mode selected */
 765:.\Generated_Source\PSoC4/ADC_Infrared.c ****         #if(ADC_Infrared_DEFAULT_AVG_MODE == ADC_Infrared__ACCUMULATE)
 766:.\Generated_Source\PSoC4/ADC_Infrared.c ****             if((ADC_Infrared_channelsConfig[chan] & ADC_Infrared_AVERAGING_EN) != 0u)
 767:.\Generated_Source\PSoC4/ADC_Infrared.c ****             {
 768:.\Generated_Source\PSoC4/ADC_Infrared.c ****                 adcCounts /= ADC_Infrared_DEFAULT_AVG_SAMPLES_DIV;
 769:.\Generated_Source\PSoC4/ADC_Infrared.c ****             }
 770:.\Generated_Source\PSoC4/ADC_Infrared.c ****         #endif /* ADC_Infrared_DEFAULT_AVG_MODE == ADC_Infrared__ACCUMULATE */
 771:.\Generated_Source\PSoC4/ADC_Infrared.c **** 
 772:.\Generated_Source\PSoC4/ADC_Infrared.c ****         /* Subtract ADC offset */
 773:.\Generated_Source\PSoC4/ADC_Infrared.c ****         adcCounts -= ADC_Infrared_offset[chan];
 803              		.loc 1 773 0 is_stmt 1
 804 0010 6300     		lsl	r3, r4, #1
 805 0012 0F4A     		ldr	r2, .L72
 806 0014 995A     		ldrh	r1, [r3, r2]
 807 0016 691A     		sub	r1, r5, r1
 808 0018 09B2     		sxth	r1, r1
 809              	.LVL61:
 774:.\Generated_Source\PSoC4/ADC_Infrared.c **** 
 775:.\Generated_Source\PSoC4/ADC_Infrared.c ****         mVolts = (int16)((((int32)adcCounts * ADC_Infrared_10MV_COUNTS) + ( (adcCounts > 0) ?
ARM GAS  C:\Users\Tim\AppData\Local\Temp\ccQapspG.s 			page 29


 810              		.loc 1 775 0
 811 001a 0E48     		ldr	r0, .L72+4
 812 001c 021C     		mov	r2, r0
 813 001e 4A43     		mul	r2, r1
 776:.\Generated_Source\PSoC4/ADC_Infrared.c ****                  (ADC_Infrared_countsPer10Volt[chan] / 2) : (-(ADC_Infrared_countsPer10Volt[chan] /
 814              		.loc 1 776 0
 815 0020 0029     		cmp	r1, #0
 816 0022 06DD     		ble	.L70
 817              		.loc 1 776 0 is_stmt 0 discriminator 1
 818 0024 A300     		lsl	r3, r4, #2
 819 0026 0C49     		ldr	r1, .L72+8
 820              	.LVL62:
 821 0028 5B58     		ldr	r3, [r3, r1]
 822 002a D80F     		lsr	r0, r3, #31
 823 002c C018     		add	r0, r0, r3
 824 002e 4310     		asr	r3, r0, #1
 825 0030 06E0     		b	.L71
 826              	.LVL63:
 827              	.L70:
 828              		.loc 1 776 0 discriminator 2
 829 0032 A300     		lsl	r3, r4, #2
 830 0034 0849     		ldr	r1, .L72+8
 831              	.LVL64:
 832 0036 5B58     		ldr	r3, [r3, r1]
 833 0038 D80F     		lsr	r0, r3, #31
 834 003a C318     		add	r3, r0, r3
 835 003c 5B10     		asr	r3, r3, #1
 836 003e 5B42     		neg	r3, r3
 837              	.L71:
 775:.\Generated_Source\PSoC4/ADC_Infrared.c ****                  (ADC_Infrared_countsPer10Volt[chan] / 2) : (-(ADC_Infrared_countsPer10Volt[chan] /
 838              		.loc 1 775 0 is_stmt 1
 839 0040 D018     		add	r0, r2, r3
 777:.\Generated_Source\PSoC4/ADC_Infrared.c ****                  / ADC_Infrared_countsPer10Volt[chan]);
 840              		.loc 1 777 0
 841 0042 A400     		lsl	r4, r4, #2
 842              	.LVL65:
 843 0044 044B     		ldr	r3, .L72+8
 844 0046 E158     		ldr	r1, [r4, r3]
 845 0048 FFF7FEFF 		bl	__aeabi_idiv
 846              	.LVL66:
 778:.\Generated_Source\PSoC4/ADC_Infrared.c **** 
 779:.\Generated_Source\PSoC4/ADC_Infrared.c ****         return( mVolts );
 847              		.loc 1 779 0
 848 004c 00B2     		sxth	r0, r0
 780:.\Generated_Source\PSoC4/ADC_Infrared.c ****     }
 849              		.loc 1 780 0
 850              		@ sp needed
 851 004e 38BD     		pop	{r3, r4, r5, pc}
 852              	.L73:
 853              		.align	2
 854              	.L72:
 855 0050 00000000 		.word	ADC_Infrared_offset
 856 0054 10270000 		.word	10000
 857 0058 00000000 		.word	ADC_Infrared_countsPer10Volt
 858              		.cfi_endproc
 859              	.LFE16:
 860              		.size	ADC_Infrared_CountsTo_mVolts, .-ADC_Infrared_CountsTo_mVolts
ARM GAS  C:\Users\Tim\AppData\Local\Temp\ccQapspG.s 			page 30


 861              		.global	__aeabi_lmul
 862              		.global	__aeabi_ldivmod
 863              		.section	.text.ADC_Infrared_CountsTo_uVolts,"ax",%progbits
 864              		.align	2
 865              		.global	ADC_Infrared_CountsTo_uVolts
 866              		.code	16
 867              		.thumb_func
 868              		.type	ADC_Infrared_CountsTo_uVolts, %function
 869              	ADC_Infrared_CountsTo_uVolts:
 870              	.LFB17:
 781:.\Generated_Source\PSoC4/ADC_Infrared.c **** 
 782:.\Generated_Source\PSoC4/ADC_Infrared.c **** 
 783:.\Generated_Source\PSoC4/ADC_Infrared.c ****     /*******************************************************************************
 784:.\Generated_Source\PSoC4/ADC_Infrared.c ****     * Function Name: ADC_Infrared_CountsTo_uVolts
 785:.\Generated_Source\PSoC4/ADC_Infrared.c ****     ********************************************************************************
 786:.\Generated_Source\PSoC4/ADC_Infrared.c ****     *
 787:.\Generated_Source\PSoC4/ADC_Infrared.c ****     * Summary:
 788:.\Generated_Source\PSoC4/ADC_Infrared.c ****     *  This function converts ADC counts to micro Volts
 789:.\Generated_Source\PSoC4/ADC_Infrared.c ****     *  This function is not available when left data format justification selected.
 790:.\Generated_Source\PSoC4/ADC_Infrared.c ****     *
 791:.\Generated_Source\PSoC4/ADC_Infrared.c ****     * Parameters:
 792:.\Generated_Source\PSoC4/ADC_Infrared.c ****     *  chan: The ADC channel number.
 793:.\Generated_Source\PSoC4/ADC_Infrared.c ****     *  adcCounts: Result from the ADC conversion
 794:.\Generated_Source\PSoC4/ADC_Infrared.c ****     *
 795:.\Generated_Source\PSoC4/ADC_Infrared.c ****     * Return:
 796:.\Generated_Source\PSoC4/ADC_Infrared.c ****     *  Results in uVolts
 797:.\Generated_Source\PSoC4/ADC_Infrared.c ****     *
 798:.\Generated_Source\PSoC4/ADC_Infrared.c ****     * Global variables:
 799:.\Generated_Source\PSoC4/ADC_Infrared.c ****     *  ADC_Infrared_countsPer10Volt:  used to convert ADC counts to uVolts.
 800:.\Generated_Source\PSoC4/ADC_Infrared.c ****     *  ADC_Infrared_Offset:  Used as the offset while converting ADC counts
 801:.\Generated_Source\PSoC4/ADC_Infrared.c ****     *   to mVolts.
 802:.\Generated_Source\PSoC4/ADC_Infrared.c ****     *
 803:.\Generated_Source\PSoC4/ADC_Infrared.c ****     * Theory:
 804:.\Generated_Source\PSoC4/ADC_Infrared.c ****     *  Care must be taken to not exceed the maximum value for a 31 bit signed
 805:.\Generated_Source\PSoC4/ADC_Infrared.c ****     *  number in the conversion to uVolts and at the same time not loose
 806:.\Generated_Source\PSoC4/ADC_Infrared.c ****     *  resolution.
 807:.\Generated_Source\PSoC4/ADC_Infrared.c ****     *  To convert adcCounts to microVolts it is required to be multiplied
 808:.\Generated_Source\PSoC4/ADC_Infrared.c ****     *  on 10 million and later divide on gain in counts per 10V.
 809:.\Generated_Source\PSoC4/ADC_Infrared.c ****     *
 810:.\Generated_Source\PSoC4/ADC_Infrared.c ****     *******************************************************************************/
 811:.\Generated_Source\PSoC4/ADC_Infrared.c ****     int32 ADC_Infrared_CountsTo_uVolts(uint32 chan, int16 adcCounts)
 812:.\Generated_Source\PSoC4/ADC_Infrared.c ****     {
 871              		.loc 1 812 0
 872              		.cfi_startproc
 873              	.LVL67:
 874 0000 38B5     		push	{r3, r4, r5, lr}
 875              		.cfi_def_cfa_offset 16
 876              		.cfi_offset 3, -16
 877              		.cfi_offset 4, -12
 878              		.cfi_offset 5, -8
 879              		.cfi_offset 14, -4
 880 0002 051C     		mov	r5, r0
 881 0004 0C1C     		mov	r4, r1
 813:.\Generated_Source\PSoC4/ADC_Infrared.c ****         int64 uVolts;
 814:.\Generated_Source\PSoC4/ADC_Infrared.c **** 
 815:.\Generated_Source\PSoC4/ADC_Infrared.c ****         /* Halt CPU in debug mode if channel is out of valid range */
 816:.\Generated_Source\PSoC4/ADC_Infrared.c ****         CYASSERT(chan < ADC_Infrared_TOTAL_CHANNELS_NUM);
ARM GAS  C:\Users\Tim\AppData\Local\Temp\ccQapspG.s 			page 31


 882              		.loc 1 816 0
 883 0006 0728     		cmp	r0, #7
 884 0008 02D9     		bls	.L75
 885              		.loc 1 816 0 is_stmt 0 discriminator 1
 886 000a 0020     		mov	r0, #0
 887              	.LVL68:
 888 000c FFF7FEFF 		bl	CyHalt
 889              	.LVL69:
 890              	.L75:
 817:.\Generated_Source\PSoC4/ADC_Infrared.c **** 
 818:.\Generated_Source\PSoC4/ADC_Infrared.c ****         /* Divide the adcCount when accumulate averaging mode selected */
 819:.\Generated_Source\PSoC4/ADC_Infrared.c ****         #if(ADC_Infrared_DEFAULT_AVG_MODE == ADC_Infrared__ACCUMULATE)
 820:.\Generated_Source\PSoC4/ADC_Infrared.c ****             if((ADC_Infrared_channelsConfig[chan] & ADC_Infrared_AVERAGING_EN) != 0u)
 821:.\Generated_Source\PSoC4/ADC_Infrared.c ****             {
 822:.\Generated_Source\PSoC4/ADC_Infrared.c ****                 adcCounts /= ADC_Infrared_DEFAULT_AVG_SAMPLES_DIV;
 823:.\Generated_Source\PSoC4/ADC_Infrared.c ****             }
 824:.\Generated_Source\PSoC4/ADC_Infrared.c ****         #endif /* ADC_Infrared_DEFAULT_AVG_MODE == ADC_Infrared__ACCUMULATE */
 825:.\Generated_Source\PSoC4/ADC_Infrared.c **** 
 826:.\Generated_Source\PSoC4/ADC_Infrared.c ****         /* Subtract ADC offset */
 827:.\Generated_Source\PSoC4/ADC_Infrared.c ****         adcCounts -= ADC_Infrared_offset[chan];
 891              		.loc 1 827 0 is_stmt 1
 892 0010 6A00     		lsl	r2, r5, #1
 893 0012 084B     		ldr	r3, .L76
 894 0014 D05A     		ldrh	r0, [r2, r3]
 895 0016 201A     		sub	r0, r4, r0
 896 0018 00B2     		sxth	r0, r0
 897              	.LVL70:
 828:.\Generated_Source\PSoC4/ADC_Infrared.c **** 
 829:.\Generated_Source\PSoC4/ADC_Infrared.c ****         uVolts = ((int64)adcCounts * ADC_Infrared_10UV_COUNTS) / ADC_Infrared_countsPer10Volt[chan]
 898              		.loc 1 829 0
 899 001a C117     		asr	r1, r0, #31
 900 001c 064A     		ldr	r2, .L76+4
 901 001e 0023     		mov	r3, #0
 902 0020 FFF7FEFF 		bl	__aeabi_lmul
 903              	.LVL71:
 904 0024 AD00     		lsl	r5, r5, #2
 905              	.LVL72:
 906 0026 054B     		ldr	r3, .L76+8
 907 0028 EA58     		ldr	r2, [r5, r3]
 908 002a D317     		asr	r3, r2, #31
 909 002c FFF7FEFF 		bl	__aeabi_ldivmod
 910              	.LVL73:
 830:.\Generated_Source\PSoC4/ADC_Infrared.c **** 
 831:.\Generated_Source\PSoC4/ADC_Infrared.c ****         return( (int32)uVolts );
 832:.\Generated_Source\PSoC4/ADC_Infrared.c ****     }
 911              		.loc 1 832 0
 912              		@ sp needed
 913 0030 38BD     		pop	{r3, r4, r5, pc}
 914              	.L77:
 915 0032 C046     		.align	2
 916              	.L76:
 917 0034 00000000 		.word	ADC_Infrared_offset
 918 0038 80969800 		.word	10000000
 919 003c 00000000 		.word	ADC_Infrared_countsPer10Volt
 920              		.cfi_endproc
 921              	.LFE17:
 922              		.size	ADC_Infrared_CountsTo_uVolts, .-ADC_Infrared_CountsTo_uVolts
ARM GAS  C:\Users\Tim\AppData\Local\Temp\ccQapspG.s 			page 32


 923              		.global	__aeabi_i2f
 924              		.global	__aeabi_fmul
 925              		.global	__aeabi_fdiv
 926              		.section	.text.ADC_Infrared_CountsTo_Volts,"ax",%progbits
 927              		.align	2
 928              		.global	ADC_Infrared_CountsTo_Volts
 929              		.code	16
 930              		.thumb_func
 931              		.type	ADC_Infrared_CountsTo_Volts, %function
 932              	ADC_Infrared_CountsTo_Volts:
 933              	.LFB18:
 833:.\Generated_Source\PSoC4/ADC_Infrared.c **** 
 834:.\Generated_Source\PSoC4/ADC_Infrared.c **** 
 835:.\Generated_Source\PSoC4/ADC_Infrared.c ****     /*******************************************************************************
 836:.\Generated_Source\PSoC4/ADC_Infrared.c ****     * Function Name: ADC_Infrared_CountsTo_Volts
 837:.\Generated_Source\PSoC4/ADC_Infrared.c ****     ********************************************************************************
 838:.\Generated_Source\PSoC4/ADC_Infrared.c ****     *
 839:.\Generated_Source\PSoC4/ADC_Infrared.c ****     * Summary:
 840:.\Generated_Source\PSoC4/ADC_Infrared.c ****     *  Converts the ADC output to Volts as a floating point number.
 841:.\Generated_Source\PSoC4/ADC_Infrared.c ****     *  This function is not available when left data format justification selected.
 842:.\Generated_Source\PSoC4/ADC_Infrared.c ****     *
 843:.\Generated_Source\PSoC4/ADC_Infrared.c ****     * Parameters:
 844:.\Generated_Source\PSoC4/ADC_Infrared.c ****     *  chan: The ADC channel number.
 845:.\Generated_Source\PSoC4/ADC_Infrared.c ****     *  Result from the ADC conversion
 846:.\Generated_Source\PSoC4/ADC_Infrared.c ****     *
 847:.\Generated_Source\PSoC4/ADC_Infrared.c ****     * Return:
 848:.\Generated_Source\PSoC4/ADC_Infrared.c ****     *  Results in Volts
 849:.\Generated_Source\PSoC4/ADC_Infrared.c ****     *
 850:.\Generated_Source\PSoC4/ADC_Infrared.c ****     * Global variables:
 851:.\Generated_Source\PSoC4/ADC_Infrared.c ****     *  ADC_Infrared_countsPer10Volt:  used to convert ADC counts to Volts.
 852:.\Generated_Source\PSoC4/ADC_Infrared.c ****     *  ADC_Infrared_Offset:  Used as the offset while converting ADC counts
 853:.\Generated_Source\PSoC4/ADC_Infrared.c ****     *   to mVolts.
 854:.\Generated_Source\PSoC4/ADC_Infrared.c ****     *
 855:.\Generated_Source\PSoC4/ADC_Infrared.c ****     *******************************************************************************/
 856:.\Generated_Source\PSoC4/ADC_Infrared.c ****     float32 ADC_Infrared_CountsTo_Volts(uint32 chan, int16 adcCounts)
 857:.\Generated_Source\PSoC4/ADC_Infrared.c ****     {
 934              		.loc 1 857 0
 935              		.cfi_startproc
 936              	.LVL74:
 937 0000 38B5     		push	{r3, r4, r5, lr}
 938              		.cfi_def_cfa_offset 16
 939              		.cfi_offset 3, -16
 940              		.cfi_offset 4, -12
 941              		.cfi_offset 5, -8
 942              		.cfi_offset 14, -4
 943 0002 041C     		mov	r4, r0
 944 0004 0D1C     		mov	r5, r1
 858:.\Generated_Source\PSoC4/ADC_Infrared.c ****         float32 volts;
 859:.\Generated_Source\PSoC4/ADC_Infrared.c **** 
 860:.\Generated_Source\PSoC4/ADC_Infrared.c ****         /* Halt CPU in debug mode if channel is out of valid range */
 861:.\Generated_Source\PSoC4/ADC_Infrared.c ****         CYASSERT(chan < ADC_Infrared_TOTAL_CHANNELS_NUM);
 945              		.loc 1 861 0
 946 0006 0728     		cmp	r0, #7
 947 0008 02D9     		bls	.L79
 948              		.loc 1 861 0 is_stmt 0 discriminator 1
 949 000a 0020     		mov	r0, #0
 950              	.LVL75:
ARM GAS  C:\Users\Tim\AppData\Local\Temp\ccQapspG.s 			page 33


 951 000c FFF7FEFF 		bl	CyHalt
 952              	.LVL76:
 953              	.L79:
 862:.\Generated_Source\PSoC4/ADC_Infrared.c **** 
 863:.\Generated_Source\PSoC4/ADC_Infrared.c ****         /* Divide the adcCount when accumulate averaging mode selected */
 864:.\Generated_Source\PSoC4/ADC_Infrared.c ****         #if(ADC_Infrared_DEFAULT_AVG_MODE == ADC_Infrared__ACCUMULATE)
 865:.\Generated_Source\PSoC4/ADC_Infrared.c ****             if((ADC_Infrared_channelsConfig[chan] & ADC_Infrared_AVERAGING_EN) != 0u)
 866:.\Generated_Source\PSoC4/ADC_Infrared.c ****             {
 867:.\Generated_Source\PSoC4/ADC_Infrared.c ****                 adcCounts /= ADC_Infrared_DEFAULT_AVG_SAMPLES_DIV;
 868:.\Generated_Source\PSoC4/ADC_Infrared.c ****             }
 869:.\Generated_Source\PSoC4/ADC_Infrared.c ****         #endif /* ADC_Infrared_DEFAULT_AVG_MODE == ADC_Infrared__ACCUMULATE */
 870:.\Generated_Source\PSoC4/ADC_Infrared.c **** 
 871:.\Generated_Source\PSoC4/ADC_Infrared.c ****         /* Subtract ADC offset */
 872:.\Generated_Source\PSoC4/ADC_Infrared.c ****         adcCounts -= ADC_Infrared_offset[chan];
 954              		.loc 1 872 0 is_stmt 1
 955 0010 6200     		lsl	r2, r4, #1
 956 0012 0A4B     		ldr	r3, .L80
 957 0014 D05A     		ldrh	r0, [r2, r3]
 958 0016 281A     		sub	r0, r5, r0
 959 0018 00B2     		sxth	r0, r0
 960              	.LVL77:
 873:.\Generated_Source\PSoC4/ADC_Infrared.c **** 
 874:.\Generated_Source\PSoC4/ADC_Infrared.c ****         volts = ((float32)adcCounts * ADC_Infrared_10V_COUNTS) / (float32)ADC_Infrared_countsPer10V
 961              		.loc 1 874 0
 962 001a FFF7FEFF 		bl	__aeabi_i2f
 963              	.LVL78:
 964 001e 0849     		ldr	r1, .L80+4
 965 0020 FFF7FEFF 		bl	__aeabi_fmul
 966              	.LVL79:
 967 0024 051C     		add	r5, r0, #0
 968 0026 A400     		lsl	r4, r4, #2
 969              	.LVL80:
 970 0028 064B     		ldr	r3, .L80+8
 971 002a E058     		ldr	r0, [r4, r3]
 972 002c FFF7FEFF 		bl	__aeabi_i2f
 973              	.LVL81:
 974 0030 011C     		add	r1, r0, #0
 975 0032 281C     		add	r0, r5, #0
 976 0034 FFF7FEFF 		bl	__aeabi_fdiv
 977              	.LVL82:
 875:.\Generated_Source\PSoC4/ADC_Infrared.c **** 
 876:.\Generated_Source\PSoC4/ADC_Infrared.c ****         return( volts );
 877:.\Generated_Source\PSoC4/ADC_Infrared.c ****     }
 978              		.loc 1 877 0
 979              		@ sp needed
 980 0038 38BD     		pop	{r3, r4, r5, pc}
 981              	.L81:
 982 003a C046     		.align	2
 983              	.L80:
 984 003c 00000000 		.word	ADC_Infrared_offset
 985 0040 00002041 		.word	1092616192
 986 0044 00000000 		.word	ADC_Infrared_countsPer10Volt
 987              		.cfi_endproc
 988              	.LFE18:
 989              		.size	ADC_Infrared_CountsTo_Volts, .-ADC_Infrared_CountsTo_Volts
 990              		.comm	ADC_Infrared_countsPer10Volt,32,4
 991              		.comm	ADC_Infrared_offset,16,4
ARM GAS  C:\Users\Tim\AppData\Local\Temp\ccQapspG.s 			page 34


 992              		.global	ADC_Infrared_initVar
 993              		.section	.rodata
 994              		.align	2
 995              		.set	.LANCHOR0,. + 0
 996              		.type	ADC_Infrared_channelsConfig, %object
 997              		.size	ADC_Infrared_channelsConfig, 32
 998              	ADC_Infrared_channelsConfig:
 999 0000 00000000 		.space	32
 999      00000000 
 999      00000000 
 999      00000000 
 999      00000000 
 1000              		.type	ADC_Infrared_InputsPlacement.4761, %object
 1001              		.size	ADC_Infrared_InputsPlacement.4761, 8
 1002              	ADC_Infrared_InputsPlacement.4761:
 1003 0020 00       		.byte	0
 1004 0021 01       		.byte	1
 1005 0022 02       		.byte	2
 1006 0023 03       		.byte	3
 1007 0024 04       		.byte	4
 1008 0025 05       		.byte	5
 1009 0026 73       		.byte	115
 1010 0027 72       		.byte	114
 1011              		.bss
 1012              		.set	.LANCHOR1,. + 0
 1013              		.type	ADC_Infrared_initVar, %object
 1014              		.size	ADC_Infrared_initVar, 1
 1015              	ADC_Infrared_initVar:
 1016 0000 00       		.space	1
 1017              		.text
 1018              	.Letext0:
 1019              		.file 2 ".\\Generated_Source\\PSoC4\\cytypes.h"
 1020              		.file 3 ".\\Generated_Source\\PSoC4\\CyLib.h"