ARM GAS  C:\Users\Tim\AppData\Local\Temp\ccsNkvTW.s 			page 1


   1              		.cpu cortex-m0
   2              		.fpu softvfp
   3              		.eabi_attribute 20, 1
   4              		.eabi_attribute 21, 1
   5              		.eabi_attribute 23, 3
   6              		.eabi_attribute 24, 1
   7              		.eabi_attribute 25, 1
   8              		.eabi_attribute 26, 1
   9              		.eabi_attribute 30, 1
  10              		.eabi_attribute 34, 0
  11              		.eabi_attribute 18, 4
  12              		.code	16
  13              		.file	"cyfitter_cfg.c"
  14              		.text
  15              	.Ltext0:
  16              		.cfi_sections	.debug_frame
  17              		.section	.text.cfg_write_bytes32,"ax",%progbits
  18              		.align	2
  19              		.code	16
  20              		.thumb_func
  21              		.type	cfg_write_bytes32, %function
  22              	cfg_write_bytes32:
  23              	.LFB4:
  24              		.file 1 ".\\Generated_Source\\PSoC4\\cyfitter_cfg.c"
   1:.\Generated_Source\PSoC4/cyfitter_cfg.c **** /*******************************************************************************
   2:.\Generated_Source\PSoC4/cyfitter_cfg.c **** * File Name: cyfitter_cfg.c
   3:.\Generated_Source\PSoC4/cyfitter_cfg.c **** * 
   4:.\Generated_Source\PSoC4/cyfitter_cfg.c **** * PSoC Creator  3.3 SP1
   5:.\Generated_Source\PSoC4/cyfitter_cfg.c **** *
   6:.\Generated_Source\PSoC4/cyfitter_cfg.c **** * Description:
   7:.\Generated_Source\PSoC4/cyfitter_cfg.c **** * This file contains device initialization code.
   8:.\Generated_Source\PSoC4/cyfitter_cfg.c **** * Except for the user defined sections in CyClockStartupError(), this file should not be modified.
   9:.\Generated_Source\PSoC4/cyfitter_cfg.c **** * This file is automatically generated by PSoC Creator.
  10:.\Generated_Source\PSoC4/cyfitter_cfg.c **** *
  11:.\Generated_Source\PSoC4/cyfitter_cfg.c **** ********************************************************************************
  12:.\Generated_Source\PSoC4/cyfitter_cfg.c **** * Copyright (c) 2007-2015 Cypress Semiconductor.  All rights reserved.
  13:.\Generated_Source\PSoC4/cyfitter_cfg.c **** * You may use this file only in accordance with the license, terms, conditions, 
  14:.\Generated_Source\PSoC4/cyfitter_cfg.c **** * disclaimers, and limitations in the end user license agreement accompanying 
  15:.\Generated_Source\PSoC4/cyfitter_cfg.c **** * the software package with which this file was provided.
  16:.\Generated_Source\PSoC4/cyfitter_cfg.c **** ********************************************************************************/
  17:.\Generated_Source\PSoC4/cyfitter_cfg.c **** 
  18:.\Generated_Source\PSoC4/cyfitter_cfg.c **** #include <string.h>
  19:.\Generated_Source\PSoC4/cyfitter_cfg.c **** #include "cytypes.h"
  20:.\Generated_Source\PSoC4/cyfitter_cfg.c **** #include "cydevice_trm.h"
  21:.\Generated_Source\PSoC4/cyfitter_cfg.c **** #include "cyfitter.h"
  22:.\Generated_Source\PSoC4/cyfitter_cfg.c **** #include "CyLib.h"
  23:.\Generated_Source\PSoC4/cyfitter_cfg.c **** #include "CyLFClk.h"
  24:.\Generated_Source\PSoC4/cyfitter_cfg.c **** #include "cyfitter_cfg.h"
  25:.\Generated_Source\PSoC4/cyfitter_cfg.c **** 
  26:.\Generated_Source\PSoC4/cyfitter_cfg.c **** 
  27:.\Generated_Source\PSoC4/cyfitter_cfg.c **** #if defined(__GNUC__) || defined(__ARMCC_VERSION)
  28:.\Generated_Source\PSoC4/cyfitter_cfg.c ****     #define CYPACKED 
  29:.\Generated_Source\PSoC4/cyfitter_cfg.c ****     #define CYPACKED_ATTR __attribute__ ((packed))
  30:.\Generated_Source\PSoC4/cyfitter_cfg.c ****     #define CYALIGNED __attribute__ ((aligned))
  31:.\Generated_Source\PSoC4/cyfitter_cfg.c ****     #define CY_CFG_UNUSED __attribute__ ((unused))
  32:.\Generated_Source\PSoC4/cyfitter_cfg.c ****     #ifndef CY_CFG_SECTION
  33:.\Generated_Source\PSoC4/cyfitter_cfg.c ****         #define CY_CFG_SECTION __attribute__ ((section(".psocinit")))
ARM GAS  C:\Users\Tim\AppData\Local\Temp\ccsNkvTW.s 			page 2


  34:.\Generated_Source\PSoC4/cyfitter_cfg.c ****     #endif
  35:.\Generated_Source\PSoC4/cyfitter_cfg.c ****     
  36:.\Generated_Source\PSoC4/cyfitter_cfg.c ****     #if defined(__ARMCC_VERSION)
  37:.\Generated_Source\PSoC4/cyfitter_cfg.c ****         #define CY_CFG_MEMORY_BARRIER() __memory_changed()
  38:.\Generated_Source\PSoC4/cyfitter_cfg.c ****     #else
  39:.\Generated_Source\PSoC4/cyfitter_cfg.c ****         #define CY_CFG_MEMORY_BARRIER() __sync_synchronize()
  40:.\Generated_Source\PSoC4/cyfitter_cfg.c ****     #endif
  41:.\Generated_Source\PSoC4/cyfitter_cfg.c ****     
  42:.\Generated_Source\PSoC4/cyfitter_cfg.c **** #elif defined(__ICCARM__)
  43:.\Generated_Source\PSoC4/cyfitter_cfg.c ****     #include <intrinsics.h>
  44:.\Generated_Source\PSoC4/cyfitter_cfg.c **** 
  45:.\Generated_Source\PSoC4/cyfitter_cfg.c ****     #define CYPACKED __packed
  46:.\Generated_Source\PSoC4/cyfitter_cfg.c ****     #define CYPACKED_ATTR 
  47:.\Generated_Source\PSoC4/cyfitter_cfg.c ****     #define CYALIGNED _Pragma("data_alignment=4")
  48:.\Generated_Source\PSoC4/cyfitter_cfg.c ****     #define CY_CFG_UNUSED _Pragma("diag_suppress=Pe177")
  49:.\Generated_Source\PSoC4/cyfitter_cfg.c ****     #define CY_CFG_SECTION _Pragma("location=\".psocinit\"")
  50:.\Generated_Source\PSoC4/cyfitter_cfg.c ****     
  51:.\Generated_Source\PSoC4/cyfitter_cfg.c ****     #define CY_CFG_MEMORY_BARRIER() __DMB()
  52:.\Generated_Source\PSoC4/cyfitter_cfg.c ****     
  53:.\Generated_Source\PSoC4/cyfitter_cfg.c **** #else
  54:.\Generated_Source\PSoC4/cyfitter_cfg.c ****     #error Unsupported toolchain
  55:.\Generated_Source\PSoC4/cyfitter_cfg.c **** #endif
  56:.\Generated_Source\PSoC4/cyfitter_cfg.c **** 
  57:.\Generated_Source\PSoC4/cyfitter_cfg.c **** 
  58:.\Generated_Source\PSoC4/cyfitter_cfg.c **** CY_CFG_UNUSED
  59:.\Generated_Source\PSoC4/cyfitter_cfg.c **** static void CYMEMZERO(void *s, size_t n);
  60:.\Generated_Source\PSoC4/cyfitter_cfg.c **** CY_CFG_UNUSED
  61:.\Generated_Source\PSoC4/cyfitter_cfg.c **** static void CYMEMZERO(void *s, size_t n)
  62:.\Generated_Source\PSoC4/cyfitter_cfg.c **** {
  63:.\Generated_Source\PSoC4/cyfitter_cfg.c **** 	(void)memset(s, 0, n);
  64:.\Generated_Source\PSoC4/cyfitter_cfg.c **** }
  65:.\Generated_Source\PSoC4/cyfitter_cfg.c **** CY_CFG_UNUSED
  66:.\Generated_Source\PSoC4/cyfitter_cfg.c **** static void CYCONFIGCPY(void *dest, const void *src, size_t n);
  67:.\Generated_Source\PSoC4/cyfitter_cfg.c **** CY_CFG_UNUSED
  68:.\Generated_Source\PSoC4/cyfitter_cfg.c **** static void CYCONFIGCPY(void *dest, const void *src, size_t n)
  69:.\Generated_Source\PSoC4/cyfitter_cfg.c **** {
  70:.\Generated_Source\PSoC4/cyfitter_cfg.c **** 	(void)memcpy(dest, src, n);
  71:.\Generated_Source\PSoC4/cyfitter_cfg.c **** }
  72:.\Generated_Source\PSoC4/cyfitter_cfg.c **** CY_CFG_UNUSED
  73:.\Generated_Source\PSoC4/cyfitter_cfg.c **** static void CYCONFIGCPYCODE(void *dest, const void *src, size_t n);
  74:.\Generated_Source\PSoC4/cyfitter_cfg.c **** CY_CFG_UNUSED
  75:.\Generated_Source\PSoC4/cyfitter_cfg.c **** static void CYCONFIGCPYCODE(void *dest, const void *src, size_t n)
  76:.\Generated_Source\PSoC4/cyfitter_cfg.c **** {
  77:.\Generated_Source\PSoC4/cyfitter_cfg.c **** 	(void)memcpy(dest, src, n);
  78:.\Generated_Source\PSoC4/cyfitter_cfg.c **** }
  79:.\Generated_Source\PSoC4/cyfitter_cfg.c **** 
  80:.\Generated_Source\PSoC4/cyfitter_cfg.c **** 
  81:.\Generated_Source\PSoC4/cyfitter_cfg.c **** 
  82:.\Generated_Source\PSoC4/cyfitter_cfg.c **** /* Clock startup error codes                                                   */
  83:.\Generated_Source\PSoC4/cyfitter_cfg.c **** #define CYCLOCKSTART_NO_ERROR    0u
  84:.\Generated_Source\PSoC4/cyfitter_cfg.c **** #define CYCLOCKSTART_XTAL_ERROR  1u
  85:.\Generated_Source\PSoC4/cyfitter_cfg.c **** #define CYCLOCKSTART_32KHZ_ERROR 2u
  86:.\Generated_Source\PSoC4/cyfitter_cfg.c **** #define CYCLOCKSTART_PLL_ERROR   3u
  87:.\Generated_Source\PSoC4/cyfitter_cfg.c **** 
  88:.\Generated_Source\PSoC4/cyfitter_cfg.c **** #ifdef CY_NEED_CYCLOCKSTARTUPERROR
  89:.\Generated_Source\PSoC4/cyfitter_cfg.c **** /*******************************************************************************
  90:.\Generated_Source\PSoC4/cyfitter_cfg.c **** * Function Name: CyClockStartupError
ARM GAS  C:\Users\Tim\AppData\Local\Temp\ccsNkvTW.s 			page 3


  91:.\Generated_Source\PSoC4/cyfitter_cfg.c **** ********************************************************************************
  92:.\Generated_Source\PSoC4/cyfitter_cfg.c **** * Summary:
  93:.\Generated_Source\PSoC4/cyfitter_cfg.c **** *  If an error is encountered during clock configuration (crystal startup error,
  94:.\Generated_Source\PSoC4/cyfitter_cfg.c **** *  PLL lock error, etc.), the system will end up here.  Unless reimplemented by
  95:.\Generated_Source\PSoC4/cyfitter_cfg.c **** *  the customer, this function will stop in an infinite loop.
  96:.\Generated_Source\PSoC4/cyfitter_cfg.c **** *
  97:.\Generated_Source\PSoC4/cyfitter_cfg.c **** * Parameters:
  98:.\Generated_Source\PSoC4/cyfitter_cfg.c **** *   void
  99:.\Generated_Source\PSoC4/cyfitter_cfg.c **** *
 100:.\Generated_Source\PSoC4/cyfitter_cfg.c **** * Return:
 101:.\Generated_Source\PSoC4/cyfitter_cfg.c **** *   void
 102:.\Generated_Source\PSoC4/cyfitter_cfg.c **** *
 103:.\Generated_Source\PSoC4/cyfitter_cfg.c **** *******************************************************************************/
 104:.\Generated_Source\PSoC4/cyfitter_cfg.c **** CY_CFG_UNUSED
 105:.\Generated_Source\PSoC4/cyfitter_cfg.c **** static void CyClockStartupError(uint8 errorCode);
 106:.\Generated_Source\PSoC4/cyfitter_cfg.c **** CY_CFG_UNUSED
 107:.\Generated_Source\PSoC4/cyfitter_cfg.c **** static void CyClockStartupError(uint8 errorCode)
 108:.\Generated_Source\PSoC4/cyfitter_cfg.c **** {
 109:.\Generated_Source\PSoC4/cyfitter_cfg.c ****     /* To remove the compiler warning if errorCode not used.                */
 110:.\Generated_Source\PSoC4/cyfitter_cfg.c ****     errorCode = errorCode;
 111:.\Generated_Source\PSoC4/cyfitter_cfg.c **** 
 112:.\Generated_Source\PSoC4/cyfitter_cfg.c ****     /* `#START CyClockStartupError` */
 113:.\Generated_Source\PSoC4/cyfitter_cfg.c **** 
 114:.\Generated_Source\PSoC4/cyfitter_cfg.c ****     /* If we have a clock startup error (bad MHz crystal, PLL lock, etc.),  */
 115:.\Generated_Source\PSoC4/cyfitter_cfg.c ****     /* we will end up here to allow the customer to implement something to  */
 116:.\Generated_Source\PSoC4/cyfitter_cfg.c ****     /* deal with the clock condition.                                       */
 117:.\Generated_Source\PSoC4/cyfitter_cfg.c **** 
 118:.\Generated_Source\PSoC4/cyfitter_cfg.c ****     /* `#END` */
 119:.\Generated_Source\PSoC4/cyfitter_cfg.c **** 
 120:.\Generated_Source\PSoC4/cyfitter_cfg.c ****     /* If nothing else, stop here since the clocks have not started         */
 121:.\Generated_Source\PSoC4/cyfitter_cfg.c ****     /* correctly.                                                           */
 122:.\Generated_Source\PSoC4/cyfitter_cfg.c ****     while(1) {}
 123:.\Generated_Source\PSoC4/cyfitter_cfg.c **** }
 124:.\Generated_Source\PSoC4/cyfitter_cfg.c **** #endif
 125:.\Generated_Source\PSoC4/cyfitter_cfg.c **** 
 126:.\Generated_Source\PSoC4/cyfitter_cfg.c **** #define CY_CFG_BASE_ADDR_COUNT 6u
 127:.\Generated_Source\PSoC4/cyfitter_cfg.c **** CYPACKED typedef struct
 128:.\Generated_Source\PSoC4/cyfitter_cfg.c **** {
 129:.\Generated_Source\PSoC4/cyfitter_cfg.c **** 	uint8 offset;
 130:.\Generated_Source\PSoC4/cyfitter_cfg.c **** 	uint8 value;
 131:.\Generated_Source\PSoC4/cyfitter_cfg.c **** } CYPACKED_ATTR cy_cfg_addrvalue_t;
 132:.\Generated_Source\PSoC4/cyfitter_cfg.c **** 
 133:.\Generated_Source\PSoC4/cyfitter_cfg.c **** 
 134:.\Generated_Source\PSoC4/cyfitter_cfg.c **** 
 135:.\Generated_Source\PSoC4/cyfitter_cfg.c **** /*******************************************************************************
 136:.\Generated_Source\PSoC4/cyfitter_cfg.c **** * Function Name: cfg_write_bytes32
 137:.\Generated_Source\PSoC4/cyfitter_cfg.c **** ********************************************************************************
 138:.\Generated_Source\PSoC4/cyfitter_cfg.c **** * Summary:
 139:.\Generated_Source\PSoC4/cyfitter_cfg.c **** *  This function is used for setting up the chip configuration areas that
 140:.\Generated_Source\PSoC4/cyfitter_cfg.c **** *  contain relatively sparse data.
 141:.\Generated_Source\PSoC4/cyfitter_cfg.c **** *
 142:.\Generated_Source\PSoC4/cyfitter_cfg.c **** * Parameters:
 143:.\Generated_Source\PSoC4/cyfitter_cfg.c **** *   void
 144:.\Generated_Source\PSoC4/cyfitter_cfg.c **** *
 145:.\Generated_Source\PSoC4/cyfitter_cfg.c **** * Return:
 146:.\Generated_Source\PSoC4/cyfitter_cfg.c **** *   void
 147:.\Generated_Source\PSoC4/cyfitter_cfg.c **** *
ARM GAS  C:\Users\Tim\AppData\Local\Temp\ccsNkvTW.s 			page 4


 148:.\Generated_Source\PSoC4/cyfitter_cfg.c **** *******************************************************************************/
 149:.\Generated_Source\PSoC4/cyfitter_cfg.c **** static void cfg_write_bytes32(const uint32 addr_table[], const cy_cfg_addrvalue_t data_table[]);
 150:.\Generated_Source\PSoC4/cyfitter_cfg.c **** static void cfg_write_bytes32(const uint32 addr_table[], const cy_cfg_addrvalue_t data_table[])
 151:.\Generated_Source\PSoC4/cyfitter_cfg.c **** {
  25              		.loc 1 151 0
  26              		.cfi_startproc
  27              	.LVL0:
  28 0000 F0B5     		push	{r4, r5, r6, r7, lr}
  29              		.cfi_def_cfa_offset 20
  30              		.cfi_offset 4, -20
  31              		.cfi_offset 5, -16
  32              		.cfi_offset 6, -12
  33              		.cfi_offset 7, -8
  34              		.cfi_offset 14, -4
  35              	.LVL1:
 152:.\Generated_Source\PSoC4/cyfitter_cfg.c **** 	/* For 32-bit little-endian architectures */
 153:.\Generated_Source\PSoC4/cyfitter_cfg.c **** 	uint32 i, j = 0u;
  36              		.loc 1 153 0
  37 0002 0025     		mov	r5, #0
 154:.\Generated_Source\PSoC4/cyfitter_cfg.c **** 	for (i = 0u; i < CY_CFG_BASE_ADDR_COUNT; i++)
  38              		.loc 1 154 0
  39 0004 0027     		mov	r7, #0
  40 0006 11E0     		b	.L2
  41              	.LVL2:
  42              	.L5:
  43              	.LBB2:
 155:.\Generated_Source\PSoC4/cyfitter_cfg.c **** 	{
 156:.\Generated_Source\PSoC4/cyfitter_cfg.c **** 		uint32 baseAddr = addr_table[i];
  44              		.loc 1 156 0
  45 0008 BB00     		lsl	r3, r7, #2
  46 000a C658     		ldr	r6, [r0, r3]
  47              	.LVL3:
 157:.\Generated_Source\PSoC4/cyfitter_cfg.c **** 		uint8 count = (uint8)baseAddr;
  48              		.loc 1 157 0
  49 000c F3B2     		uxtb	r3, r6
  50              	.LVL4:
 158:.\Generated_Source\PSoC4/cyfitter_cfg.c **** 		baseAddr &= 0xFFFFFF00u;
  51              		.loc 1 158 0
  52 000e FF22     		mov	r2, #255
  53 0010 9643     		bic	r6, r2
  54              	.LVL5:
 159:.\Generated_Source\PSoC4/cyfitter_cfg.c **** 		while (count != 0u)
  55              		.loc 1 159 0
  56 0012 08E0     		b	.L3
  57              	.L4:
 160:.\Generated_Source\PSoC4/cyfitter_cfg.c **** 		{
 161:.\Generated_Source\PSoC4/cyfitter_cfg.c **** 			CY_SET_XTND_REG8((void CYFAR *)(baseAddr + data_table[j].offset), data_table[j].value);
  58              		.loc 1 161 0
  59 0014 6A00     		lsl	r2, r5, #1
  60 0016 8A18     		add	r2, r1, r2
  61 0018 1478     		ldrb	r4, [r2]
  62 001a A419     		add	r4, r4, r6
  63 001c 5278     		ldrb	r2, [r2, #1]
  64 001e 2270     		strb	r2, [r4]
 162:.\Generated_Source\PSoC4/cyfitter_cfg.c **** 			j++;
  65              		.loc 1 162 0
  66 0020 0135     		add	r5, r5, #1
ARM GAS  C:\Users\Tim\AppData\Local\Temp\ccsNkvTW.s 			page 5


  67              	.LVL6:
 163:.\Generated_Source\PSoC4/cyfitter_cfg.c **** 			count--;
  68              		.loc 1 163 0
  69 0022 013B     		sub	r3, r3, #1
  70              	.LVL7:
  71 0024 DBB2     		uxtb	r3, r3
  72              	.LVL8:
  73              	.L3:
 159:.\Generated_Source\PSoC4/cyfitter_cfg.c **** 		{
  74              		.loc 1 159 0
  75 0026 002B     		cmp	r3, #0
  76 0028 F4D1     		bne	.L4
  77              	.LBE2:
 154:.\Generated_Source\PSoC4/cyfitter_cfg.c **** 	{
  78              		.loc 1 154 0 discriminator 2
  79 002a 0137     		add	r7, r7, #1
  80              	.LVL9:
  81              	.L2:
 154:.\Generated_Source\PSoC4/cyfitter_cfg.c **** 	{
  82              		.loc 1 154 0 is_stmt 0 discriminator 1
  83 002c 052F     		cmp	r7, #5
  84 002e EBD9     		bls	.L5
 164:.\Generated_Source\PSoC4/cyfitter_cfg.c **** 		}
 165:.\Generated_Source\PSoC4/cyfitter_cfg.c **** 	}
 166:.\Generated_Source\PSoC4/cyfitter_cfg.c **** }
  85              		.loc 1 166 0 is_stmt 1
  86              		@ sp needed
  87              	.LVL10:
  88              	.LVL11:
  89 0030 F0BD     		pop	{r4, r5, r6, r7, pc}
  90              		.cfi_endproc
  91              	.LFE4:
  92              		.size	cfg_write_bytes32, .-cfg_write_bytes32
  93 0032 C046     		.section	.text.CYMEMZERO,"ax",%progbits
  94              		.align	2
  95              		.code	16
  96              		.thumb_func
  97              		.type	CYMEMZERO, %function
  98              	CYMEMZERO:
  99              	.LFB1:
  62:.\Generated_Source\PSoC4/cyfitter_cfg.c **** 	(void)memset(s, 0, n);
 100              		.loc 1 62 0
 101              		.cfi_startproc
 102              	.LVL12:
 103 0000 08B5     		push	{r3, lr}
 104              		.cfi_def_cfa_offset 8
 105              		.cfi_offset 3, -8
 106              		.cfi_offset 14, -4
 107 0002 0A1C     		mov	r2, r1
  63:.\Generated_Source\PSoC4/cyfitter_cfg.c **** }
 108              		.loc 1 63 0
 109 0004 0021     		mov	r1, #0
 110              	.LVL13:
 111 0006 FFF7FEFF 		bl	memset
 112              	.LVL14:
  64:.\Generated_Source\PSoC4/cyfitter_cfg.c **** CY_CFG_UNUSED
 113              		.loc 1 64 0
ARM GAS  C:\Users\Tim\AppData\Local\Temp\ccsNkvTW.s 			page 6


 114              		@ sp needed
 115 000a 08BD     		pop	{r3, pc}
 116              		.cfi_endproc
 117              	.LFE1:
 118              		.size	CYMEMZERO, .-CYMEMZERO
 119              		.section	.psocinit,"ax",%progbits
 120              		.align	2
 121              		.code	16
 122              		.thumb_func
 123              		.type	ClockSetup, %function
 124              	ClockSetup:
 125              	.LFB5:
 167:.\Generated_Source\PSoC4/cyfitter_cfg.c **** 
 168:.\Generated_Source\PSoC4/cyfitter_cfg.c **** 
 169:.\Generated_Source\PSoC4/cyfitter_cfg.c **** /*******************************************************************************
 170:.\Generated_Source\PSoC4/cyfitter_cfg.c **** * Function Name: ClockSetup
 171:.\Generated_Source\PSoC4/cyfitter_cfg.c **** ********************************************************************************
 172:.\Generated_Source\PSoC4/cyfitter_cfg.c **** *
 173:.\Generated_Source\PSoC4/cyfitter_cfg.c **** * Summary:
 174:.\Generated_Source\PSoC4/cyfitter_cfg.c **** *   Performs the initialization of all of the clocks in the device based on the
 175:.\Generated_Source\PSoC4/cyfitter_cfg.c **** *   settings in the Clock tab of the DWR.  This includes enabling the requested
 176:.\Generated_Source\PSoC4/cyfitter_cfg.c **** *   clocks and setting the necessary dividers to produce the desired frequency. 
 177:.\Generated_Source\PSoC4/cyfitter_cfg.c **** *
 178:.\Generated_Source\PSoC4/cyfitter_cfg.c **** * Parameters:
 179:.\Generated_Source\PSoC4/cyfitter_cfg.c **** *   void
 180:.\Generated_Source\PSoC4/cyfitter_cfg.c **** *
 181:.\Generated_Source\PSoC4/cyfitter_cfg.c **** * Return:
 182:.\Generated_Source\PSoC4/cyfitter_cfg.c **** *   void
 183:.\Generated_Source\PSoC4/cyfitter_cfg.c **** *
 184:.\Generated_Source\PSoC4/cyfitter_cfg.c **** *******************************************************************************/
 185:.\Generated_Source\PSoC4/cyfitter_cfg.c **** static void ClockSetup(void);
 186:.\Generated_Source\PSoC4/cyfitter_cfg.c **** CY_CFG_SECTION
 187:.\Generated_Source\PSoC4/cyfitter_cfg.c **** static void ClockSetup(void)
 188:.\Generated_Source\PSoC4/cyfitter_cfg.c **** {
 126              		.loc 1 188 0
 127              		.cfi_startproc
 128 0000 08B5     		push	{r3, lr}
 129              		.cfi_def_cfa_offset 8
 130              		.cfi_offset 3, -8
 131              		.cfi_offset 14, -4
 189:.\Generated_Source\PSoC4/cyfitter_cfg.c **** 
 190:.\Generated_Source\PSoC4/cyfitter_cfg.c **** 	/* Set Flash Cycles based on max possible frequency in case a glitch occurs during ClockSetup(). *
 191:.\Generated_Source\PSoC4/cyfitter_cfg.c **** 	CY_SET_REG32((void CYXDATA *)(CYREG_CPUSS_FLASH_CTL), (0x0012u));
 132              		.loc 1 191 0
 133 0002 1222     		mov	r2, #18
 134 0004 224B     		ldr	r3, .L8
 135 0006 1A60     		str	r2, [r3]
 192:.\Generated_Source\PSoC4/cyfitter_cfg.c **** 	/* Setup and trim IMO based on desired frequency. */
 193:.\Generated_Source\PSoC4/cyfitter_cfg.c **** 	CySysClkWriteImoFreq(48u);
 136              		.loc 1 193 0
 137 0008 3020     		mov	r0, #48
 138 000a FFF7FEFF 		bl	CySysClkWriteImoFreq
 139              	.LVL15:
 194:.\Generated_Source\PSoC4/cyfitter_cfg.c **** 	/* CYDEV_CLK_ILO_CONFIG Starting address: CYDEV_CLK_ILO_CONFIG */
 195:.\Generated_Source\PSoC4/cyfitter_cfg.c **** 	CY_SET_XTND_REG32((void CYFAR *)(CYREG_CLK_ILO_CONFIG), 0x80000006u);
 140              		.loc 1 195 0
 141 000e 214A     		ldr	r2, .L8+4
ARM GAS  C:\Users\Tim\AppData\Local\Temp\ccsNkvTW.s 			page 7


 142 0010 214B     		ldr	r3, .L8+8
 143 0012 1A60     		str	r2, [r3]
 196:.\Generated_Source\PSoC4/cyfitter_cfg.c **** 
 197:.\Generated_Source\PSoC4/cyfitter_cfg.c **** 
 198:.\Generated_Source\PSoC4/cyfitter_cfg.c **** 	/* Setup phase aligned clocks */
 199:.\Generated_Source\PSoC4/cyfitter_cfg.c **** 	CY_SET_REG32((void *)CYREG_PERI_DIV_16_CTL4, 0x00002F00u);
 144              		.loc 1 199 0
 145 0014 BC22     		mov	r2, #188
 146 0016 9201     		lsl	r2, r2, #6
 147 0018 204B     		ldr	r3, .L8+12
 148 001a 1A60     		str	r2, [r3]
 200:.\Generated_Source\PSoC4/cyfitter_cfg.c **** 	CY_SET_REG32((void *)CYREG_PERI_DIV_CMD, 0x8000FF44u);
 149              		.loc 1 200 0
 150 001c 204B     		ldr	r3, .L8+16
 151 001e 2149     		ldr	r1, .L8+20
 152 0020 1960     		str	r1, [r3]
 201:.\Generated_Source\PSoC4/cyfitter_cfg.c **** 	CY_SET_REG32((void *)CYREG_PERI_DIV_16_CTL3, 0x00002F00u);
 153              		.loc 1 201 0
 154 0022 2149     		ldr	r1, .L8+24
 155 0024 0A60     		str	r2, [r1]
 202:.\Generated_Source\PSoC4/cyfitter_cfg.c **** 	CY_SET_REG32((void *)CYREG_PERI_DIV_CMD, 0x8000FF43u);
 156              		.loc 1 202 0
 157 0026 2149     		ldr	r1, .L8+28
 158 0028 1960     		str	r1, [r3]
 203:.\Generated_Source\PSoC4/cyfitter_cfg.c **** 	CY_SET_REG32((void *)CYREG_PERI_DIV_16_CTL2, 0x00002F00u);
 159              		.loc 1 203 0
 160 002a 2149     		ldr	r1, .L8+32
 161 002c 0A60     		str	r2, [r1]
 204:.\Generated_Source\PSoC4/cyfitter_cfg.c **** 	CY_SET_REG32((void *)CYREG_PERI_DIV_CMD, 0x8000FF42u);
 162              		.loc 1 204 0
 163 002e 214A     		ldr	r2, .L8+36
 164 0030 1A60     		str	r2, [r3]
 205:.\Generated_Source\PSoC4/cyfitter_cfg.c **** 	CY_SET_REG32((void *)CYREG_PERI_DIV_16_CTL1, 0x00002200u);
 165              		.loc 1 205 0
 166 0032 8821     		mov	r1, #136
 167 0034 8901     		lsl	r1, r1, #6
 168 0036 204A     		ldr	r2, .L8+40
 169 0038 1160     		str	r1, [r2]
 206:.\Generated_Source\PSoC4/cyfitter_cfg.c **** 	CY_SET_REG32((void *)CYREG_PERI_DIV_CMD, 0x8000FF41u);
 170              		.loc 1 206 0
 171 003a 204A     		ldr	r2, .L8+44
 172 003c 1A60     		str	r2, [r3]
 207:.\Generated_Source\PSoC4/cyfitter_cfg.c **** 	CY_SET_REG32((void *)CYREG_PERI_DIV_16_CTL0, 0x00001D00u);
 173              		.loc 1 207 0
 174 003e E821     		mov	r1, #232
 175 0040 4901     		lsl	r1, r1, #5
 176 0042 1F4A     		ldr	r2, .L8+48
 177 0044 1160     		str	r1, [r2]
 208:.\Generated_Source\PSoC4/cyfitter_cfg.c **** 	CY_SET_REG32((void *)CYREG_PERI_DIV_CMD, 0x8000FF40u);
 178              		.loc 1 208 0
 179 0046 1F4A     		ldr	r2, .L8+52
 180 0048 1A60     		str	r2, [r3]
 209:.\Generated_Source\PSoC4/cyfitter_cfg.c **** 
 210:.\Generated_Source\PSoC4/cyfitter_cfg.c **** 	/* CYDEV_CLK_IMO_CONFIG Starting address: CYDEV_CLK_IMO_CONFIG */
 211:.\Generated_Source\PSoC4/cyfitter_cfg.c **** 	CY_SET_XTND_REG32((void CYFAR *)(CYREG_CLK_IMO_CONFIG), 0x82000000u);
 181              		.loc 1 211 0
 182 004a 8222     		mov	r2, #130
ARM GAS  C:\Users\Tim\AppData\Local\Temp\ccsNkvTW.s 			page 8


 183 004c 1206     		lsl	r2, r2, #24
 184 004e 1E4B     		ldr	r3, .L8+56
 185 0050 1A60     		str	r2, [r3]
 212:.\Generated_Source\PSoC4/cyfitter_cfg.c **** 
 213:.\Generated_Source\PSoC4/cyfitter_cfg.c **** 	/* CYDEV_CLK_SELECT Starting address: CYDEV_CLK_SELECT */
 214:.\Generated_Source\PSoC4/cyfitter_cfg.c **** 	CY_SET_XTND_REG32((void CYFAR *)(CYREG_CLK_SELECT), 0x00040000u);
 186              		.loc 1 214 0
 187 0052 8022     		mov	r2, #128
 188 0054 D202     		lsl	r2, r2, #11
 189 0056 1D4B     		ldr	r3, .L8+60
 190 0058 1A60     		str	r2, [r3]
 215:.\Generated_Source\PSoC4/cyfitter_cfg.c **** 
 216:.\Generated_Source\PSoC4/cyfitter_cfg.c **** 	/* CYDEV_PERI_PCLK_CTL16 Starting address: CYDEV_PERI_PCLK_CTL16 */
 217:.\Generated_Source\PSoC4/cyfitter_cfg.c **** 	CY_SET_XTND_REG32((void CYFAR *)(CYREG_PERI_PCLK_CTL16), 0x00000044u);
 191              		.loc 1 217 0
 192 005a 4422     		mov	r2, #68
 193 005c 1C4B     		ldr	r3, .L8+64
 194 005e 1A60     		str	r2, [r3]
 218:.\Generated_Source\PSoC4/cyfitter_cfg.c **** 
 219:.\Generated_Source\PSoC4/cyfitter_cfg.c **** 	/* CYDEV_PERI_PCLK_CTL11 Starting address: CYDEV_PERI_PCLK_CTL11 */
 220:.\Generated_Source\PSoC4/cyfitter_cfg.c **** 	CY_SET_XTND_REG32((void CYFAR *)(CYREG_PERI_PCLK_CTL11), 0x00000043u);
 195              		.loc 1 220 0
 196 0060 013A     		sub	r2, r2, #1
 197 0062 1C4B     		ldr	r3, .L8+68
 198 0064 1A60     		str	r2, [r3]
 221:.\Generated_Source\PSoC4/cyfitter_cfg.c **** 
 222:.\Generated_Source\PSoC4/cyfitter_cfg.c **** 	/* CYDEV_PERI_PCLK_CTL10 Starting address: CYDEV_PERI_PCLK_CTL10 */
 223:.\Generated_Source\PSoC4/cyfitter_cfg.c **** 	CY_SET_XTND_REG32((void CYFAR *)(CYREG_PERI_PCLK_CTL10), 0x00000042u);
 199              		.loc 1 223 0
 200 0066 013A     		sub	r2, r2, #1
 201 0068 1B4B     		ldr	r3, .L8+72
 202 006a 1A60     		str	r2, [r3]
 224:.\Generated_Source\PSoC4/cyfitter_cfg.c **** 
 225:.\Generated_Source\PSoC4/cyfitter_cfg.c **** 	/* CYDEV_PERI_PCLK_CTL3 Starting address: CYDEV_PERI_PCLK_CTL3 */
 226:.\Generated_Source\PSoC4/cyfitter_cfg.c **** 	CY_SET_XTND_REG32((void CYFAR *)(CYREG_PERI_PCLK_CTL3), 0x00000041u);
 203              		.loc 1 226 0
 204 006c 013A     		sub	r2, r2, #1
 205 006e 1B4B     		ldr	r3, .L8+76
 206 0070 1A60     		str	r2, [r3]
 227:.\Generated_Source\PSoC4/cyfitter_cfg.c **** 
 228:.\Generated_Source\PSoC4/cyfitter_cfg.c **** 	/* CYDEV_PERI_PCLK_CTL2 Starting address: CYDEV_PERI_PCLK_CTL2 */
 229:.\Generated_Source\PSoC4/cyfitter_cfg.c **** 	CY_SET_XTND_REG32((void CYFAR *)(CYREG_PERI_PCLK_CTL2), 0x00000040u);
 207              		.loc 1 229 0
 208 0072 013A     		sub	r2, r2, #1
 209 0074 1A4B     		ldr	r3, .L8+80
 210 0076 1A60     		str	r2, [r3]
 230:.\Generated_Source\PSoC4/cyfitter_cfg.c **** 
 231:.\Generated_Source\PSoC4/cyfitter_cfg.c **** 	(void)CyIntSetVector(7u, &CySysWdtIsr);
 211              		.loc 1 231 0
 212 0078 0720     		mov	r0, #7
 213 007a 1A49     		ldr	r1, .L8+84
 214 007c FFF7FEFF 		bl	CyIntSetVector
 215              	.LVL16:
 232:.\Generated_Source\PSoC4/cyfitter_cfg.c **** 	CyIntEnable(7u);
 216              		.loc 1 232 0
 217 0080 0720     		mov	r0, #7
 218 0082 FFF7FEFF 		bl	CyIntEnable
ARM GAS  C:\Users\Tim\AppData\Local\Temp\ccsNkvTW.s 			page 9


 219              	.LVL17:
 233:.\Generated_Source\PSoC4/cyfitter_cfg.c **** 	CY_SET_XTND_REG32((void CYFAR *)(CYREG_WDT_CONFIG), 0x00000000u);
 220              		.loc 1 233 0
 221 0086 0022     		mov	r2, #0
 222 0088 174B     		ldr	r3, .L8+88
 223 008a 1A60     		str	r2, [r3]
 234:.\Generated_Source\PSoC4/cyfitter_cfg.c **** }
 224              		.loc 1 234 0
 225              		@ sp needed
 226 008c 08BD     		pop	{r3, pc}
 227              	.L9:
 228 008e C046     		.align	2
 229              	.L8:
 230 0090 30001040 		.word	1074790448
 231 0094 06000080 		.word	-2147483642
 232 0098 04010B40 		.word	1074462980
 233 009c 10030140 		.word	1073808144
 234 00a0 00000140 		.word	1073807360
 235 00a4 44FF0080 		.word	-2147418300
 236 00a8 0C030140 		.word	1073808140
 237 00ac 43FF0080 		.word	-2147418301
 238 00b0 08030140 		.word	1073808136
 239 00b4 42FF0080 		.word	-2147418302
 240 00b8 04030140 		.word	1073808132
 241 00bc 41FF0080 		.word	-2147418303
 242 00c0 00030140 		.word	1073808128
 243 00c4 40FF0080 		.word	-2147418304
 244 00c8 08010B40 		.word	1074462984
 245 00cc 00010B40 		.word	1074462976
 246 00d0 40010140 		.word	1073807680
 247 00d4 2C010140 		.word	1073807660
 248 00d8 28010140 		.word	1073807656
 249 00dc 0C010140 		.word	1073807628
 250 00e0 08010140 		.word	1073807624
 251 00e4 00000000 		.word	CySysWdtIsr
 252 00e8 0C020B40 		.word	1074463244
 253              		.cfi_endproc
 254              	.LFE5:
 255              		.size	ClockSetup, .-ClockSetup
 256              		.section	.text.SetAnalogRoutingPumps,"ax",%progbits
 257              		.align	2
 258              		.global	SetAnalogRoutingPumps
 259              		.code	16
 260              		.thumb_func
 261              		.type	SetAnalogRoutingPumps, %function
 262              	SetAnalogRoutingPumps:
 263              	.LFB7:
 235:.\Generated_Source\PSoC4/cyfitter_cfg.c **** 
 236:.\Generated_Source\PSoC4/cyfitter_cfg.c **** 
 237:.\Generated_Source\PSoC4/cyfitter_cfg.c **** /* Analog API Functions */
 238:.\Generated_Source\PSoC4/cyfitter_cfg.c **** 
 239:.\Generated_Source\PSoC4/cyfitter_cfg.c **** 
 240:.\Generated_Source\PSoC4/cyfitter_cfg.c **** /*******************************************************************************
 241:.\Generated_Source\PSoC4/cyfitter_cfg.c **** * Function Name: AnalogSetDefault
 242:.\Generated_Source\PSoC4/cyfitter_cfg.c **** ********************************************************************************
 243:.\Generated_Source\PSoC4/cyfitter_cfg.c **** *
 244:.\Generated_Source\PSoC4/cyfitter_cfg.c **** * Summary:
ARM GAS  C:\Users\Tim\AppData\Local\Temp\ccsNkvTW.s 			page 10


 245:.\Generated_Source\PSoC4/cyfitter_cfg.c **** *  Sets up the analog portions of the chip to default values based on chip
 246:.\Generated_Source\PSoC4/cyfitter_cfg.c **** *  configuration options from the project.
 247:.\Generated_Source\PSoC4/cyfitter_cfg.c **** *
 248:.\Generated_Source\PSoC4/cyfitter_cfg.c **** * Parameters:
 249:.\Generated_Source\PSoC4/cyfitter_cfg.c **** *  void
 250:.\Generated_Source\PSoC4/cyfitter_cfg.c **** *
 251:.\Generated_Source\PSoC4/cyfitter_cfg.c **** * Return:
 252:.\Generated_Source\PSoC4/cyfitter_cfg.c **** *  void
 253:.\Generated_Source\PSoC4/cyfitter_cfg.c **** *
 254:.\Generated_Source\PSoC4/cyfitter_cfg.c **** *******************************************************************************/
 255:.\Generated_Source\PSoC4/cyfitter_cfg.c **** static void AnalogSetDefault(void);
 256:.\Generated_Source\PSoC4/cyfitter_cfg.c **** static void AnalogSetDefault(void)
 257:.\Generated_Source\PSoC4/cyfitter_cfg.c **** {
 258:.\Generated_Source\PSoC4/cyfitter_cfg.c **** 	CY_SET_XTND_REG32((void CYFAR *)CYREG_HSIOM_AMUX_SPLIT_CTL1, 0x00000033u);
 259:.\Generated_Source\PSoC4/cyfitter_cfg.c **** 	CY_SET_XTND_REG32((void CYFAR *)CYREG_CTBM0_DFT_CTRL, 0x00000003u);
 260:.\Generated_Source\PSoC4/cyfitter_cfg.c **** 	CY_SET_XTND_REG32((void CYFAR *)CYREG_CTBM1_DFT_CTRL, 0x00000003u);
 261:.\Generated_Source\PSoC4/cyfitter_cfg.c **** 	CY_SET_XTND_REG32((void CYFAR *)CYREG_SAR_CTRL, 0x08000000u);
 262:.\Generated_Source\PSoC4/cyfitter_cfg.c **** 	CY_SET_XTND_REG32((void CYFAR *)CYREG_SAR_MUX_SWITCH0, 0x000C003Fu);
 263:.\Generated_Source\PSoC4/cyfitter_cfg.c **** 	CY_SET_XTND_REG32((void CYFAR *)CYREG_SAR_MUX_SWITCH_HW_CTRL, 0x000C003Fu);
 264:.\Generated_Source\PSoC4/cyfitter_cfg.c **** 	CY_SET_XTND_REG32((void CYFAR *)CYREG_PASS_DSAB_DSAB_CTRL, 0x00000000u);
 265:.\Generated_Source\PSoC4/cyfitter_cfg.c **** 	SetAnalogRoutingPumps(1);
 266:.\Generated_Source\PSoC4/cyfitter_cfg.c **** }
 267:.\Generated_Source\PSoC4/cyfitter_cfg.c **** 
 268:.\Generated_Source\PSoC4/cyfitter_cfg.c **** 
 269:.\Generated_Source\PSoC4/cyfitter_cfg.c **** /*******************************************************************************
 270:.\Generated_Source\PSoC4/cyfitter_cfg.c **** * Function Name: SetAnalogRoutingPumps
 271:.\Generated_Source\PSoC4/cyfitter_cfg.c **** ********************************************************************************
 272:.\Generated_Source\PSoC4/cyfitter_cfg.c **** *
 273:.\Generated_Source\PSoC4/cyfitter_cfg.c **** * Summary:
 274:.\Generated_Source\PSoC4/cyfitter_cfg.c **** * Enables or disables the analog pumps feeding analog routing switches.
 275:.\Generated_Source\PSoC4/cyfitter_cfg.c **** * Intended to be called at startup, based on the Vdda system configuration;
 276:.\Generated_Source\PSoC4/cyfitter_cfg.c **** * may be called during operation when the user informs us that the Vdda voltage crossed the pump th
 277:.\Generated_Source\PSoC4/cyfitter_cfg.c **** *
 278:.\Generated_Source\PSoC4/cyfitter_cfg.c **** * Parameters:
 279:.\Generated_Source\PSoC4/cyfitter_cfg.c **** *  enabled - 1 to enable the pumps, 0 to disable the pumps
 280:.\Generated_Source\PSoC4/cyfitter_cfg.c **** *
 281:.\Generated_Source\PSoC4/cyfitter_cfg.c **** * Return:
 282:.\Generated_Source\PSoC4/cyfitter_cfg.c **** *  void
 283:.\Generated_Source\PSoC4/cyfitter_cfg.c **** *
 284:.\Generated_Source\PSoC4/cyfitter_cfg.c **** *******************************************************************************/
 285:.\Generated_Source\PSoC4/cyfitter_cfg.c **** void SetAnalogRoutingPumps(uint8 enabled)
 286:.\Generated_Source\PSoC4/cyfitter_cfg.c **** {
 264              		.loc 1 286 0
 265              		.cfi_startproc
 266              	.LVL18:
 287:.\Generated_Source\PSoC4/cyfitter_cfg.c **** 	uint32 regValue = CY_GET_XTND_REG32((void *)(CYREG_SAR_PUMP_CTRL));
 267              		.loc 1 287 0
 268 0000 064B     		ldr	r3, .L13
 269 0002 1B68     		ldr	r3, [r3]
 270              	.LVL19:
 288:.\Generated_Source\PSoC4/cyfitter_cfg.c **** 	if (enabled != 0u)
 271              		.loc 1 288 0
 272 0004 0028     		cmp	r0, #0
 273 0006 03D0     		beq	.L11
 289:.\Generated_Source\PSoC4/cyfitter_cfg.c **** 	{
 290:.\Generated_Source\PSoC4/cyfitter_cfg.c **** 		regValue |= 0x80000000u;
 274              		.loc 1 290 0
ARM GAS  C:\Users\Tim\AppData\Local\Temp\ccsNkvTW.s 			page 11


 275 0008 8022     		mov	r2, #128
 276 000a 1206     		lsl	r2, r2, #24
 277 000c 1343     		orr	r3, r2
 278              	.LVL20:
 279 000e 01E0     		b	.L12
 280              	.L11:
 291:.\Generated_Source\PSoC4/cyfitter_cfg.c **** 	}
 292:.\Generated_Source\PSoC4/cyfitter_cfg.c **** 	else
 293:.\Generated_Source\PSoC4/cyfitter_cfg.c **** 	{
 294:.\Generated_Source\PSoC4/cyfitter_cfg.c **** 		regValue &= ~0x80000000u;
 281              		.loc 1 294 0
 282 0010 5B00     		lsl	r3, r3, #1
 283              	.LVL21:
 284 0012 5B08     		lsr	r3, r3, #1
 285              	.LVL22:
 286              	.L12:
 295:.\Generated_Source\PSoC4/cyfitter_cfg.c **** 	}
 296:.\Generated_Source\PSoC4/cyfitter_cfg.c **** 	CY_SET_XTND_REG32((void *)(CYREG_SAR_PUMP_CTRL), regValue);
 287              		.loc 1 296 0
 288 0014 014A     		ldr	r2, .L13
 289 0016 1360     		str	r3, [r2]
 297:.\Generated_Source\PSoC4/cyfitter_cfg.c **** }
 290              		.loc 1 297 0
 291              		@ sp needed
 292 0018 7047     		bx	lr
 293              	.L14:
 294 001a C046     		.align	2
 295              	.L13:
 296 001c 80033A40 		.word	1077543808
 297              		.cfi_endproc
 298              	.LFE7:
 299              		.size	SetAnalogRoutingPumps, .-SetAnalogRoutingPumps
 300              		.section	.text.AnalogSetDefault,"ax",%progbits
 301              		.align	2
 302              		.code	16
 303              		.thumb_func
 304              		.type	AnalogSetDefault, %function
 305              	AnalogSetDefault:
 306              	.LFB6:
 257:.\Generated_Source\PSoC4/cyfitter_cfg.c **** 	CY_SET_XTND_REG32((void CYFAR *)CYREG_HSIOM_AMUX_SPLIT_CTL1, 0x00000033u);
 307              		.loc 1 257 0
 308              		.cfi_startproc
 309 0000 08B5     		push	{r3, lr}
 310              		.cfi_def_cfa_offset 8
 311              		.cfi_offset 3, -8
 312              		.cfi_offset 14, -4
 258:.\Generated_Source\PSoC4/cyfitter_cfg.c **** 	CY_SET_XTND_REG32((void CYFAR *)CYREG_CTBM0_DFT_CTRL, 0x00000003u);
 313              		.loc 1 258 0
 314 0002 3322     		mov	r2, #51
 315 0004 0B4B     		ldr	r3, .L16
 316 0006 1A60     		str	r2, [r3]
 259:.\Generated_Source\PSoC4/cyfitter_cfg.c **** 	CY_SET_XTND_REG32((void CYFAR *)CYREG_CTBM1_DFT_CTRL, 0x00000003u);
 317              		.loc 1 259 0
 318 0008 0323     		mov	r3, #3
 319 000a 0B4A     		ldr	r2, .L16+4
 320 000c 1360     		str	r3, [r2]
 260:.\Generated_Source\PSoC4/cyfitter_cfg.c **** 	CY_SET_XTND_REG32((void CYFAR *)CYREG_SAR_CTRL, 0x08000000u);
ARM GAS  C:\Users\Tim\AppData\Local\Temp\ccsNkvTW.s 			page 12


 321              		.loc 1 260 0
 322 000e 0B4A     		ldr	r2, .L16+8
 323 0010 1360     		str	r3, [r2]
 261:.\Generated_Source\PSoC4/cyfitter_cfg.c **** 	CY_SET_XTND_REG32((void CYFAR *)CYREG_SAR_MUX_SWITCH0, 0x000C003Fu);
 324              		.loc 1 261 0
 325 0012 8022     		mov	r2, #128
 326 0014 1205     		lsl	r2, r2, #20
 327 0016 0A4B     		ldr	r3, .L16+12
 328 0018 1A60     		str	r2, [r3]
 262:.\Generated_Source\PSoC4/cyfitter_cfg.c **** 	CY_SET_XTND_REG32((void CYFAR *)CYREG_SAR_MUX_SWITCH_HW_CTRL, 0x000C003Fu);
 329              		.loc 1 262 0
 330 001a 0A4B     		ldr	r3, .L16+16
 331 001c 0A4A     		ldr	r2, .L16+20
 332 001e 1360     		str	r3, [r2]
 263:.\Generated_Source\PSoC4/cyfitter_cfg.c **** 	CY_SET_XTND_REG32((void CYFAR *)CYREG_PASS_DSAB_DSAB_CTRL, 0x00000000u);
 333              		.loc 1 263 0
 334 0020 0A4A     		ldr	r2, .L16+24
 335 0022 1360     		str	r3, [r2]
 264:.\Generated_Source\PSoC4/cyfitter_cfg.c **** 	SetAnalogRoutingPumps(1);
 336              		.loc 1 264 0
 337 0024 0022     		mov	r2, #0
 338 0026 0A4B     		ldr	r3, .L16+28
 339 0028 1A60     		str	r2, [r3]
 265:.\Generated_Source\PSoC4/cyfitter_cfg.c **** }
 340              		.loc 1 265 0
 341 002a 0120     		mov	r0, #1
 342 002c FFF7FEFF 		bl	SetAnalogRoutingPumps
 343              	.LVL23:
 266:.\Generated_Source\PSoC4/cyfitter_cfg.c **** 
 344              		.loc 1 266 0
 345              		@ sp needed
 346 0030 08BD     		pop	{r3, pc}
 347              	.L17:
 348 0032 C046     		.align	2
 349              	.L16:
 350 0034 04210240 		.word	1073881348
 351 0038 30003040 		.word	1076887600
 352 003c 30003140 		.word	1076953136
 353 0040 00003A40 		.word	1077542912
 354 0044 3F000C00 		.word	786495
 355 0048 00033A40 		.word	1077543680
 356 004c 40033A40 		.word	1077543744
 357 0050 000E3F40 		.word	1077874176
 358              		.cfi_endproc
 359              	.LFE6:
 360              		.size	AnalogSetDefault, .-AnalogSetDefault
 361              		.section	.psocinit
 362              		.align	2
 363              		.global	cyfitter_cfg
 364              		.code	16
 365              		.thumb_func
 366              		.type	cyfitter_cfg, %function
 367              	cyfitter_cfg:
 368              	.LFB8:
 298:.\Generated_Source\PSoC4/cyfitter_cfg.c **** 
 299:.\Generated_Source\PSoC4/cyfitter_cfg.c **** #define CY_AMUX_UNUSED CYREG_CM0_ROM_DWT
 300:.\Generated_Source\PSoC4/cyfitter_cfg.c **** 
ARM GAS  C:\Users\Tim\AppData\Local\Temp\ccsNkvTW.s 			page 13


 301:.\Generated_Source\PSoC4/cyfitter_cfg.c **** 
 302:.\Generated_Source\PSoC4/cyfitter_cfg.c **** /*******************************************************************************
 303:.\Generated_Source\PSoC4/cyfitter_cfg.c **** * Function Name: cyfitter_cfg
 304:.\Generated_Source\PSoC4/cyfitter_cfg.c **** ********************************************************************************
 305:.\Generated_Source\PSoC4/cyfitter_cfg.c **** * Summary:
 306:.\Generated_Source\PSoC4/cyfitter_cfg.c **** *  This function is called by the start-up code for the selected device. It
 307:.\Generated_Source\PSoC4/cyfitter_cfg.c **** *  performs all of the necessary device configuration based on the design
 308:.\Generated_Source\PSoC4/cyfitter_cfg.c **** *  settings.  This includes settings from the Design Wide Resources (DWR) such
 309:.\Generated_Source\PSoC4/cyfitter_cfg.c **** *  as Clocks and Pins as well as any component configuration that is necessary.
 310:.\Generated_Source\PSoC4/cyfitter_cfg.c **** *
 311:.\Generated_Source\PSoC4/cyfitter_cfg.c **** * Parameters:  
 312:.\Generated_Source\PSoC4/cyfitter_cfg.c **** *   void
 313:.\Generated_Source\PSoC4/cyfitter_cfg.c **** *
 314:.\Generated_Source\PSoC4/cyfitter_cfg.c **** * Return:
 315:.\Generated_Source\PSoC4/cyfitter_cfg.c **** *   void
 316:.\Generated_Source\PSoC4/cyfitter_cfg.c **** *
 317:.\Generated_Source\PSoC4/cyfitter_cfg.c **** *******************************************************************************/
 318:.\Generated_Source\PSoC4/cyfitter_cfg.c **** CY_CFG_SECTION
 319:.\Generated_Source\PSoC4/cyfitter_cfg.c **** void cyfitter_cfg(void)
 320:.\Generated_Source\PSoC4/cyfitter_cfg.c **** {
 369              		.loc 1 320 0
 370              		.cfi_startproc
 371 00ec 10B5     		push	{r4, lr}
 372              		.cfi_def_cfa_offset 8
 373              		.cfi_offset 4, -8
 374              		.cfi_offset 14, -4
 321:.\Generated_Source\PSoC4/cyfitter_cfg.c **** 	/* Disable interrupts by default. Let user enable if/when they want. */
 322:.\Generated_Source\PSoC4/cyfitter_cfg.c **** 	CyGlobalIntDisable;
 375              		.loc 1 322 0
 376              	@ 322 ".\Generated_Source\PSoC4\cyfitter_cfg.c" 1
 377 00ee 72B6     		CPSID   i
 378              	@ 0 "" 2
 379              	.LVL24:
 380              		.code	16
 381              	.LBB3:
 323:.\Generated_Source\PSoC4/cyfitter_cfg.c **** 
 324:.\Generated_Source\PSoC4/cyfitter_cfg.c **** 	{
 325:.\Generated_Source\PSoC4/cyfitter_cfg.c **** 		static const uint32 CYCODE cy_cfg_addr_table[] = {
 326:.\Generated_Source\PSoC4/cyfitter_cfg.c **** 			0x400F3216u, /* Base address: 0x400F3200 Count: 22 */
 327:.\Generated_Source\PSoC4/cyfitter_cfg.c **** 			0x400F3319u, /* Base address: 0x400F3300 Count: 25 */
 328:.\Generated_Source\PSoC4/cyfitter_cfg.c **** 			0x400F4005u, /* Base address: 0x400F4000 Count: 5 */
 329:.\Generated_Source\PSoC4/cyfitter_cfg.c **** 			0x400F4113u, /* Base address: 0x400F4100 Count: 19 */
 330:.\Generated_Source\PSoC4/cyfitter_cfg.c **** 			0x400F4306u, /* Base address: 0x400F4300 Count: 6 */
 331:.\Generated_Source\PSoC4/cyfitter_cfg.c **** 			0x400F6002u, /* Base address: 0x400F6000 Count: 2 */
 332:.\Generated_Source\PSoC4/cyfitter_cfg.c **** 		};
 333:.\Generated_Source\PSoC4/cyfitter_cfg.c **** 
 334:.\Generated_Source\PSoC4/cyfitter_cfg.c **** 		static const cy_cfg_addrvalue_t CYCODE cy_cfg_data_table[] = {
 335:.\Generated_Source\PSoC4/cyfitter_cfg.c **** 			{0x02u, 0x08u},
 336:.\Generated_Source\PSoC4/cyfitter_cfg.c **** 			{0x06u, 0x80u},
 337:.\Generated_Source\PSoC4/cyfitter_cfg.c **** 			{0x0Au, 0x40u},
 338:.\Generated_Source\PSoC4/cyfitter_cfg.c **** 			{0x0Eu, 0x20u},
 339:.\Generated_Source\PSoC4/cyfitter_cfg.c **** 			{0x12u, 0x02u},
 340:.\Generated_Source\PSoC4/cyfitter_cfg.c **** 			{0x16u, 0x04u},
 341:.\Generated_Source\PSoC4/cyfitter_cfg.c **** 			{0x18u, 0xE1u},
 342:.\Generated_Source\PSoC4/cyfitter_cfg.c **** 			{0x1Au, 0x1Eu},
 343:.\Generated_Source\PSoC4/cyfitter_cfg.c **** 			{0x1Eu, 0x01u},
 344:.\Generated_Source\PSoC4/cyfitter_cfg.c **** 			{0x26u, 0x10u},
ARM GAS  C:\Users\Tim\AppData\Local\Temp\ccsNkvTW.s 			page 14


 345:.\Generated_Source\PSoC4/cyfitter_cfg.c **** 			{0x28u, 0x99u},
 346:.\Generated_Source\PSoC4/cyfitter_cfg.c **** 			{0x2Au, 0x66u},
 347:.\Generated_Source\PSoC4/cyfitter_cfg.c **** 			{0x2Cu, 0x55u},
 348:.\Generated_Source\PSoC4/cyfitter_cfg.c **** 			{0x2Eu, 0xAAu},
 349:.\Generated_Source\PSoC4/cyfitter_cfg.c **** 			{0x36u, 0xFFu},
 350:.\Generated_Source\PSoC4/cyfitter_cfg.c **** 			{0x37u, 0x01u},
 351:.\Generated_Source\PSoC4/cyfitter_cfg.c **** 			{0x3Eu, 0x40u},
 352:.\Generated_Source\PSoC4/cyfitter_cfg.c **** 			{0x3Fu, 0x40u},
 353:.\Generated_Source\PSoC4/cyfitter_cfg.c **** 			{0x58u, 0x04u},
 354:.\Generated_Source\PSoC4/cyfitter_cfg.c **** 			{0x59u, 0x04u},
 355:.\Generated_Source\PSoC4/cyfitter_cfg.c **** 			{0x5Bu, 0x04u},
 356:.\Generated_Source\PSoC4/cyfitter_cfg.c **** 			{0x5Fu, 0x01u},
 357:.\Generated_Source\PSoC4/cyfitter_cfg.c **** 			{0x05u, 0x01u},
 358:.\Generated_Source\PSoC4/cyfitter_cfg.c **** 			{0x06u, 0x2Au},
 359:.\Generated_Source\PSoC4/cyfitter_cfg.c **** 			{0x0Du, 0x8Au},
 360:.\Generated_Source\PSoC4/cyfitter_cfg.c **** 			{0x0Eu, 0x04u},
 361:.\Generated_Source\PSoC4/cyfitter_cfg.c **** 			{0x14u, 0x20u},
 362:.\Generated_Source\PSoC4/cyfitter_cfg.c **** 			{0x15u, 0x50u},
 363:.\Generated_Source\PSoC4/cyfitter_cfg.c **** 			{0x1Fu, 0x40u},
 364:.\Generated_Source\PSoC4/cyfitter_cfg.c **** 			{0x25u, 0x40u},
 365:.\Generated_Source\PSoC4/cyfitter_cfg.c **** 			{0x6Du, 0x50u},
 366:.\Generated_Source\PSoC4/cyfitter_cfg.c **** 			{0x6Eu, 0x04u},
 367:.\Generated_Source\PSoC4/cyfitter_cfg.c **** 			{0x82u, 0x2Au},
 368:.\Generated_Source\PSoC4/cyfitter_cfg.c **** 			{0x84u, 0x20u},
 369:.\Generated_Source\PSoC4/cyfitter_cfg.c **** 			{0x87u, 0x40u},
 370:.\Generated_Source\PSoC4/cyfitter_cfg.c **** 			{0x89u, 0xC0u},
 371:.\Generated_Source\PSoC4/cyfitter_cfg.c **** 			{0x8Du, 0x01u},
 372:.\Generated_Source\PSoC4/cyfitter_cfg.c **** 			{0xA1u, 0x0Au},
 373:.\Generated_Source\PSoC4/cyfitter_cfg.c **** 			{0xA9u, 0x02u},
 374:.\Generated_Source\PSoC4/cyfitter_cfg.c **** 			{0xB1u, 0x08u},
 375:.\Generated_Source\PSoC4/cyfitter_cfg.c **** 			{0xC0u, 0xF0u},
 376:.\Generated_Source\PSoC4/cyfitter_cfg.c **** 			{0xC2u, 0xF0u},
 377:.\Generated_Source\PSoC4/cyfitter_cfg.c **** 			{0xC4u, 0xE0u},
 378:.\Generated_Source\PSoC4/cyfitter_cfg.c **** 			{0xE2u, 0x04u},
 379:.\Generated_Source\PSoC4/cyfitter_cfg.c **** 			{0xE4u, 0x40u},
 380:.\Generated_Source\PSoC4/cyfitter_cfg.c **** 			{0xE6u, 0x20u},
 381:.\Generated_Source\PSoC4/cyfitter_cfg.c **** 			{0xECu, 0x20u},
 382:.\Generated_Source\PSoC4/cyfitter_cfg.c **** 			{0x00u, 0x80u},
 383:.\Generated_Source\PSoC4/cyfitter_cfg.c **** 			{0x07u, 0x04u},
 384:.\Generated_Source\PSoC4/cyfitter_cfg.c **** 			{0x51u, 0x10u},
 385:.\Generated_Source\PSoC4/cyfitter_cfg.c **** 			{0xC0u, 0xC0u},
 386:.\Generated_Source\PSoC4/cyfitter_cfg.c **** 			{0xD4u, 0x20u},
 387:.\Generated_Source\PSoC4/cyfitter_cfg.c **** 			{0x01u, 0x10u},
 388:.\Generated_Source\PSoC4/cyfitter_cfg.c **** 			{0x03u, 0x40u},
 389:.\Generated_Source\PSoC4/cyfitter_cfg.c **** 			{0x05u, 0x02u},
 390:.\Generated_Source\PSoC4/cyfitter_cfg.c **** 			{0x06u, 0x01u},
 391:.\Generated_Source\PSoC4/cyfitter_cfg.c **** 			{0x4Bu, 0x10u},
 392:.\Generated_Source\PSoC4/cyfitter_cfg.c **** 			{0x81u, 0x02u},
 393:.\Generated_Source\PSoC4/cyfitter_cfg.c **** 			{0x83u, 0x40u},
 394:.\Generated_Source\PSoC4/cyfitter_cfg.c **** 			{0x85u, 0x10u},
 395:.\Generated_Source\PSoC4/cyfitter_cfg.c **** 			{0x87u, 0x10u},
 396:.\Generated_Source\PSoC4/cyfitter_cfg.c **** 			{0x89u, 0x10u},
 397:.\Generated_Source\PSoC4/cyfitter_cfg.c **** 			{0x8Eu, 0x01u},
 398:.\Generated_Source\PSoC4/cyfitter_cfg.c **** 			{0x95u, 0x20u},
 399:.\Generated_Source\PSoC4/cyfitter_cfg.c **** 			{0xABu, 0x04u},
 400:.\Generated_Source\PSoC4/cyfitter_cfg.c **** 			{0xB0u, 0x40u},
 401:.\Generated_Source\PSoC4/cyfitter_cfg.c **** 			{0xC0u, 0xF0u},
ARM GAS  C:\Users\Tim\AppData\Local\Temp\ccsNkvTW.s 			page 15


 402:.\Generated_Source\PSoC4/cyfitter_cfg.c **** 			{0xD2u, 0x10u},
 403:.\Generated_Source\PSoC4/cyfitter_cfg.c **** 			{0xE2u, 0x10u},
 404:.\Generated_Source\PSoC4/cyfitter_cfg.c **** 			{0xE4u, 0xB0u},
 405:.\Generated_Source\PSoC4/cyfitter_cfg.c **** 			{0xE8u, 0x80u},
 406:.\Generated_Source\PSoC4/cyfitter_cfg.c **** 			{0x00u, 0x08u},
 407:.\Generated_Source\PSoC4/cyfitter_cfg.c **** 			{0x04u, 0x04u},
 408:.\Generated_Source\PSoC4/cyfitter_cfg.c **** 			{0x80u, 0x04u},
 409:.\Generated_Source\PSoC4/cyfitter_cfg.c **** 			{0x88u, 0x04u},
 410:.\Generated_Source\PSoC4/cyfitter_cfg.c **** 			{0xC0u, 0x0Cu},
 411:.\Generated_Source\PSoC4/cyfitter_cfg.c **** 			{0xE2u, 0x04u},
 412:.\Generated_Source\PSoC4/cyfitter_cfg.c **** 			{0x02u, 0x01u},
 413:.\Generated_Source\PSoC4/cyfitter_cfg.c **** 			{0x11u, 0x01u},
 414:.\Generated_Source\PSoC4/cyfitter_cfg.c **** 		};
 415:.\Generated_Source\PSoC4/cyfitter_cfg.c **** 
 416:.\Generated_Source\PSoC4/cyfitter_cfg.c **** 
 417:.\Generated_Source\PSoC4/cyfitter_cfg.c **** 
 418:.\Generated_Source\PSoC4/cyfitter_cfg.c **** 		CYPACKED typedef struct {
 419:.\Generated_Source\PSoC4/cyfitter_cfg.c **** 			void CYFAR *address;
 420:.\Generated_Source\PSoC4/cyfitter_cfg.c **** 			uint16 size;
 421:.\Generated_Source\PSoC4/cyfitter_cfg.c **** 		} CYPACKED_ATTR cfg_memset_t;
 422:.\Generated_Source\PSoC4/cyfitter_cfg.c **** 
 423:.\Generated_Source\PSoC4/cyfitter_cfg.c **** 		static const cfg_memset_t CYCODE cfg_memset_list [] = {
 424:.\Generated_Source\PSoC4/cyfitter_cfg.c **** 			/* address, size */
 425:.\Generated_Source\PSoC4/cyfitter_cfg.c **** 			{(void CYFAR *)(CYDEV_UDB_P0_U0_BASE), 1024u},
 426:.\Generated_Source\PSoC4/cyfitter_cfg.c **** 			{(void CYFAR *)(CYDEV_UDB_DSI0_BASE), 1024u},
 427:.\Generated_Source\PSoC4/cyfitter_cfg.c **** 		};
 428:.\Generated_Source\PSoC4/cyfitter_cfg.c **** 
 429:.\Generated_Source\PSoC4/cyfitter_cfg.c **** 		uint8 CYDATA i;
 430:.\Generated_Source\PSoC4/cyfitter_cfg.c **** 
 431:.\Generated_Source\PSoC4/cyfitter_cfg.c **** 		/* Zero out critical memory blocks before beginning configuration */
 432:.\Generated_Source\PSoC4/cyfitter_cfg.c **** 		for (i = 0u; i < (sizeof(cfg_memset_list)/sizeof(cfg_memset_list[0])); i++)
 382              		.loc 1 432 0
 383 00f0 0024     		mov	r4, #0
 384 00f2 10E0     		b	.L19
 385              	.LVL25:
 386              	.L20:
 387              	.LBB4:
 433:.\Generated_Source\PSoC4/cyfitter_cfg.c **** 		{
 434:.\Generated_Source\PSoC4/cyfitter_cfg.c **** 			const cfg_memset_t CYCODE * CYDATA ms = &cfg_memset_list[i];
 435:.\Generated_Source\PSoC4/cyfitter_cfg.c **** 			CYMEMZERO(ms->address, (size_t)(uint32)(ms->size));
 388              		.loc 1 435 0 discriminator 3
 389 00f4 4348     		ldr	r0, .L21
 390 00f6 6300     		lsl	r3, r4, #1
 391 00f8 1A19     		add	r2, r3, r4
 392 00fa 5200     		lsl	r2, r2, #1
 393 00fc 8218     		add	r2, r0, r2
 394 00fe 9188     		ldrh	r1, [r2, #4]
 395 0100 1B19     		add	r3, r3, r4
 396 0102 5B00     		lsl	r3, r3, #1
 397 0104 1A5A     		ldrh	r2, [r3, r0]
 398 0106 C318     		add	r3, r0, r3
 399 0108 5888     		ldrh	r0, [r3, #2]
 400 010a 0004     		lsl	r0, r0, #16
 401 010c 1043     		orr	r0, r2
 402 010e FFF7FEFF 		bl	CYMEMZERO
 403              	.LVL26:
 404              	.LBE4:
ARM GAS  C:\Users\Tim\AppData\Local\Temp\ccsNkvTW.s 			page 16


 432:.\Generated_Source\PSoC4/cyfitter_cfg.c **** 		{
 405              		.loc 1 432 0 discriminator 3
 406 0112 0134     		add	r4, r4, #1
 407              	.LVL27:
 408 0114 E4B2     		uxtb	r4, r4
 409              	.LVL28:
 410              	.L19:
 432:.\Generated_Source\PSoC4/cyfitter_cfg.c **** 		{
 411              		.loc 1 432 0 is_stmt 0 discriminator 1
 412 0116 012C     		cmp	r4, #1
 413 0118 ECD9     		bls	.L20
 436:.\Generated_Source\PSoC4/cyfitter_cfg.c **** 		}
 437:.\Generated_Source\PSoC4/cyfitter_cfg.c **** 
 438:.\Generated_Source\PSoC4/cyfitter_cfg.c **** 		cfg_write_bytes32(cy_cfg_addr_table, cy_cfg_data_table);
 414              		.loc 1 438 0 is_stmt 1
 415 011a 3A49     		ldr	r1, .L21
 416 011c 081C     		mov	r0, r1
 417 011e 0C30     		add	r0, r0, #12
 418 0120 2431     		add	r1, r1, #36
 419 0122 FFF7FEFF 		bl	cfg_write_bytes32
 420              	.LVL29:
 439:.\Generated_Source\PSoC4/cyfitter_cfg.c **** 
 440:.\Generated_Source\PSoC4/cyfitter_cfg.c **** 		/* HSIOM Starting address: CYDEV_HSIOM_BASE */
 441:.\Generated_Source\PSoC4/cyfitter_cfg.c **** 		CY_SET_XTND_REG32((void CYFAR *)(CYDEV_HSIOM_BASE), 0x00990067u);
 421              		.loc 1 441 0
 422 0126 384A     		ldr	r2, .L21+4
 423 0128 384B     		ldr	r3, .L21+8
 424 012a 1A60     		str	r2, [r3]
 442:.\Generated_Source\PSoC4/cyfitter_cfg.c **** 		CY_SET_XTND_REG32((void CYFAR *)(CYREG_HSIOM_PORT_SEL3), 0x0000EE00u);
 425              		.loc 1 442 0
 426 012c EE22     		mov	r2, #238
 427 012e 1202     		lsl	r2, r2, #8
 428 0130 374B     		ldr	r3, .L21+12
 429 0132 1A60     		str	r2, [r3]
 443:.\Generated_Source\PSoC4/cyfitter_cfg.c **** 		CY_SET_XTND_REG32((void CYFAR *)(CYREG_HSIOM_PORT_SEL4), 0x000000EEu);
 430              		.loc 1 443 0
 431 0134 EE22     		mov	r2, #238
 432 0136 374B     		ldr	r3, .L21+16
 433 0138 1A60     		str	r2, [r3]
 444:.\Generated_Source\PSoC4/cyfitter_cfg.c **** 		CY_SET_XTND_REG32((void CYFAR *)(CYREG_HSIOM_PORT_SEL6), 0x00000800u);
 434              		.loc 1 444 0
 435 013a 8022     		mov	r2, #128
 436 013c 1201     		lsl	r2, r2, #4
 437 013e 364B     		ldr	r3, .L21+20
 438 0140 1A60     		str	r2, [r3]
 445:.\Generated_Source\PSoC4/cyfitter_cfg.c **** 
 446:.\Generated_Source\PSoC4/cyfitter_cfg.c **** 		/* UDB_PA_0 Starting address: CYDEV_UDB_PA0_BASE */
 447:.\Generated_Source\PSoC4/cyfitter_cfg.c **** 		CY_SET_XTND_REG32((void CYFAR *)(CYDEV_UDB_PA0_BASE), 0x00990004u);
 439              		.loc 1 447 0
 440 0142 364B     		ldr	r3, .L21+24
 441 0144 364A     		ldr	r2, .L21+28
 442 0146 1360     		str	r3, [r2]
 448:.\Generated_Source\PSoC4/cyfitter_cfg.c **** 		CY_SET_XTND_REG32((void CYFAR *)(CYREG_UDB_PA0_CFG4), 0x00A00000u);
 443              		.loc 1 448 0
 444 0148 A021     		mov	r1, #160
 445 014a 0904     		lsl	r1, r1, #16
 446 014c 354A     		ldr	r2, .L21+32
ARM GAS  C:\Users\Tim\AppData\Local\Temp\ccsNkvTW.s 			page 17


 447 014e 1160     		str	r1, [r2]
 449:.\Generated_Source\PSoC4/cyfitter_cfg.c **** 		CY_SET_XTND_REG32((void CYFAR *)(CYREG_UDB_PA0_CFG8), 0x00500000u);
 448              		.loc 1 449 0
 449 0150 A021     		mov	r1, #160
 450 0152 C903     		lsl	r1, r1, #15
 451 0154 344A     		ldr	r2, .L21+36
 452 0156 1160     		str	r1, [r2]
 450:.\Generated_Source\PSoC4/cyfitter_cfg.c **** 
 451:.\Generated_Source\PSoC4/cyfitter_cfg.c **** 		/* UDB_PA_1 Starting address: CYDEV_UDB_PA1_BASE */
 452:.\Generated_Source\PSoC4/cyfitter_cfg.c **** 		CY_SET_XTND_REG32((void CYFAR *)(CYDEV_UDB_PA1_BASE), 0x00990004u);
 453              		.loc 1 452 0
 454 0158 344A     		ldr	r2, .L21+40
 455 015a 1360     		str	r3, [r2]
 453:.\Generated_Source\PSoC4/cyfitter_cfg.c **** 		CY_SET_XTND_REG32((void CYFAR *)(CYREG_UDB_PA1_CFG4), 0x00AA0000u);
 456              		.loc 1 453 0
 457 015c AA21     		mov	r1, #170
 458 015e 0904     		lsl	r1, r1, #16
 459 0160 334A     		ldr	r2, .L21+44
 460 0162 1160     		str	r1, [r2]
 454:.\Generated_Source\PSoC4/cyfitter_cfg.c **** 
 455:.\Generated_Source\PSoC4/cyfitter_cfg.c **** 		/* UDB_PA_2 Starting address: CYDEV_UDB_PA2_BASE */
 456:.\Generated_Source\PSoC4/cyfitter_cfg.c **** 		CY_SET_XTND_REG32((void CYFAR *)(CYDEV_UDB_PA2_BASE), 0x00990000u);
 461              		.loc 1 456 0
 462 0164 9921     		mov	r1, #153
 463 0166 0904     		lsl	r1, r1, #16
 464 0168 324A     		ldr	r2, .L21+48
 465 016a 1160     		str	r1, [r2]
 457:.\Generated_Source\PSoC4/cyfitter_cfg.c **** 
 458:.\Generated_Source\PSoC4/cyfitter_cfg.c **** 		/* UDB_PA_3 Starting address: CYDEV_UDB_PA3_BASE */
 459:.\Generated_Source\PSoC4/cyfitter_cfg.c **** 		CY_SET_XTND_REG32((void CYFAR *)(CYDEV_UDB_PA3_BASE), 0x00990004u);
 466              		.loc 1 459 0
 467 016c 324A     		ldr	r2, .L21+52
 468 016e 1360     		str	r3, [r2]
 460:.\Generated_Source\PSoC4/cyfitter_cfg.c **** 		CY_SET_XTND_REG32((void CYFAR *)(CYREG_UDB_PA3_CFG4), 0xA00A0000u);
 469              		.loc 1 460 0
 470 0170 324A     		ldr	r2, .L21+56
 471 0172 334B     		ldr	r3, .L21+60
 472 0174 1A60     		str	r2, [r3]
 461:.\Generated_Source\PSoC4/cyfitter_cfg.c **** 
 462:.\Generated_Source\PSoC4/cyfitter_cfg.c **** 		/* TCPWM_CNT0 Starting address: CYDEV_TCPWM_CNT0_TR_CTRL0 */
 463:.\Generated_Source\PSoC4/cyfitter_cfg.c **** 		CY_SET_XTND_REG32((void CYFAR *)(CYREG_TCPWM_CNT0_TR_CTRL0), 0x000EEE1Eu);
 473              		.loc 1 463 0
 474 0176 334A     		ldr	r2, .L21+64
 475 0178 334B     		ldr	r3, .L21+68
 476 017a 1A60     		str	r2, [r3]
 464:.\Generated_Source\PSoC4/cyfitter_cfg.c **** 
 465:.\Generated_Source\PSoC4/cyfitter_cfg.c **** 		/* Enable digital routing */
 466:.\Generated_Source\PSoC4/cyfitter_cfg.c **** 		CY_SET_XTND_REG8((void *)CYREG_UDB_UDBIF_BANK_CTL, CY_GET_XTND_REG8((void *)CYREG_UDB_UDBIF_BANK_
 477              		.loc 1 466 0
 478 017c 334B     		ldr	r3, .L21+72
 479 017e 1978     		ldrb	r1, [r3]
 480 0180 0222     		mov	r2, #2
 481 0182 0A43     		orr	r2, r1
 482 0184 1A70     		strb	r2, [r3]
 467:.\Generated_Source\PSoC4/cyfitter_cfg.c **** 
 468:.\Generated_Source\PSoC4/cyfitter_cfg.c **** 		/* Enable UDB array */
 469:.\Generated_Source\PSoC4/cyfitter_cfg.c **** 		CY_SET_XTND_REG8((void *)CYREG_UDB_UDBIF_WAIT_CFG, (uint8)((CY_GET_XTND_REG8((void *)CYREG_UDB_UD
ARM GAS  C:\Users\Tim\AppData\Local\Temp\ccsNkvTW.s 			page 18


 483              		.loc 1 469 0
 484 0186 3248     		ldr	r0, .L21+76
 485 0188 0278     		ldrb	r2, [r0]
 486 018a 3C21     		mov	r1, #60
 487 018c 8A43     		bic	r2, r1
 488 018e 2839     		sub	r1, r1, #40
 489 0190 0A43     		orr	r2, r1
 490 0192 0270     		strb	r2, [r0]
 470:.\Generated_Source\PSoC4/cyfitter_cfg.c **** 		CY_SET_XTND_REG8((void *)CYREG_UDB_UDBIF_BANK_CTL, (uint8)(CY_GET_XTND_REG8((void *)CYREG_UDB_UDB
 491              		.loc 1 470 0
 492 0194 1978     		ldrb	r1, [r3]
 493 0196 1622     		mov	r2, #22
 494 0198 0A43     		orr	r2, r1
 495 019a 1A70     		strb	r2, [r3]
 496              	.LBE3:
 471:.\Generated_Source\PSoC4/cyfitter_cfg.c **** 	}
 472:.\Generated_Source\PSoC4/cyfitter_cfg.c **** 
 473:.\Generated_Source\PSoC4/cyfitter_cfg.c **** 	/* Perform second pass device configuration. These items must be configured in specific order afte
 474:.\Generated_Source\PSoC4/cyfitter_cfg.c **** 	/* IOPINS0_0 Starting address: CYDEV_GPIO_PRT0_BASE */
 475:.\Generated_Source\PSoC4/cyfitter_cfg.c **** 	CY_SET_XTND_REG32((void CYFAR *)(CYDEV_GPIO_PRT0_BASE), 0x00000023u);
 497              		.loc 1 475 0
 498 019c 2323     		mov	r3, #35
 499 019e 2D4A     		ldr	r2, .L21+80
 500 01a0 1360     		str	r3, [r2]
 476:.\Generated_Source\PSoC4/cyfitter_cfg.c **** 	CY_SET_XTND_REG32((void CYFAR *)(CYREG_GPIO_PRT0_PC), 0x001B1C40u);
 501              		.loc 1 476 0
 502 01a2 2D49     		ldr	r1, .L21+84
 503 01a4 2D4A     		ldr	r2, .L21+88
 504 01a6 1160     		str	r1, [r2]
 477:.\Generated_Source\PSoC4/cyfitter_cfg.c **** 	CY_SET_XTND_REG32((void CYFAR *)(CYREG_GPIO_PRT0_PC2), 0x00000023u);
 505              		.loc 1 477 0
 506 01a8 2D4A     		ldr	r2, .L21+92
 507 01aa 1360     		str	r3, [r2]
 478:.\Generated_Source\PSoC4/cyfitter_cfg.c **** 
 479:.\Generated_Source\PSoC4/cyfitter_cfg.c **** 	/* IOPINS0_1 Starting address: CYDEV_GPIO_PRT1_BASE */
 480:.\Generated_Source\PSoC4/cyfitter_cfg.c **** 	CY_SET_XTND_REG32((void CYFAR *)(CYDEV_GPIO_PRT1_BASE), 0x00000080u);
 508              		.loc 1 480 0
 509 01ac 5D33     		add	r3, r3, #93
 510 01ae 2D4A     		ldr	r2, .L21+96
 511 01b0 1360     		str	r3, [r2]
 481:.\Generated_Source\PSoC4/cyfitter_cfg.c **** 	CY_SET_XTND_REG32((void CYFAR *)(CYREG_GPIO_PRT1_PC), 0x00000249u);
 512              		.loc 1 481 0
 513 01b2 2D49     		ldr	r1, .L21+100
 514 01b4 2D4A     		ldr	r2, .L21+104
 515 01b6 1160     		str	r1, [r2]
 482:.\Generated_Source\PSoC4/cyfitter_cfg.c **** 	CY_SET_XTND_REG32((void CYFAR *)(CYREG_GPIO_PRT1_PC2), 0x00000080u);
 516              		.loc 1 482 0
 517 01b8 2D4A     		ldr	r2, .L21+108
 518 01ba 1360     		str	r3, [r2]
 483:.\Generated_Source\PSoC4/cyfitter_cfg.c **** 
 484:.\Generated_Source\PSoC4/cyfitter_cfg.c **** 	/* IOPINS0_2 Starting address: CYDEV_GPIO_PRT2_BASE */
 485:.\Generated_Source\PSoC4/cyfitter_cfg.c **** 	CY_SET_XTND_REG32((void CYFAR *)(CYDEV_GPIO_PRT2_BASE), 0x0000003Fu);
 519              		.loc 1 485 0
 520 01bc 413B     		sub	r3, r3, #65
 521 01be 2D4A     		ldr	r2, .L21+112
 522 01c0 1360     		str	r3, [r2]
 486:.\Generated_Source\PSoC4/cyfitter_cfg.c **** 	CY_SET_XTND_REG32((void CYFAR *)(CYREG_GPIO_PRT2_PC), 0x00180000u);
ARM GAS  C:\Users\Tim\AppData\Local\Temp\ccsNkvTW.s 			page 19


 523              		.loc 1 486 0
 524 01c2 C021     		mov	r1, #192
 525 01c4 4903     		lsl	r1, r1, #13
 526 01c6 2C4A     		ldr	r2, .L21+116
 527 01c8 1160     		str	r1, [r2]
 487:.\Generated_Source\PSoC4/cyfitter_cfg.c **** 	CY_SET_XTND_REG32((void CYFAR *)(CYREG_GPIO_PRT2_PC2), 0x0000003Fu);
 528              		.loc 1 487 0
 529 01ca 2C4A     		ldr	r2, .L21+120
 530 01cc 1360     		str	r3, [r2]
 488:.\Generated_Source\PSoC4/cyfitter_cfg.c **** 
 489:.\Generated_Source\PSoC4/cyfitter_cfg.c **** 	/* IOPINS0_3 Starting address: CYDEV_GPIO_PRT3_BASE */
 490:.\Generated_Source\PSoC4/cyfitter_cfg.c **** 	CY_SET_XTND_REG32((void CYFAR *)(CYDEV_GPIO_PRT3_BASE), 0x000000C0u);
 531              		.loc 1 490 0
 532 01ce C022     		mov	r2, #192
 533 01d0 2B4B     		ldr	r3, .L21+124
 534 01d2 1A60     		str	r2, [r3]
 491:.\Generated_Source\PSoC4/cyfitter_cfg.c **** 	CY_SET_XTND_REG32((void CYFAR *)(CYREG_GPIO_PRT3_PC), 0x004B6D8Eu);
 535              		.loc 1 491 0
 536 01d4 2B4A     		ldr	r2, .L21+128
 537 01d6 2C4B     		ldr	r3, .L21+132
 538 01d8 1A60     		str	r2, [r3]
 492:.\Generated_Source\PSoC4/cyfitter_cfg.c **** 	CY_SET_XTND_REG32((void CYFAR *)(CYREG_GPIO_PRT3_INTR_CFG), 0x0000F000u);
 539              		.loc 1 492 0
 540 01da F022     		mov	r2, #240
 541 01dc 1202     		lsl	r2, r2, #8
 542 01de 2B4B     		ldr	r3, .L21+136
 543 01e0 1A60     		str	r2, [r3]
 493:.\Generated_Source\PSoC4/cyfitter_cfg.c **** 
 494:.\Generated_Source\PSoC4/cyfitter_cfg.c **** 	/* IOPINS0_4 Starting address: CYDEV_GPIO_PRT4_BASE */
 495:.\Generated_Source\PSoC4/cyfitter_cfg.c **** 	CY_SET_XTND_REG32((void CYFAR *)(CYDEV_GPIO_PRT4_BASE), 0x00000003u);
 544              		.loc 1 495 0
 545 01e2 0322     		mov	r2, #3
 546 01e4 2A4B     		ldr	r3, .L21+140
 547 01e6 1A60     		str	r2, [r3]
 496:.\Generated_Source\PSoC4/cyfitter_cfg.c **** 	CY_SET_XTND_REG32((void CYFAR *)(CYREG_GPIO_PRT4_PC), 0x001B6024u);
 548              		.loc 1 496 0
 549 01e8 2A4A     		ldr	r2, .L21+144
 550 01ea 2B4B     		ldr	r3, .L21+148
 551 01ec 1A60     		str	r2, [r3]
 497:.\Generated_Source\PSoC4/cyfitter_cfg.c **** 
 498:.\Generated_Source\PSoC4/cyfitter_cfg.c **** 	/* IOPINS0_6 Starting address: CYDEV_GPIO_PRT6_BASE */
 499:.\Generated_Source\PSoC4/cyfitter_cfg.c **** 	CY_SET_XTND_REG32((void CYFAR *)(CYDEV_GPIO_PRT6_BASE), 0x00000004u);
 552              		.loc 1 499 0
 553 01ee 0422     		mov	r2, #4
 554 01f0 2A4B     		ldr	r3, .L21+152
 555 01f2 1A60     		str	r2, [r3]
 500:.\Generated_Source\PSoC4/cyfitter_cfg.c **** 	CY_SET_XTND_REG32((void CYFAR *)(CYREG_GPIO_PRT6_PC), 0x000300C0u);
 556              		.loc 1 500 0
 557 01f4 2A4A     		ldr	r2, .L21+156
 558 01f6 2B4B     		ldr	r3, .L21+160
 559 01f8 1A60     		str	r2, [r3]
 501:.\Generated_Source\PSoC4/cyfitter_cfg.c **** 
 502:.\Generated_Source\PSoC4/cyfitter_cfg.c **** 
 503:.\Generated_Source\PSoC4/cyfitter_cfg.c **** 	/* Setup clocks based on selections from Clock DWR */
 504:.\Generated_Source\PSoC4/cyfitter_cfg.c **** 	ClockSetup();
 560              		.loc 1 504 0
 561 01fa FFF701FF 		bl	ClockSetup
ARM GAS  C:\Users\Tim\AppData\Local\Temp\ccsNkvTW.s 			page 20


 562              	.LVL30:
 505:.\Generated_Source\PSoC4/cyfitter_cfg.c **** 
 506:.\Generated_Source\PSoC4/cyfitter_cfg.c **** 	/* Perform basic analog initialization to defaults */
 507:.\Generated_Source\PSoC4/cyfitter_cfg.c **** 	AnalogSetDefault();
 563              		.loc 1 507 0
 564 01fe FFF7FEFF 		bl	AnalogSetDefault
 565              	.LVL31:
 508:.\Generated_Source\PSoC4/cyfitter_cfg.c **** 
 509:.\Generated_Source\PSoC4/cyfitter_cfg.c **** }
 566              		.loc 1 509 0
 567              		@ sp needed
 568              	.LVL32:
 569 0202 10BD     		pop	{r4, pc}
 570              	.L22:
 571              		.align	2
 572              	.L21:
 573 0204 00000000 		.word	.LANCHOR0
 574 0208 67009900 		.word	10027111
 575 020c 00000240 		.word	1073872896
 576 0210 00030240 		.word	1073873664
 577 0214 00040240 		.word	1073873920
 578 0218 00060240 		.word	1073874432
 579 021c 04009900 		.word	10027012
 580 0220 00500F40 		.word	1074745344
 581 0224 04500F40 		.word	1074745348
 582 0228 08500F40 		.word	1074745352
 583 022c 10500F40 		.word	1074745360
 584 0230 14500F40 		.word	1074745364
 585 0234 20500F40 		.word	1074745376
 586 0238 30500F40 		.word	1074745392
 587 023c 00000AA0 		.word	-1609957376
 588 0240 34500F40 		.word	1074745396
 589 0244 1EEE0E00 		.word	978462
 590 0248 20012040 		.word	1075839264
 591 024c 00700F40 		.word	1074753536
 592 0250 01700F40 		.word	1074753537
 593 0254 00000440 		.word	1074003968
 594 0258 401C1B00 		.word	1776704
 595 025c 08000440 		.word	1074003976
 596 0260 18000440 		.word	1074003992
 597 0264 00010440 		.word	1074004224
 598 0268 49020000 		.word	585
 599 026c 08010440 		.word	1074004232
 600 0270 18010440 		.word	1074004248
 601 0274 00020440 		.word	1074004480
 602 0278 08020440 		.word	1074004488
 603 027c 18020440 		.word	1074004504
 604 0280 00030440 		.word	1074004736
 605 0284 8E6D4B00 		.word	4943246
 606 0288 08030440 		.word	1074004744
 607 028c 0C030440 		.word	1074004748
 608 0290 00040440 		.word	1074004992
 609 0294 24601B00 		.word	1794084
 610 0298 08040440 		.word	1074005000
 611 029c 00060440 		.word	1074005504
 612 02a0 C0000300 		.word	196800
 613 02a4 08060440 		.word	1074005512
ARM GAS  C:\Users\Tim\AppData\Local\Temp\ccsNkvTW.s 			page 21


 614              		.cfi_endproc
 615              	.LFE8:
 616              		.size	cyfitter_cfg, .-cyfitter_cfg
 617              		.section	.rodata
 618              		.align	2
 619              		.set	.LANCHOR0,. + 0
 620              		.type	cfg_memset_list.4764, %object
 621              		.size	cfg_memset_list.4764, 12
 622              	cfg_memset_list.4764:
 623 0000 00300F40 		.word	1074737152
 624 0004 0004     		.short	1024
 625 0006 00400F40 		.4byte	1074741248
 626 000a 0004     		.short	1024
 627              		.type	cy_cfg_addr_table.4758, %object
 628              		.size	cy_cfg_addr_table.4758, 24
 629              	cy_cfg_addr_table.4758:
 630 000c 16320F40 		.word	1074737686
 631 0010 19330F40 		.word	1074737945
 632 0014 05400F40 		.word	1074741253
 633 0018 13410F40 		.word	1074741523
 634 001c 06430F40 		.word	1074742022
 635 0020 02600F40 		.word	1074749442
 636              		.type	cy_cfg_data_table.4759, %object
 637              		.size	cy_cfg_data_table.4759, 158
 638              	cy_cfg_data_table.4759:
 639 0024 02       		.byte	2
 640 0025 08       		.byte	8
 641 0026 06       		.byte	6
 642 0027 80       		.byte	-128
 643 0028 0A       		.byte	10
 644 0029 40       		.byte	64
 645 002a 0E       		.byte	14
 646 002b 20       		.byte	32
 647 002c 12       		.byte	18
 648 002d 02       		.byte	2
 649 002e 16       		.byte	22
 650 002f 04       		.byte	4
 651 0030 18       		.byte	24
 652 0031 E1       		.byte	-31
 653 0032 1A       		.byte	26
 654 0033 1E       		.byte	30
 655 0034 1E       		.byte	30
 656 0035 01       		.byte	1
 657 0036 26       		.byte	38
 658 0037 10       		.byte	16
 659 0038 28       		.byte	40
 660 0039 99       		.byte	-103
 661 003a 2A       		.byte	42
 662 003b 66       		.byte	102
 663 003c 2C       		.byte	44
 664 003d 55       		.byte	85
 665 003e 2E       		.byte	46
 666 003f AA       		.byte	-86
 667 0040 36       		.byte	54
 668 0041 FF       		.byte	-1
 669 0042 37       		.byte	55
 670 0043 01       		.byte	1
ARM GAS  C:\Users\Tim\AppData\Local\Temp\ccsNkvTW.s 			page 22


 671 0044 3E       		.byte	62
 672 0045 40       		.byte	64
 673 0046 3F       		.byte	63
 674 0047 40       		.byte	64
 675 0048 58       		.byte	88
 676 0049 04       		.byte	4
 677 004a 59       		.byte	89
 678 004b 04       		.byte	4
 679 004c 5B       		.byte	91
 680 004d 04       		.byte	4
 681 004e 5F       		.byte	95
 682 004f 01       		.byte	1
 683 0050 05       		.byte	5
 684 0051 01       		.byte	1
 685 0052 06       		.byte	6
 686 0053 2A       		.byte	42
 687 0054 0D       		.byte	13
 688 0055 8A       		.byte	-118
 689 0056 0E       		.byte	14
 690 0057 04       		.byte	4
 691 0058 14       		.byte	20
 692 0059 20       		.byte	32
 693 005a 15       		.byte	21
 694 005b 50       		.byte	80
 695 005c 1F       		.byte	31
 696 005d 40       		.byte	64
 697 005e 25       		.byte	37
 698 005f 40       		.byte	64
 699 0060 6D       		.byte	109
 700 0061 50       		.byte	80
 701 0062 6E       		.byte	110
 702 0063 04       		.byte	4
 703 0064 82       		.byte	-126
 704 0065 2A       		.byte	42
 705 0066 84       		.byte	-124
 706 0067 20       		.byte	32
 707 0068 87       		.byte	-121
 708 0069 40       		.byte	64
 709 006a 89       		.byte	-119
 710 006b C0       		.byte	-64
 711 006c 8D       		.byte	-115
 712 006d 01       		.byte	1
 713 006e A1       		.byte	-95
 714 006f 0A       		.byte	10
 715 0070 A9       		.byte	-87
 716 0071 02       		.byte	2
 717 0072 B1       		.byte	-79
 718 0073 08       		.byte	8
 719 0074 C0       		.byte	-64
 720 0075 F0       		.byte	-16
 721 0076 C2       		.byte	-62
 722 0077 F0       		.byte	-16
 723 0078 C4       		.byte	-60
 724 0079 E0       		.byte	-32
 725 007a E2       		.byte	-30
 726 007b 04       		.byte	4
 727 007c E4       		.byte	-28
ARM GAS  C:\Users\Tim\AppData\Local\Temp\ccsNkvTW.s 			page 23


 728 007d 40       		.byte	64
 729 007e E6       		.byte	-26
 730 007f 20       		.byte	32
 731 0080 EC       		.byte	-20
 732 0081 20       		.byte	32
 733 0082 00       		.byte	0
 734 0083 80       		.byte	-128
 735 0084 07       		.byte	7
 736 0085 04       		.byte	4
 737 0086 51       		.byte	81
 738 0087 10       		.byte	16
 739 0088 C0       		.byte	-64
 740 0089 C0       		.byte	-64
 741 008a D4       		.byte	-44
 742 008b 20       		.byte	32
 743 008c 01       		.byte	1
 744 008d 10       		.byte	16
 745 008e 03       		.byte	3
 746 008f 40       		.byte	64
 747 0090 05       		.byte	5
 748 0091 02       		.byte	2
 749 0092 06       		.byte	6
 750 0093 01       		.byte	1
 751 0094 4B       		.byte	75
 752 0095 10       		.byte	16
 753 0096 81       		.byte	-127
 754 0097 02       		.byte	2
 755 0098 83       		.byte	-125
 756 0099 40       		.byte	64
 757 009a 85       		.byte	-123
 758 009b 10       		.byte	16
 759 009c 87       		.byte	-121
 760 009d 10       		.byte	16
 761 009e 89       		.byte	-119
 762 009f 10       		.byte	16
 763 00a0 8E       		.byte	-114
 764 00a1 01       		.byte	1
 765 00a2 95       		.byte	-107
 766 00a3 20       		.byte	32
 767 00a4 AB       		.byte	-85
 768 00a5 04       		.byte	4
 769 00a6 B0       		.byte	-80
 770 00a7 40       		.byte	64
 771 00a8 C0       		.byte	-64
 772 00a9 F0       		.byte	-16
 773 00aa D2       		.byte	-46
 774 00ab 10       		.byte	16
 775 00ac E2       		.byte	-30
 776 00ad 10       		.byte	16
 777 00ae E4       		.byte	-28
 778 00af B0       		.byte	-80
 779 00b0 E8       		.byte	-24
 780 00b1 80       		.byte	-128
 781 00b2 00       		.byte	0
 782 00b3 08       		.byte	8
 783 00b4 04       		.byte	4
 784 00b5 04       		.byte	4
ARM GAS  C:\Users\Tim\AppData\Local\Temp\ccsNkvTW.s 			page 24


 785 00b6 80       		.byte	-128
 786 00b7 04       		.byte	4
 787 00b8 88       		.byte	-120
 788 00b9 04       		.byte	4
 789 00ba C0       		.byte	-64
 790 00bb 0C       		.byte	12
 791 00bc E2       		.byte	-30
 792 00bd 04       		.byte	4
 793 00be 02       		.byte	2
 794 00bf 01       		.byte	1
 795 00c0 11       		.byte	17
 796 00c1 01       		.byte	1
 797 00c2 0000     		.text
 798              	.Letext0:
 799              		.file 2 "c:\\program files (x86)\\cypress\\psoc creator\\3.3\\psoc creator\\import\\gnu\\arm\\4.9.
 800              		.file 3 ".\\Generated_Source\\PSoC4\\cytypes.h"
 801              		.file 4 ".\\Generated_Source\\PSoC4\\CyLib.h"