ARM GAS  C:\Users\Tim\AppData\Local\Temp\ccp3LWQ4.s 			page 1


   1              		.cpu cortex-m0
   2              		.fpu softvfp
   3              		.eabi_attribute 20, 1
   4              		.eabi_attribute 21, 1
   5              		.eabi_attribute 23, 3
   6              		.eabi_attribute 24, 1
   7              		.eabi_attribute 25, 1
   8              		.eabi_attribute 26, 1
   9              		.eabi_attribute 30, 1
  10              		.eabi_attribute 34, 0
  11              		.eabi_attribute 18, 4
  12              		.code	16
  13              		.file	"Encoder_Intr.c"
  14              		.text
  15              	.Ltext0:
  16              		.cfi_sections	.debug_frame
  17              		.section	.text.Encoder_Intr_Interrupt,"ax",%progbits
  18              		.align	2
  19              		.global	Encoder_Intr_Interrupt
  20              		.code	16
  21              		.thumb_func
  22              		.type	Encoder_Intr_Interrupt, %function
  23              	Encoder_Intr_Interrupt:
  24              	.LFB4:
  25              		.file 1 ".\\Generated_Source\\PSoC4\\Encoder_Intr.c"
   1:.\Generated_Source\PSoC4/Encoder_Intr.c **** /*******************************************************************************
   2:.\Generated_Source\PSoC4/Encoder_Intr.c **** * File Name: Encoder_Intr.c  
   3:.\Generated_Source\PSoC4/Encoder_Intr.c **** * Version 1.70
   4:.\Generated_Source\PSoC4/Encoder_Intr.c **** *
   5:.\Generated_Source\PSoC4/Encoder_Intr.c **** *  Description:
   6:.\Generated_Source\PSoC4/Encoder_Intr.c **** *   API for controlling the state of an interrupt.
   7:.\Generated_Source\PSoC4/Encoder_Intr.c **** *
   8:.\Generated_Source\PSoC4/Encoder_Intr.c **** *
   9:.\Generated_Source\PSoC4/Encoder_Intr.c **** *  Note:
  10:.\Generated_Source\PSoC4/Encoder_Intr.c **** *
  11:.\Generated_Source\PSoC4/Encoder_Intr.c **** ********************************************************************************
  12:.\Generated_Source\PSoC4/Encoder_Intr.c **** * Copyright 2008-2015, Cypress Semiconductor Corporation.  All rights reserved.
  13:.\Generated_Source\PSoC4/Encoder_Intr.c **** * You may use this file only in accordance with the license, terms, conditions, 
  14:.\Generated_Source\PSoC4/Encoder_Intr.c **** * disclaimers, and limitations in the end user license agreement accompanying 
  15:.\Generated_Source\PSoC4/Encoder_Intr.c **** * the software package with which this file was provided.
  16:.\Generated_Source\PSoC4/Encoder_Intr.c **** *******************************************************************************/
  17:.\Generated_Source\PSoC4/Encoder_Intr.c **** 
  18:.\Generated_Source\PSoC4/Encoder_Intr.c **** 
  19:.\Generated_Source\PSoC4/Encoder_Intr.c **** #include <cydevice_trm.h>
  20:.\Generated_Source\PSoC4/Encoder_Intr.c **** #include <CyLib.h>
  21:.\Generated_Source\PSoC4/Encoder_Intr.c **** #include <Encoder_Intr.h>
  22:.\Generated_Source\PSoC4/Encoder_Intr.c **** #include "cyapicallbacks.h"
  23:.\Generated_Source\PSoC4/Encoder_Intr.c **** 
  24:.\Generated_Source\PSoC4/Encoder_Intr.c **** #if !defined(Encoder_Intr__REMOVED) /* Check for removal by optimization */
  25:.\Generated_Source\PSoC4/Encoder_Intr.c **** 
  26:.\Generated_Source\PSoC4/Encoder_Intr.c **** /*******************************************************************************
  27:.\Generated_Source\PSoC4/Encoder_Intr.c **** *  Place your includes, defines and code here 
  28:.\Generated_Source\PSoC4/Encoder_Intr.c **** ********************************************************************************/
  29:.\Generated_Source\PSoC4/Encoder_Intr.c **** /* `#START Encoder_Intr_intc` */
  30:.\Generated_Source\PSoC4/Encoder_Intr.c **** 
  31:.\Generated_Source\PSoC4/Encoder_Intr.c **** /* `#END` */
  32:.\Generated_Source\PSoC4/Encoder_Intr.c **** 
ARM GAS  C:\Users\Tim\AppData\Local\Temp\ccp3LWQ4.s 			page 2


  33:.\Generated_Source\PSoC4/Encoder_Intr.c **** extern cyisraddress CyRamVectors[CYINT_IRQ_BASE + CY_NUM_INTERRUPTS];
  34:.\Generated_Source\PSoC4/Encoder_Intr.c **** 
  35:.\Generated_Source\PSoC4/Encoder_Intr.c **** /* Declared in startup, used to set unused interrupts to. */
  36:.\Generated_Source\PSoC4/Encoder_Intr.c **** CY_ISR_PROTO(IntDefaultHandler);
  37:.\Generated_Source\PSoC4/Encoder_Intr.c **** 
  38:.\Generated_Source\PSoC4/Encoder_Intr.c **** 
  39:.\Generated_Source\PSoC4/Encoder_Intr.c **** /*******************************************************************************
  40:.\Generated_Source\PSoC4/Encoder_Intr.c **** * Function Name: Encoder_Intr_Start
  41:.\Generated_Source\PSoC4/Encoder_Intr.c **** ********************************************************************************
  42:.\Generated_Source\PSoC4/Encoder_Intr.c **** *
  43:.\Generated_Source\PSoC4/Encoder_Intr.c **** * Summary:
  44:.\Generated_Source\PSoC4/Encoder_Intr.c **** *  Set up the interrupt and enable it. This function disables the interrupt, 
  45:.\Generated_Source\PSoC4/Encoder_Intr.c **** *  sets the default interrupt vector, sets the priority from the value in the
  46:.\Generated_Source\PSoC4/Encoder_Intr.c **** *  Design Wide Resources Interrupt Editor, then enables the interrupt to the 
  47:.\Generated_Source\PSoC4/Encoder_Intr.c **** *  interrupt controller.
  48:.\Generated_Source\PSoC4/Encoder_Intr.c **** *
  49:.\Generated_Source\PSoC4/Encoder_Intr.c **** * Parameters:  
  50:.\Generated_Source\PSoC4/Encoder_Intr.c **** *   None
  51:.\Generated_Source\PSoC4/Encoder_Intr.c **** *
  52:.\Generated_Source\PSoC4/Encoder_Intr.c **** * Return:
  53:.\Generated_Source\PSoC4/Encoder_Intr.c **** *   None
  54:.\Generated_Source\PSoC4/Encoder_Intr.c **** *
  55:.\Generated_Source\PSoC4/Encoder_Intr.c **** *******************************************************************************/
  56:.\Generated_Source\PSoC4/Encoder_Intr.c **** void Encoder_Intr_Start(void)
  57:.\Generated_Source\PSoC4/Encoder_Intr.c **** {
  58:.\Generated_Source\PSoC4/Encoder_Intr.c ****     /* For all we know the interrupt is active. */
  59:.\Generated_Source\PSoC4/Encoder_Intr.c ****     Encoder_Intr_Disable();
  60:.\Generated_Source\PSoC4/Encoder_Intr.c **** 
  61:.\Generated_Source\PSoC4/Encoder_Intr.c ****     /* Set the ISR to point to the Encoder_Intr Interrupt. */
  62:.\Generated_Source\PSoC4/Encoder_Intr.c ****     Encoder_Intr_SetVector(&Encoder_Intr_Interrupt);
  63:.\Generated_Source\PSoC4/Encoder_Intr.c **** 
  64:.\Generated_Source\PSoC4/Encoder_Intr.c ****     /* Set the priority. */
  65:.\Generated_Source\PSoC4/Encoder_Intr.c ****     Encoder_Intr_SetPriority((uint8)Encoder_Intr_INTC_PRIOR_NUMBER);
  66:.\Generated_Source\PSoC4/Encoder_Intr.c **** 
  67:.\Generated_Source\PSoC4/Encoder_Intr.c ****     /* Enable it. */
  68:.\Generated_Source\PSoC4/Encoder_Intr.c ****     Encoder_Intr_Enable();
  69:.\Generated_Source\PSoC4/Encoder_Intr.c **** }
  70:.\Generated_Source\PSoC4/Encoder_Intr.c **** 
  71:.\Generated_Source\PSoC4/Encoder_Intr.c **** 
  72:.\Generated_Source\PSoC4/Encoder_Intr.c **** /*******************************************************************************
  73:.\Generated_Source\PSoC4/Encoder_Intr.c **** * Function Name: Encoder_Intr_StartEx
  74:.\Generated_Source\PSoC4/Encoder_Intr.c **** ********************************************************************************
  75:.\Generated_Source\PSoC4/Encoder_Intr.c **** *
  76:.\Generated_Source\PSoC4/Encoder_Intr.c **** * Summary:
  77:.\Generated_Source\PSoC4/Encoder_Intr.c **** *  Sets up the interrupt and enables it. This function disables the interrupt,
  78:.\Generated_Source\PSoC4/Encoder_Intr.c **** *  sets the interrupt vector based on the address passed in, sets the priority 
  79:.\Generated_Source\PSoC4/Encoder_Intr.c **** *  from the value in the Design Wide Resources Interrupt Editor, then enables 
  80:.\Generated_Source\PSoC4/Encoder_Intr.c **** *  the interrupt to the interrupt controller.
  81:.\Generated_Source\PSoC4/Encoder_Intr.c **** *  
  82:.\Generated_Source\PSoC4/Encoder_Intr.c **** *  When defining ISR functions, the CY_ISR and CY_ISR_PROTO macros should be 
  83:.\Generated_Source\PSoC4/Encoder_Intr.c **** *  used to provide consistent definition across compilers:
  84:.\Generated_Source\PSoC4/Encoder_Intr.c **** *  
  85:.\Generated_Source\PSoC4/Encoder_Intr.c **** *  Function definition example:
  86:.\Generated_Source\PSoC4/Encoder_Intr.c **** *   CY_ISR(MyISR)
  87:.\Generated_Source\PSoC4/Encoder_Intr.c **** *   {
  88:.\Generated_Source\PSoC4/Encoder_Intr.c **** *   }
  89:.\Generated_Source\PSoC4/Encoder_Intr.c **** *   Function prototype example:
ARM GAS  C:\Users\Tim\AppData\Local\Temp\ccp3LWQ4.s 			page 3


  90:.\Generated_Source\PSoC4/Encoder_Intr.c **** *   CY_ISR_PROTO(MyISR);
  91:.\Generated_Source\PSoC4/Encoder_Intr.c **** *
  92:.\Generated_Source\PSoC4/Encoder_Intr.c **** * Parameters:  
  93:.\Generated_Source\PSoC4/Encoder_Intr.c **** *   address: Address of the ISR to set in the interrupt vector table.
  94:.\Generated_Source\PSoC4/Encoder_Intr.c **** *
  95:.\Generated_Source\PSoC4/Encoder_Intr.c **** * Return:
  96:.\Generated_Source\PSoC4/Encoder_Intr.c **** *   None
  97:.\Generated_Source\PSoC4/Encoder_Intr.c **** *
  98:.\Generated_Source\PSoC4/Encoder_Intr.c **** *******************************************************************************/
  99:.\Generated_Source\PSoC4/Encoder_Intr.c **** void Encoder_Intr_StartEx(cyisraddress address)
 100:.\Generated_Source\PSoC4/Encoder_Intr.c **** {
 101:.\Generated_Source\PSoC4/Encoder_Intr.c ****     /* For all we know the interrupt is active. */
 102:.\Generated_Source\PSoC4/Encoder_Intr.c ****     Encoder_Intr_Disable();
 103:.\Generated_Source\PSoC4/Encoder_Intr.c **** 
 104:.\Generated_Source\PSoC4/Encoder_Intr.c ****     /* Set the ISR to point to the Encoder_Intr Interrupt. */
 105:.\Generated_Source\PSoC4/Encoder_Intr.c ****     Encoder_Intr_SetVector(address);
 106:.\Generated_Source\PSoC4/Encoder_Intr.c **** 
 107:.\Generated_Source\PSoC4/Encoder_Intr.c ****     /* Set the priority. */
 108:.\Generated_Source\PSoC4/Encoder_Intr.c ****     Encoder_Intr_SetPriority((uint8)Encoder_Intr_INTC_PRIOR_NUMBER);
 109:.\Generated_Source\PSoC4/Encoder_Intr.c **** 
 110:.\Generated_Source\PSoC4/Encoder_Intr.c ****     /* Enable it. */
 111:.\Generated_Source\PSoC4/Encoder_Intr.c ****     Encoder_Intr_Enable();
 112:.\Generated_Source\PSoC4/Encoder_Intr.c **** }
 113:.\Generated_Source\PSoC4/Encoder_Intr.c **** 
 114:.\Generated_Source\PSoC4/Encoder_Intr.c **** 
 115:.\Generated_Source\PSoC4/Encoder_Intr.c **** /*******************************************************************************
 116:.\Generated_Source\PSoC4/Encoder_Intr.c **** * Function Name: Encoder_Intr_Stop
 117:.\Generated_Source\PSoC4/Encoder_Intr.c **** ********************************************************************************
 118:.\Generated_Source\PSoC4/Encoder_Intr.c **** *
 119:.\Generated_Source\PSoC4/Encoder_Intr.c **** * Summary:
 120:.\Generated_Source\PSoC4/Encoder_Intr.c **** *   Disables and removes the interrupt.
 121:.\Generated_Source\PSoC4/Encoder_Intr.c **** *
 122:.\Generated_Source\PSoC4/Encoder_Intr.c **** * Parameters:  
 123:.\Generated_Source\PSoC4/Encoder_Intr.c **** *   None
 124:.\Generated_Source\PSoC4/Encoder_Intr.c **** *
 125:.\Generated_Source\PSoC4/Encoder_Intr.c **** * Return:
 126:.\Generated_Source\PSoC4/Encoder_Intr.c **** *   None
 127:.\Generated_Source\PSoC4/Encoder_Intr.c **** *
 128:.\Generated_Source\PSoC4/Encoder_Intr.c **** *******************************************************************************/
 129:.\Generated_Source\PSoC4/Encoder_Intr.c **** void Encoder_Intr_Stop(void)
 130:.\Generated_Source\PSoC4/Encoder_Intr.c **** {
 131:.\Generated_Source\PSoC4/Encoder_Intr.c ****     /* Disable this interrupt. */
 132:.\Generated_Source\PSoC4/Encoder_Intr.c ****     Encoder_Intr_Disable();
 133:.\Generated_Source\PSoC4/Encoder_Intr.c **** 
 134:.\Generated_Source\PSoC4/Encoder_Intr.c ****     /* Set the ISR to point to the passive one. */
 135:.\Generated_Source\PSoC4/Encoder_Intr.c ****     Encoder_Intr_SetVector(&IntDefaultHandler);
 136:.\Generated_Source\PSoC4/Encoder_Intr.c **** }
 137:.\Generated_Source\PSoC4/Encoder_Intr.c **** 
 138:.\Generated_Source\PSoC4/Encoder_Intr.c **** 
 139:.\Generated_Source\PSoC4/Encoder_Intr.c **** /*******************************************************************************
 140:.\Generated_Source\PSoC4/Encoder_Intr.c **** * Function Name: Encoder_Intr_Interrupt
 141:.\Generated_Source\PSoC4/Encoder_Intr.c **** ********************************************************************************
 142:.\Generated_Source\PSoC4/Encoder_Intr.c **** *
 143:.\Generated_Source\PSoC4/Encoder_Intr.c **** * Summary:
 144:.\Generated_Source\PSoC4/Encoder_Intr.c **** *   The default Interrupt Service Routine for Encoder_Intr.
 145:.\Generated_Source\PSoC4/Encoder_Intr.c **** *
 146:.\Generated_Source\PSoC4/Encoder_Intr.c **** *   Add custom code between the START and END comments to keep the next version
ARM GAS  C:\Users\Tim\AppData\Local\Temp\ccp3LWQ4.s 			page 4


 147:.\Generated_Source\PSoC4/Encoder_Intr.c **** *   of this file from over-writing your code.
 148:.\Generated_Source\PSoC4/Encoder_Intr.c **** *
 149:.\Generated_Source\PSoC4/Encoder_Intr.c **** *   Note You may use either the default ISR by using this API, or you may define
 150:.\Generated_Source\PSoC4/Encoder_Intr.c **** *   your own separate ISR through ISR_StartEx().
 151:.\Generated_Source\PSoC4/Encoder_Intr.c **** *
 152:.\Generated_Source\PSoC4/Encoder_Intr.c **** * Parameters:  
 153:.\Generated_Source\PSoC4/Encoder_Intr.c **** *   None
 154:.\Generated_Source\PSoC4/Encoder_Intr.c **** *
 155:.\Generated_Source\PSoC4/Encoder_Intr.c **** * Return:
 156:.\Generated_Source\PSoC4/Encoder_Intr.c **** *   None
 157:.\Generated_Source\PSoC4/Encoder_Intr.c **** *
 158:.\Generated_Source\PSoC4/Encoder_Intr.c **** *******************************************************************************/
 159:.\Generated_Source\PSoC4/Encoder_Intr.c **** CY_ISR(Encoder_Intr_Interrupt)
 160:.\Generated_Source\PSoC4/Encoder_Intr.c **** {
  26              		.loc 1 160 0
  27              		.cfi_startproc
 161:.\Generated_Source\PSoC4/Encoder_Intr.c ****     #ifdef Encoder_Intr_INTERRUPT_INTERRUPT_CALLBACK
 162:.\Generated_Source\PSoC4/Encoder_Intr.c ****         Encoder_Intr_Interrupt_InterruptCallback();
 163:.\Generated_Source\PSoC4/Encoder_Intr.c ****     #endif /* Encoder_Intr_INTERRUPT_INTERRUPT_CALLBACK */ 
 164:.\Generated_Source\PSoC4/Encoder_Intr.c **** 
 165:.\Generated_Source\PSoC4/Encoder_Intr.c ****     /*  Place your Interrupt code here. */
 166:.\Generated_Source\PSoC4/Encoder_Intr.c ****     /* `#START Encoder_Intr_Interrupt` */
 167:.\Generated_Source\PSoC4/Encoder_Intr.c **** 
 168:.\Generated_Source\PSoC4/Encoder_Intr.c ****     /* `#END` */
 169:.\Generated_Source\PSoC4/Encoder_Intr.c **** }
  28              		.loc 1 169 0
  29              		@ sp needed
  30 0000 7047     		bx	lr
  31              		.cfi_endproc
  32              	.LFE4:
  33              		.size	Encoder_Intr_Interrupt, .-Encoder_Intr_Interrupt
  34 0002 C046     		.section	.text.Encoder_Intr_SetVector,"ax",%progbits
  35              		.align	2
  36              		.global	Encoder_Intr_SetVector
  37              		.code	16
  38              		.thumb_func
  39              		.type	Encoder_Intr_SetVector, %function
  40              	Encoder_Intr_SetVector:
  41              	.LFB5:
 170:.\Generated_Source\PSoC4/Encoder_Intr.c **** 
 171:.\Generated_Source\PSoC4/Encoder_Intr.c **** 
 172:.\Generated_Source\PSoC4/Encoder_Intr.c **** /*******************************************************************************
 173:.\Generated_Source\PSoC4/Encoder_Intr.c **** * Function Name: Encoder_Intr_SetVector
 174:.\Generated_Source\PSoC4/Encoder_Intr.c **** ********************************************************************************
 175:.\Generated_Source\PSoC4/Encoder_Intr.c **** *
 176:.\Generated_Source\PSoC4/Encoder_Intr.c **** * Summary:
 177:.\Generated_Source\PSoC4/Encoder_Intr.c **** *   Change the ISR vector for the Interrupt. Note calling Encoder_Intr_Start
 178:.\Generated_Source\PSoC4/Encoder_Intr.c **** *   will override any effect this method would have had. To set the vector 
 179:.\Generated_Source\PSoC4/Encoder_Intr.c **** *   before the component has been started use Encoder_Intr_StartEx instead.
 180:.\Generated_Source\PSoC4/Encoder_Intr.c **** * 
 181:.\Generated_Source\PSoC4/Encoder_Intr.c **** *   When defining ISR functions, the CY_ISR and CY_ISR_PROTO macros should be 
 182:.\Generated_Source\PSoC4/Encoder_Intr.c **** *   used to provide consistent definition across compilers:
 183:.\Generated_Source\PSoC4/Encoder_Intr.c **** *
 184:.\Generated_Source\PSoC4/Encoder_Intr.c **** *   Function definition example:
 185:.\Generated_Source\PSoC4/Encoder_Intr.c **** *   CY_ISR(MyISR)
 186:.\Generated_Source\PSoC4/Encoder_Intr.c **** *   {
 187:.\Generated_Source\PSoC4/Encoder_Intr.c **** *   }
ARM GAS  C:\Users\Tim\AppData\Local\Temp\ccp3LWQ4.s 			page 5


 188:.\Generated_Source\PSoC4/Encoder_Intr.c **** *
 189:.\Generated_Source\PSoC4/Encoder_Intr.c **** *   Function prototype example:
 190:.\Generated_Source\PSoC4/Encoder_Intr.c **** *     CY_ISR_PROTO(MyISR);
 191:.\Generated_Source\PSoC4/Encoder_Intr.c **** *
 192:.\Generated_Source\PSoC4/Encoder_Intr.c **** * Parameters:
 193:.\Generated_Source\PSoC4/Encoder_Intr.c **** *   address: Address of the ISR to set in the interrupt vector table.
 194:.\Generated_Source\PSoC4/Encoder_Intr.c **** *
 195:.\Generated_Source\PSoC4/Encoder_Intr.c **** * Return:
 196:.\Generated_Source\PSoC4/Encoder_Intr.c **** *   None
 197:.\Generated_Source\PSoC4/Encoder_Intr.c **** *
 198:.\Generated_Source\PSoC4/Encoder_Intr.c **** *******************************************************************************/
 199:.\Generated_Source\PSoC4/Encoder_Intr.c **** void Encoder_Intr_SetVector(cyisraddress address)
 200:.\Generated_Source\PSoC4/Encoder_Intr.c **** {
  42              		.loc 1 200 0
  43              		.cfi_startproc
  44              	.LVL0:
 201:.\Generated_Source\PSoC4/Encoder_Intr.c ****     CyRamVectors[CYINT_IRQ_BASE + Encoder_Intr__INTC_NUMBER] = address;
  45              		.loc 1 201 0
  46 0000 014B     		ldr	r3, .L3
  47 0002 D864     		str	r0, [r3, #76]
 202:.\Generated_Source\PSoC4/Encoder_Intr.c **** }
  48              		.loc 1 202 0
  49              		@ sp needed
  50 0004 7047     		bx	lr
  51              	.L4:
  52 0006 C046     		.align	2
  53              	.L3:
  54 0008 00000000 		.word	CyRamVectors
  55              		.cfi_endproc
  56              	.LFE5:
  57              		.size	Encoder_Intr_SetVector, .-Encoder_Intr_SetVector
  58              		.section	.text.Encoder_Intr_GetVector,"ax",%progbits
  59              		.align	2
  60              		.global	Encoder_Intr_GetVector
  61              		.code	16
  62              		.thumb_func
  63              		.type	Encoder_Intr_GetVector, %function
  64              	Encoder_Intr_GetVector:
  65              	.LFB6:
 203:.\Generated_Source\PSoC4/Encoder_Intr.c **** 
 204:.\Generated_Source\PSoC4/Encoder_Intr.c **** 
 205:.\Generated_Source\PSoC4/Encoder_Intr.c **** /*******************************************************************************
 206:.\Generated_Source\PSoC4/Encoder_Intr.c **** * Function Name: Encoder_Intr_GetVector
 207:.\Generated_Source\PSoC4/Encoder_Intr.c **** ********************************************************************************
 208:.\Generated_Source\PSoC4/Encoder_Intr.c **** *
 209:.\Generated_Source\PSoC4/Encoder_Intr.c **** * Summary:
 210:.\Generated_Source\PSoC4/Encoder_Intr.c **** *   Gets the "address" of the current ISR vector for the Interrupt.
 211:.\Generated_Source\PSoC4/Encoder_Intr.c **** *
 212:.\Generated_Source\PSoC4/Encoder_Intr.c **** * Parameters:
 213:.\Generated_Source\PSoC4/Encoder_Intr.c **** *   None
 214:.\Generated_Source\PSoC4/Encoder_Intr.c **** *
 215:.\Generated_Source\PSoC4/Encoder_Intr.c **** * Return:
 216:.\Generated_Source\PSoC4/Encoder_Intr.c **** *   Address of the ISR in the interrupt vector table.
 217:.\Generated_Source\PSoC4/Encoder_Intr.c **** *
 218:.\Generated_Source\PSoC4/Encoder_Intr.c **** *******************************************************************************/
 219:.\Generated_Source\PSoC4/Encoder_Intr.c **** cyisraddress Encoder_Intr_GetVector(void)
 220:.\Generated_Source\PSoC4/Encoder_Intr.c **** {
ARM GAS  C:\Users\Tim\AppData\Local\Temp\ccp3LWQ4.s 			page 6


  66              		.loc 1 220 0
  67              		.cfi_startproc
 221:.\Generated_Source\PSoC4/Encoder_Intr.c ****     return CyRamVectors[CYINT_IRQ_BASE + Encoder_Intr__INTC_NUMBER];
  68              		.loc 1 221 0
  69 0000 014B     		ldr	r3, .L6
  70 0002 D86C     		ldr	r0, [r3, #76]
 222:.\Generated_Source\PSoC4/Encoder_Intr.c **** }
  71              		.loc 1 222 0
  72              		@ sp needed
  73 0004 7047     		bx	lr
  74              	.L7:
  75 0006 C046     		.align	2
  76              	.L6:
  77 0008 00000000 		.word	CyRamVectors
  78              		.cfi_endproc
  79              	.LFE6:
  80              		.size	Encoder_Intr_GetVector, .-Encoder_Intr_GetVector
  81              		.section	.text.Encoder_Intr_SetPriority,"ax",%progbits
  82              		.align	2
  83              		.global	Encoder_Intr_SetPriority
  84              		.code	16
  85              		.thumb_func
  86              		.type	Encoder_Intr_SetPriority, %function
  87              	Encoder_Intr_SetPriority:
  88              	.LFB7:
 223:.\Generated_Source\PSoC4/Encoder_Intr.c **** 
 224:.\Generated_Source\PSoC4/Encoder_Intr.c **** 
 225:.\Generated_Source\PSoC4/Encoder_Intr.c **** /*******************************************************************************
 226:.\Generated_Source\PSoC4/Encoder_Intr.c **** * Function Name: Encoder_Intr_SetPriority
 227:.\Generated_Source\PSoC4/Encoder_Intr.c **** ********************************************************************************
 228:.\Generated_Source\PSoC4/Encoder_Intr.c **** *
 229:.\Generated_Source\PSoC4/Encoder_Intr.c **** * Summary:
 230:.\Generated_Source\PSoC4/Encoder_Intr.c **** *   Sets the Priority of the Interrupt. 
 231:.\Generated_Source\PSoC4/Encoder_Intr.c **** *
 232:.\Generated_Source\PSoC4/Encoder_Intr.c **** *   Note calling Encoder_Intr_Start or Encoder_Intr_StartEx will 
 233:.\Generated_Source\PSoC4/Encoder_Intr.c **** *   override any effect this API would have had. This API should only be called
 234:.\Generated_Source\PSoC4/Encoder_Intr.c **** *   after Encoder_Intr_Start or Encoder_Intr_StartEx has been called. 
 235:.\Generated_Source\PSoC4/Encoder_Intr.c **** *   To set the initial priority for the component, use the Design-Wide Resources
 236:.\Generated_Source\PSoC4/Encoder_Intr.c **** *   Interrupt Editor.
 237:.\Generated_Source\PSoC4/Encoder_Intr.c **** *
 238:.\Generated_Source\PSoC4/Encoder_Intr.c **** *   Note This API has no effect on Non-maskable interrupt NMI).
 239:.\Generated_Source\PSoC4/Encoder_Intr.c **** *
 240:.\Generated_Source\PSoC4/Encoder_Intr.c **** * Parameters:
 241:.\Generated_Source\PSoC4/Encoder_Intr.c **** *   priority: Priority of the interrupt, 0 being the highest priority
 242:.\Generated_Source\PSoC4/Encoder_Intr.c **** *             PSoC 3 and PSoC 5LP: Priority is from 0 to 7.
 243:.\Generated_Source\PSoC4/Encoder_Intr.c **** *             PSoC 4: Priority is from 0 to 3.
 244:.\Generated_Source\PSoC4/Encoder_Intr.c **** *
 245:.\Generated_Source\PSoC4/Encoder_Intr.c **** * Return:
 246:.\Generated_Source\PSoC4/Encoder_Intr.c **** *   None
 247:.\Generated_Source\PSoC4/Encoder_Intr.c **** *
 248:.\Generated_Source\PSoC4/Encoder_Intr.c **** *******************************************************************************/
 249:.\Generated_Source\PSoC4/Encoder_Intr.c **** void Encoder_Intr_SetPriority(uint8 priority)
 250:.\Generated_Source\PSoC4/Encoder_Intr.c **** {
  89              		.loc 1 250 0
  90              		.cfi_startproc
  91              	.LVL1:
  92 0000 10B5     		push	{r4, lr}
ARM GAS  C:\Users\Tim\AppData\Local\Temp\ccp3LWQ4.s 			page 7


  93              		.cfi_def_cfa_offset 8
  94              		.cfi_offset 4, -8
  95              		.cfi_offset 14, -4
  96 0002 041C     		mov	r4, r0
  97              	.LVL2:
 251:.\Generated_Source\PSoC4/Encoder_Intr.c **** 	uint8 interruptState;
 252:.\Generated_Source\PSoC4/Encoder_Intr.c ****     uint32 priorityOffset = ((Encoder_Intr__INTC_NUMBER % 4u) * 8u) + 6u;
 253:.\Generated_Source\PSoC4/Encoder_Intr.c ****     
 254:.\Generated_Source\PSoC4/Encoder_Intr.c **** 	interruptState = CyEnterCriticalSection();
  98              		.loc 1 254 0
  99 0004 FFF7FEFF 		bl	CyEnterCriticalSection
 100              	.LVL3:
 255:.\Generated_Source\PSoC4/Encoder_Intr.c ****     *Encoder_Intr_INTC_PRIOR = (*Encoder_Intr_INTC_PRIOR & (uint32)(~Encoder_Intr__INTC_PRIOR_MASK)
 101              		.loc 1 255 0
 102 0008 044A     		ldr	r2, .L9
 103 000a 1368     		ldr	r3, [r2]
 104 000c 9B00     		lsl	r3, r3, #2
 105 000e 9B08     		lsr	r3, r3, #2
 256:.\Generated_Source\PSoC4/Encoder_Intr.c ****                                     ((uint32)priority << priorityOffset);
 106              		.loc 1 256 0
 107 0010 A407     		lsl	r4, r4, #30
 255:.\Generated_Source\PSoC4/Encoder_Intr.c ****     *Encoder_Intr_INTC_PRIOR = (*Encoder_Intr_INTC_PRIOR & (uint32)(~Encoder_Intr__INTC_PRIOR_MASK)
 108              		.loc 1 255 0
 109 0012 1C43     		orr	r4, r3
 110 0014 1460     		str	r4, [r2]
 257:.\Generated_Source\PSoC4/Encoder_Intr.c **** 	CyExitCriticalSection(interruptState);
 111              		.loc 1 257 0
 112 0016 FFF7FEFF 		bl	CyExitCriticalSection
 113              	.LVL4:
 258:.\Generated_Source\PSoC4/Encoder_Intr.c **** }
 114              		.loc 1 258 0
 115              		@ sp needed
 116 001a 10BD     		pop	{r4, pc}
 117              	.L10:
 118              		.align	2
 119              	.L9:
 120 001c 00E400E0 		.word	-536812544
 121              		.cfi_endproc
 122              	.LFE7:
 123              		.size	Encoder_Intr_SetPriority, .-Encoder_Intr_SetPriority
 124              		.section	.text.Encoder_Intr_GetPriority,"ax",%progbits
 125              		.align	2
 126              		.global	Encoder_Intr_GetPriority
 127              		.code	16
 128              		.thumb_func
 129              		.type	Encoder_Intr_GetPriority, %function
 130              	Encoder_Intr_GetPriority:
 131              	.LFB8:
 259:.\Generated_Source\PSoC4/Encoder_Intr.c **** 
 260:.\Generated_Source\PSoC4/Encoder_Intr.c **** 
 261:.\Generated_Source\PSoC4/Encoder_Intr.c **** /*******************************************************************************
 262:.\Generated_Source\PSoC4/Encoder_Intr.c **** * Function Name: Encoder_Intr_GetPriority
 263:.\Generated_Source\PSoC4/Encoder_Intr.c **** ********************************************************************************
 264:.\Generated_Source\PSoC4/Encoder_Intr.c **** *
 265:.\Generated_Source\PSoC4/Encoder_Intr.c **** * Summary:
 266:.\Generated_Source\PSoC4/Encoder_Intr.c **** *   Gets the Priority of the Interrupt.
 267:.\Generated_Source\PSoC4/Encoder_Intr.c **** *
ARM GAS  C:\Users\Tim\AppData\Local\Temp\ccp3LWQ4.s 			page 8


 268:.\Generated_Source\PSoC4/Encoder_Intr.c **** * Parameters:
 269:.\Generated_Source\PSoC4/Encoder_Intr.c **** *   None
 270:.\Generated_Source\PSoC4/Encoder_Intr.c **** *
 271:.\Generated_Source\PSoC4/Encoder_Intr.c **** * Return:
 272:.\Generated_Source\PSoC4/Encoder_Intr.c **** *   Priority of the interrupt, 0 being the highest priority
 273:.\Generated_Source\PSoC4/Encoder_Intr.c **** *    PSoC 3 and PSoC 5LP: Priority is from 0 to 7.
 274:.\Generated_Source\PSoC4/Encoder_Intr.c **** *    PSoC 4: Priority is from 0 to 3.
 275:.\Generated_Source\PSoC4/Encoder_Intr.c **** *
 276:.\Generated_Source\PSoC4/Encoder_Intr.c **** *******************************************************************************/
 277:.\Generated_Source\PSoC4/Encoder_Intr.c **** uint8 Encoder_Intr_GetPriority(void)
 278:.\Generated_Source\PSoC4/Encoder_Intr.c **** {
 132              		.loc 1 278 0
 133              		.cfi_startproc
 134              	.LVL5:
 279:.\Generated_Source\PSoC4/Encoder_Intr.c ****     uint32 priority;
 280:.\Generated_Source\PSoC4/Encoder_Intr.c **** 	uint32 priorityOffset = ((Encoder_Intr__INTC_NUMBER % 4u) * 8u) + 6u;
 281:.\Generated_Source\PSoC4/Encoder_Intr.c **** 
 282:.\Generated_Source\PSoC4/Encoder_Intr.c ****     priority = (*Encoder_Intr_INTC_PRIOR & Encoder_Intr__INTC_PRIOR_MASK) >> priorityOffset;
 135              		.loc 1 282 0
 136 0000 014B     		ldr	r3, .L12
 137 0002 1868     		ldr	r0, [r3]
 138              	.LVL6:
 283:.\Generated_Source\PSoC4/Encoder_Intr.c **** 
 284:.\Generated_Source\PSoC4/Encoder_Intr.c ****     return (uint8)priority;
 139              		.loc 1 284 0
 140 0004 800F     		lsr	r0, r0, #30
 141              	.LVL7:
 285:.\Generated_Source\PSoC4/Encoder_Intr.c **** }
 142              		.loc 1 285 0
 143              		@ sp needed
 144 0006 7047     		bx	lr
 145              	.L13:
 146              		.align	2
 147              	.L12:
 148 0008 00E400E0 		.word	-536812544
 149              		.cfi_endproc
 150              	.LFE8:
 151              		.size	Encoder_Intr_GetPriority, .-Encoder_Intr_GetPriority
 152              		.section	.text.Encoder_Intr_Enable,"ax",%progbits
 153              		.align	2
 154              		.global	Encoder_Intr_Enable
 155              		.code	16
 156              		.thumb_func
 157              		.type	Encoder_Intr_Enable, %function
 158              	Encoder_Intr_Enable:
 159              	.LFB9:
 286:.\Generated_Source\PSoC4/Encoder_Intr.c **** 
 287:.\Generated_Source\PSoC4/Encoder_Intr.c **** 
 288:.\Generated_Source\PSoC4/Encoder_Intr.c **** /*******************************************************************************
 289:.\Generated_Source\PSoC4/Encoder_Intr.c **** * Function Name: Encoder_Intr_Enable
 290:.\Generated_Source\PSoC4/Encoder_Intr.c **** ********************************************************************************
 291:.\Generated_Source\PSoC4/Encoder_Intr.c **** *
 292:.\Generated_Source\PSoC4/Encoder_Intr.c **** * Summary:
 293:.\Generated_Source\PSoC4/Encoder_Intr.c **** *   Enables the interrupt to the interrupt controller. Do not call this function
 294:.\Generated_Source\PSoC4/Encoder_Intr.c **** *   unless ISR_Start() has been called or the functionality of the ISR_Start() 
 295:.\Generated_Source\PSoC4/Encoder_Intr.c **** *   function, which sets the vector and the priority, has been called.
 296:.\Generated_Source\PSoC4/Encoder_Intr.c **** *
ARM GAS  C:\Users\Tim\AppData\Local\Temp\ccp3LWQ4.s 			page 9


 297:.\Generated_Source\PSoC4/Encoder_Intr.c **** * Parameters:
 298:.\Generated_Source\PSoC4/Encoder_Intr.c **** *   None
 299:.\Generated_Source\PSoC4/Encoder_Intr.c **** *
 300:.\Generated_Source\PSoC4/Encoder_Intr.c **** * Return:
 301:.\Generated_Source\PSoC4/Encoder_Intr.c **** *   None
 302:.\Generated_Source\PSoC4/Encoder_Intr.c **** *
 303:.\Generated_Source\PSoC4/Encoder_Intr.c **** *******************************************************************************/
 304:.\Generated_Source\PSoC4/Encoder_Intr.c **** void Encoder_Intr_Enable(void)
 305:.\Generated_Source\PSoC4/Encoder_Intr.c **** {
 160              		.loc 1 305 0
 161              		.cfi_startproc
 306:.\Generated_Source\PSoC4/Encoder_Intr.c ****     /* Enable the general interrupt. */
 307:.\Generated_Source\PSoC4/Encoder_Intr.c ****     *Encoder_Intr_INTC_SET_EN = Encoder_Intr__INTC_MASK;
 162              		.loc 1 307 0
 163 0000 0822     		mov	r2, #8
 164 0002 014B     		ldr	r3, .L15
 165 0004 1A60     		str	r2, [r3]
 308:.\Generated_Source\PSoC4/Encoder_Intr.c **** }
 166              		.loc 1 308 0
 167              		@ sp needed
 168 0006 7047     		bx	lr
 169              	.L16:
 170              		.align	2
 171              	.L15:
 172 0008 00E100E0 		.word	-536813312
 173              		.cfi_endproc
 174              	.LFE9:
 175              		.size	Encoder_Intr_Enable, .-Encoder_Intr_Enable
 176              		.section	.text.Encoder_Intr_GetState,"ax",%progbits
 177              		.align	2
 178              		.global	Encoder_Intr_GetState
 179              		.code	16
 180              		.thumb_func
 181              		.type	Encoder_Intr_GetState, %function
 182              	Encoder_Intr_GetState:
 183              	.LFB10:
 309:.\Generated_Source\PSoC4/Encoder_Intr.c **** 
 310:.\Generated_Source\PSoC4/Encoder_Intr.c **** 
 311:.\Generated_Source\PSoC4/Encoder_Intr.c **** /*******************************************************************************
 312:.\Generated_Source\PSoC4/Encoder_Intr.c **** * Function Name: Encoder_Intr_GetState
 313:.\Generated_Source\PSoC4/Encoder_Intr.c **** ********************************************************************************
 314:.\Generated_Source\PSoC4/Encoder_Intr.c **** *
 315:.\Generated_Source\PSoC4/Encoder_Intr.c **** * Summary:
 316:.\Generated_Source\PSoC4/Encoder_Intr.c **** *   Gets the state (enabled, disabled) of the Interrupt.
 317:.\Generated_Source\PSoC4/Encoder_Intr.c **** *
 318:.\Generated_Source\PSoC4/Encoder_Intr.c **** * Parameters:
 319:.\Generated_Source\PSoC4/Encoder_Intr.c **** *   None
 320:.\Generated_Source\PSoC4/Encoder_Intr.c **** *
 321:.\Generated_Source\PSoC4/Encoder_Intr.c **** * Return:
 322:.\Generated_Source\PSoC4/Encoder_Intr.c **** *   1 if enabled, 0 if disabled.
 323:.\Generated_Source\PSoC4/Encoder_Intr.c **** *
 324:.\Generated_Source\PSoC4/Encoder_Intr.c **** *******************************************************************************/
 325:.\Generated_Source\PSoC4/Encoder_Intr.c **** uint8 Encoder_Intr_GetState(void)
 326:.\Generated_Source\PSoC4/Encoder_Intr.c **** {
 184              		.loc 1 326 0
 185              		.cfi_startproc
 327:.\Generated_Source\PSoC4/Encoder_Intr.c ****     /* Get the state of the general interrupt. */
ARM GAS  C:\Users\Tim\AppData\Local\Temp\ccp3LWQ4.s 			page 10


 328:.\Generated_Source\PSoC4/Encoder_Intr.c ****     return ((*Encoder_Intr_INTC_SET_EN & (uint32)Encoder_Intr__INTC_MASK) != 0u) ? 1u:0u;
 186              		.loc 1 328 0
 187 0000 034B     		ldr	r3, .L20
 188 0002 1B68     		ldr	r3, [r3]
 189 0004 1B07     		lsl	r3, r3, #28
 190 0006 01D5     		bpl	.L19
 191 0008 0120     		mov	r0, #1
 192 000a 00E0     		b	.L18
 193              	.L19:
 194 000c 0020     		mov	r0, #0
 195              	.L18:
 329:.\Generated_Source\PSoC4/Encoder_Intr.c **** }
 196              		.loc 1 329 0 discriminator 4
 197              		@ sp needed
 198 000e 7047     		bx	lr
 199              	.L21:
 200              		.align	2
 201              	.L20:
 202 0010 00E100E0 		.word	-536813312
 203              		.cfi_endproc
 204              	.LFE10:
 205              		.size	Encoder_Intr_GetState, .-Encoder_Intr_GetState
 206              		.section	.text.Encoder_Intr_Disable,"ax",%progbits
 207              		.align	2
 208              		.global	Encoder_Intr_Disable
 209              		.code	16
 210              		.thumb_func
 211              		.type	Encoder_Intr_Disable, %function
 212              	Encoder_Intr_Disable:
 213              	.LFB11:
 330:.\Generated_Source\PSoC4/Encoder_Intr.c **** 
 331:.\Generated_Source\PSoC4/Encoder_Intr.c **** 
 332:.\Generated_Source\PSoC4/Encoder_Intr.c **** /*******************************************************************************
 333:.\Generated_Source\PSoC4/Encoder_Intr.c **** * Function Name: Encoder_Intr_Disable
 334:.\Generated_Source\PSoC4/Encoder_Intr.c **** ********************************************************************************
 335:.\Generated_Source\PSoC4/Encoder_Intr.c **** *
 336:.\Generated_Source\PSoC4/Encoder_Intr.c **** * Summary:
 337:.\Generated_Source\PSoC4/Encoder_Intr.c **** *   Disables the Interrupt in the interrupt controller.
 338:.\Generated_Source\PSoC4/Encoder_Intr.c **** *
 339:.\Generated_Source\PSoC4/Encoder_Intr.c **** * Parameters:
 340:.\Generated_Source\PSoC4/Encoder_Intr.c **** *   None
 341:.\Generated_Source\PSoC4/Encoder_Intr.c **** *
 342:.\Generated_Source\PSoC4/Encoder_Intr.c **** * Return:
 343:.\Generated_Source\PSoC4/Encoder_Intr.c **** *   None
 344:.\Generated_Source\PSoC4/Encoder_Intr.c **** *
 345:.\Generated_Source\PSoC4/Encoder_Intr.c **** *******************************************************************************/
 346:.\Generated_Source\PSoC4/Encoder_Intr.c **** void Encoder_Intr_Disable(void)
 347:.\Generated_Source\PSoC4/Encoder_Intr.c **** {
 214              		.loc 1 347 0
 215              		.cfi_startproc
 348:.\Generated_Source\PSoC4/Encoder_Intr.c ****     /* Disable the general interrupt. */
 349:.\Generated_Source\PSoC4/Encoder_Intr.c ****     *Encoder_Intr_INTC_CLR_EN = Encoder_Intr__INTC_MASK;
 216              		.loc 1 349 0
 217 0000 0822     		mov	r2, #8
 218 0002 014B     		ldr	r3, .L23
 219 0004 1A60     		str	r2, [r3]
 350:.\Generated_Source\PSoC4/Encoder_Intr.c **** }
ARM GAS  C:\Users\Tim\AppData\Local\Temp\ccp3LWQ4.s 			page 11


 220              		.loc 1 350 0
 221              		@ sp needed
 222 0006 7047     		bx	lr
 223              	.L24:
 224              		.align	2
 225              	.L23:
 226 0008 80E100E0 		.word	-536813184
 227              		.cfi_endproc
 228              	.LFE11:
 229              		.size	Encoder_Intr_Disable, .-Encoder_Intr_Disable
 230              		.section	.text.Encoder_Intr_Start,"ax",%progbits
 231              		.align	2
 232              		.global	Encoder_Intr_Start
 233              		.code	16
 234              		.thumb_func
 235              		.type	Encoder_Intr_Start, %function
 236              	Encoder_Intr_Start:
 237              	.LFB1:
  57:.\Generated_Source\PSoC4/Encoder_Intr.c ****     /* For all we know the interrupt is active. */
 238              		.loc 1 57 0
 239              		.cfi_startproc
 240 0000 08B5     		push	{r3, lr}
 241              		.cfi_def_cfa_offset 8
 242              		.cfi_offset 3, -8
 243              		.cfi_offset 14, -4
  59:.\Generated_Source\PSoC4/Encoder_Intr.c **** 
 244              		.loc 1 59 0
 245 0002 FFF7FEFF 		bl	Encoder_Intr_Disable
 246              	.LVL8:
  62:.\Generated_Source\PSoC4/Encoder_Intr.c **** 
 247              		.loc 1 62 0
 248 0006 0448     		ldr	r0, .L26
 249 0008 FFF7FEFF 		bl	Encoder_Intr_SetVector
 250              	.LVL9:
  65:.\Generated_Source\PSoC4/Encoder_Intr.c **** 
 251              		.loc 1 65 0
 252 000c 0320     		mov	r0, #3
 253 000e FFF7FEFF 		bl	Encoder_Intr_SetPriority
 254              	.LVL10:
  68:.\Generated_Source\PSoC4/Encoder_Intr.c **** }
 255              		.loc 1 68 0
 256 0012 FFF7FEFF 		bl	Encoder_Intr_Enable
 257              	.LVL11:
  69:.\Generated_Source\PSoC4/Encoder_Intr.c **** 
 258              		.loc 1 69 0
 259              		@ sp needed
 260 0016 08BD     		pop	{r3, pc}
 261              	.L27:
 262              		.align	2
 263              	.L26:
 264 0018 00000000 		.word	Encoder_Intr_Interrupt
 265              		.cfi_endproc
 266              	.LFE1:
 267              		.size	Encoder_Intr_Start, .-Encoder_Intr_Start
 268              		.section	.text.Encoder_Intr_StartEx,"ax",%progbits
 269              		.align	2
 270              		.global	Encoder_Intr_StartEx
ARM GAS  C:\Users\Tim\AppData\Local\Temp\ccp3LWQ4.s 			page 12


 271              		.code	16
 272              		.thumb_func
 273              		.type	Encoder_Intr_StartEx, %function
 274              	Encoder_Intr_StartEx:
 275              	.LFB2:
 100:.\Generated_Source\PSoC4/Encoder_Intr.c ****     /* For all we know the interrupt is active. */
 276              		.loc 1 100 0
 277              		.cfi_startproc
 278              	.LVL12:
 279 0000 10B5     		push	{r4, lr}
 280              		.cfi_def_cfa_offset 8
 281              		.cfi_offset 4, -8
 282              		.cfi_offset 14, -4
 283 0002 041C     		mov	r4, r0
 102:.\Generated_Source\PSoC4/Encoder_Intr.c **** 
 284              		.loc 1 102 0
 285 0004 FFF7FEFF 		bl	Encoder_Intr_Disable
 286              	.LVL13:
 105:.\Generated_Source\PSoC4/Encoder_Intr.c **** 
 287              		.loc 1 105 0
 288 0008 201C     		mov	r0, r4
 289 000a FFF7FEFF 		bl	Encoder_Intr_SetVector
 290              	.LVL14:
 108:.\Generated_Source\PSoC4/Encoder_Intr.c **** 
 291              		.loc 1 108 0
 292 000e 0320     		mov	r0, #3
 293 0010 FFF7FEFF 		bl	Encoder_Intr_SetPriority
 294              	.LVL15:
 111:.\Generated_Source\PSoC4/Encoder_Intr.c **** }
 295              		.loc 1 111 0
 296 0014 FFF7FEFF 		bl	Encoder_Intr_Enable
 297              	.LVL16:
 112:.\Generated_Source\PSoC4/Encoder_Intr.c **** 
 298              		.loc 1 112 0
 299              		@ sp needed
 300              	.LVL17:
 301 0018 10BD     		pop	{r4, pc}
 302              		.cfi_endproc
 303              	.LFE2:
 304              		.size	Encoder_Intr_StartEx, .-Encoder_Intr_StartEx
 305 001a C046     		.section	.text.Encoder_Intr_Stop,"ax",%progbits
 306              		.align	2
 307              		.global	Encoder_Intr_Stop
 308              		.code	16
 309              		.thumb_func
 310              		.type	Encoder_Intr_Stop, %function
 311              	Encoder_Intr_Stop:
 312              	.LFB3:
 130:.\Generated_Source\PSoC4/Encoder_Intr.c ****     /* Disable this interrupt. */
 313              		.loc 1 130 0
 314              		.cfi_startproc
 315 0000 08B5     		push	{r3, lr}
 316              		.cfi_def_cfa_offset 8
 317              		.cfi_offset 3, -8
 318              		.cfi_offset 14, -4
 132:.\Generated_Source\PSoC4/Encoder_Intr.c **** 
 319              		.loc 1 132 0
ARM GAS  C:\Users\Tim\AppData\Local\Temp\ccp3LWQ4.s 			page 13


 320 0002 FFF7FEFF 		bl	Encoder_Intr_Disable
 321              	.LVL18:
 135:.\Generated_Source\PSoC4/Encoder_Intr.c **** }
 322              		.loc 1 135 0
 323 0006 0248     		ldr	r0, .L30
 324 0008 FFF7FEFF 		bl	Encoder_Intr_SetVector
 325              	.LVL19:
 136:.\Generated_Source\PSoC4/Encoder_Intr.c **** 
 326              		.loc 1 136 0
 327              		@ sp needed
 328 000c 08BD     		pop	{r3, pc}
 329              	.L31:
 330 000e C046     		.align	2
 331              	.L30:
 332 0010 00000000 		.word	IntDefaultHandler
 333              		.cfi_endproc
 334              	.LFE3:
 335              		.size	Encoder_Intr_Stop, .-Encoder_Intr_Stop
 336              		.section	.text.Encoder_Intr_SetPending,"ax",%progbits
 337              		.align	2
 338              		.global	Encoder_Intr_SetPending
 339              		.code	16
 340              		.thumb_func
 341              		.type	Encoder_Intr_SetPending, %function
 342              	Encoder_Intr_SetPending:
 343              	.LFB12:
 351:.\Generated_Source\PSoC4/Encoder_Intr.c **** 
 352:.\Generated_Source\PSoC4/Encoder_Intr.c **** 
 353:.\Generated_Source\PSoC4/Encoder_Intr.c **** /*******************************************************************************
 354:.\Generated_Source\PSoC4/Encoder_Intr.c **** * Function Name: Encoder_Intr_SetPending
 355:.\Generated_Source\PSoC4/Encoder_Intr.c **** ********************************************************************************
 356:.\Generated_Source\PSoC4/Encoder_Intr.c **** *
 357:.\Generated_Source\PSoC4/Encoder_Intr.c **** * Summary:
 358:.\Generated_Source\PSoC4/Encoder_Intr.c **** *   Causes the Interrupt to enter the pending state, a software method of
 359:.\Generated_Source\PSoC4/Encoder_Intr.c **** *   generating the interrupt.
 360:.\Generated_Source\PSoC4/Encoder_Intr.c **** *
 361:.\Generated_Source\PSoC4/Encoder_Intr.c **** * Parameters:
 362:.\Generated_Source\PSoC4/Encoder_Intr.c **** *   None
 363:.\Generated_Source\PSoC4/Encoder_Intr.c **** *
 364:.\Generated_Source\PSoC4/Encoder_Intr.c **** * Return:
 365:.\Generated_Source\PSoC4/Encoder_Intr.c **** *   None
 366:.\Generated_Source\PSoC4/Encoder_Intr.c **** *
 367:.\Generated_Source\PSoC4/Encoder_Intr.c **** * Side Effects:
 368:.\Generated_Source\PSoC4/Encoder_Intr.c **** *   If interrupts are enabled and the interrupt is set up properly, the ISR is
 369:.\Generated_Source\PSoC4/Encoder_Intr.c **** *   entered (depending on the priority of this interrupt and other pending 
 370:.\Generated_Source\PSoC4/Encoder_Intr.c **** *   interrupts).
 371:.\Generated_Source\PSoC4/Encoder_Intr.c **** *
 372:.\Generated_Source\PSoC4/Encoder_Intr.c **** *******************************************************************************/
 373:.\Generated_Source\PSoC4/Encoder_Intr.c **** void Encoder_Intr_SetPending(void)
 374:.\Generated_Source\PSoC4/Encoder_Intr.c **** {
 344              		.loc 1 374 0
 345              		.cfi_startproc
 375:.\Generated_Source\PSoC4/Encoder_Intr.c ****     *Encoder_Intr_INTC_SET_PD = Encoder_Intr__INTC_MASK;
 346              		.loc 1 375 0
 347 0000 0822     		mov	r2, #8
 348 0002 014B     		ldr	r3, .L33
 349 0004 1A60     		str	r2, [r3]
ARM GAS  C:\Users\Tim\AppData\Local\Temp\ccp3LWQ4.s 			page 14


 376:.\Generated_Source\PSoC4/Encoder_Intr.c **** }
 350              		.loc 1 376 0
 351              		@ sp needed
 352 0006 7047     		bx	lr
 353              	.L34:
 354              		.align	2
 355              	.L33:
 356 0008 00E200E0 		.word	-536813056
 357              		.cfi_endproc
 358              	.LFE12:
 359              		.size	Encoder_Intr_SetPending, .-Encoder_Intr_SetPending
 360              		.section	.text.Encoder_Intr_ClearPending,"ax",%progbits
 361              		.align	2
 362              		.global	Encoder_Intr_ClearPending
 363              		.code	16
 364              		.thumb_func
 365              		.type	Encoder_Intr_ClearPending, %function
 366              	Encoder_Intr_ClearPending:
 367              	.LFB13:
 377:.\Generated_Source\PSoC4/Encoder_Intr.c **** 
 378:.\Generated_Source\PSoC4/Encoder_Intr.c **** 
 379:.\Generated_Source\PSoC4/Encoder_Intr.c **** /*******************************************************************************
 380:.\Generated_Source\PSoC4/Encoder_Intr.c **** * Function Name: Encoder_Intr_ClearPending
 381:.\Generated_Source\PSoC4/Encoder_Intr.c **** ********************************************************************************
 382:.\Generated_Source\PSoC4/Encoder_Intr.c **** *
 383:.\Generated_Source\PSoC4/Encoder_Intr.c **** * Summary:
 384:.\Generated_Source\PSoC4/Encoder_Intr.c **** *   Clears a pending interrupt in the interrupt controller.
 385:.\Generated_Source\PSoC4/Encoder_Intr.c **** *
 386:.\Generated_Source\PSoC4/Encoder_Intr.c **** *   Note Some interrupt sources are clear-on-read and require the block 
 387:.\Generated_Source\PSoC4/Encoder_Intr.c **** *   interrupt/status register to be read/cleared with the appropriate block API 
 388:.\Generated_Source\PSoC4/Encoder_Intr.c **** *   (GPIO, UART, and so on). Otherwise the ISR will continue to remain in 
 389:.\Generated_Source\PSoC4/Encoder_Intr.c **** *   pending state even though the interrupt itself is cleared using this API.
 390:.\Generated_Source\PSoC4/Encoder_Intr.c **** *
 391:.\Generated_Source\PSoC4/Encoder_Intr.c **** * Parameters:
 392:.\Generated_Source\PSoC4/Encoder_Intr.c **** *   None
 393:.\Generated_Source\PSoC4/Encoder_Intr.c **** *
 394:.\Generated_Source\PSoC4/Encoder_Intr.c **** * Return:
 395:.\Generated_Source\PSoC4/Encoder_Intr.c **** *   None
 396:.\Generated_Source\PSoC4/Encoder_Intr.c **** *
 397:.\Generated_Source\PSoC4/Encoder_Intr.c **** *******************************************************************************/
 398:.\Generated_Source\PSoC4/Encoder_Intr.c **** void Encoder_Intr_ClearPending(void)
 399:.\Generated_Source\PSoC4/Encoder_Intr.c **** {
 368              		.loc 1 399 0
 369              		.cfi_startproc
 400:.\Generated_Source\PSoC4/Encoder_Intr.c ****     *Encoder_Intr_INTC_CLR_PD = Encoder_Intr__INTC_MASK;
 370              		.loc 1 400 0
 371 0000 0822     		mov	r2, #8
 372 0002 014B     		ldr	r3, .L36
 373 0004 1A60     		str	r2, [r3]
 401:.\Generated_Source\PSoC4/Encoder_Intr.c **** }
 374              		.loc 1 401 0
 375              		@ sp needed
 376 0006 7047     		bx	lr
 377              	.L37:
 378              		.align	2
 379              	.L36:
 380 0008 80E200E0 		.word	-536812928
ARM GAS  C:\Users\Tim\AppData\Local\Temp\ccp3LWQ4.s 			page 15


 381              		.cfi_endproc
 382              	.LFE13:
 383              		.size	Encoder_Intr_ClearPending, .-Encoder_Intr_ClearPending
 384              		.text
 385              	.Letext0:
 386              		.file 2 "Generated_Source\\PSoC4/cytypes.h"
 387              		.file 3 "Generated_Source\\PSoC4/CyLib.h"