ARM GAS  C:\Users\Tim\AppData\Local\Temp\cceYcZO8.s 			page 1


   1              		.cpu cortex-m0
   2              		.fpu softvfp
   3              		.eabi_attribute 20, 1
   4              		.eabi_attribute 21, 1
   5              		.eabi_attribute 23, 3
   6              		.eabi_attribute 24, 1
   7              		.eabi_attribute 25, 1
   8              		.eabi_attribute 26, 1
   9              		.eabi_attribute 30, 1
  10              		.eabi_attribute 34, 0
  11              		.eabi_attribute 18, 4
  12              		.code	16
  13              		.file	"hb25.c"
  14              		.text
  15              	.Ltext0:
  16              		.cfi_sections	.debug_frame
  17              		.section	.rodata.cst1,"aM",%progbits,1
  18              	.LC0:
  19 0000 9C       		.byte	-100
  20              		.section	.text.CalculateCompare,"ax",%progbits
  21              		.align	2
  22              		.code	16
  23              		.thumb_func
  24              		.type	CalculateCompare, %function
  25              	CalculateCompare:
  26              	.LFB34:
  27              		.file 1 "..\\source\\hb25.c"
   1:..\source/hb25.c **** /* ========================================
   2:..\source/hb25.c ****  *
   3:..\source/hb25.c ****  * Copyright YOUR COMPANY, THE YEAR
   4:..\source/hb25.c ****  * All Rights Reserved
   5:..\source/hb25.c ****  * UNPUBLISHED, LICENSED SOFTWARE.
   6:..\source/hb25.c ****  *
   7:..\source/hb25.c ****  * CONFIDENTIAL AND PROPRIETARY INFORMATION
   8:..\source/hb25.c ****  * WHICH IS THE PROPERTY OF your company.
   9:..\source/hb25.c ****  *
  10:..\source/hb25.c ****  * ========================================
  11:..\source/hb25.c **** */
  12:..\source/hb25.c **** 
  13:..\source/hb25.c **** #include "hb25.h"
  14:..\source/hb25.c **** #include "utils.h"
  15:..\source/hb25.c **** 
  16:..\source/hb25.c **** #define HB25_ON (1)
  17:..\source/hb25.c **** #define HB25_OFF (0)
  18:..\source/hb25.c **** 
  19:..\source/hb25.c **** #define MIN_PWM_COUNT (800)
  20:..\source/hb25.c **** #define CNTR_PWM_COUNT (1500)
  21:..\source/hb25.c **** #define MAX_PWM_COUNT (2200)
  22:..\source/hb25.c **** 
  23:..\source/hb25.c **** #define PWM_PADDING (200)
  24:..\source/hb25.c **** 
  25:..\source/hb25.c **** #define REVERSE_PWM_COUNT (MAX_PWM_COUNT - PWM_PADDING)
  26:..\source/hb25.c **** #define STOP_PWM_COUNT (CNTR_PWM_COUNT)
  27:..\source/hb25.c **** #define FORWARD_PWM_COUNT (MIN_PWM_COUNT + PWM_PADDING)
  28:..\source/hb25.c **** 
  29:..\source/hb25.c **** #define MIN_VALUE (-100)
  30:..\source/hb25.c **** #define MAX_VALUE (100)
ARM GAS  C:\Users\Tim\AppData\Local\Temp\cceYcZO8.s 			page 2


  31:..\source/hb25.c **** #define MID_VALUE (0)
  32:..\source/hb25.c **** 
  33:..\source/hb25.c **** #define COUNT_RESOLUTION (5)
  34:..\source/hb25.c **** 
  35:..\source/hb25.c **** static uint16 CalculateCompare(int8 value)
  36:..\source/hb25.c **** {
  28              		.loc 1 36 0
  29              		.cfi_startproc
  30              	.LVL0:
  37:..\source/hb25.c ****     
  38:..\source/hb25.c ****     int16 result = 0;
  39:..\source/hb25.c ****     
  40:..\source/hb25.c ****     value = constrain(value, MIN_VALUE, MAX_VALUE);
  31              		.loc 1 40 0
  32 0000 6328     		cmp	r0, #99
  33 0002 06DC     		bgt	.L7
  34              		.loc 1 40 0 is_stmt 0 discriminator 1
  35 0004 031C     		add	r3, r0, #0
  36 0006 6430     		add	r0, r0, #100
  37 0008 01DA     		bge	.L3
  38              	.LVL1:
  39 000a 104B     		ldr	r3, .L11
  40              	.LVL2:
  41 000c 1B78     		ldrb	r3, [r3]
  42              	.L3:
  43 000e 5BB2     		sxtb	r3, r3
  44 0010 00E0     		b	.L2
  45              	.LVL3:
  46              	.L7:
  47              		.loc 1 40 0
  48 0012 6423     		mov	r3, #100
  49              	.LVL4:
  50              	.L2:
  41:..\source/hb25.c ****     result = (value == 0) ? 0 : (-value * COUNT_RESOLUTION);
  51              		.loc 1 41 0 is_stmt 1 discriminator 4
  52 0014 002B     		cmp	r3, #0
  53 0016 05D0     		beq	.L8
  54              		.loc 1 41 0 is_stmt 0 discriminator 1
  55 0018 9803     		lsl	r0, r3, #14
  56 001a C01A     		sub	r0, r0, r3
  57 001c 8000     		lsl	r0, r0, #2
  58 001e C01A     		sub	r0, r0, r3
  59 0020 80B2     		uxth	r0, r0
  60 0022 00E0     		b	.L4
  61              	.L8:
  62              		.loc 1 41 0
  63 0024 0020     		mov	r0, #0
  64              	.L4:
  65              	.LVL5:
  42:..\source/hb25.c ****     
  43:..\source/hb25.c ****     return (uint16) constrain(STOP_PWM_COUNT + result, MIN_PWM_COUNT, MAX_PWM_COUNT);
  66              		.loc 1 43 0 is_stmt 1 discriminator 4
  67 0026 03B2     		sxth	r3, r0
  68              	.LVL6:
  69 0028 094A     		ldr	r2, .L11+4
  70 002a 9446     		mov	ip, r2
  71 002c 6344     		add	r3, r3, ip
ARM GAS  C:\Users\Tim\AppData\Local\Temp\cceYcZO8.s 			page 3


  72 002e 094A     		ldr	r2, .L11+8
  73 0030 9342     		cmp	r3, r2
  74 0032 09DC     		bgt	.L9
  75              		.loc 1 43 0 is_stmt 0 discriminator 1
  76 0034 C822     		mov	r2, #200
  77 0036 9200     		lsl	r2, r2, #2
  78 0038 9342     		cmp	r3, r2
  79 003a 02DD     		ble	.L10
  80              		.loc 1 43 0 discriminator 3
  81 003c 6044     		add	r0, r0, ip
  82              	.LVL7:
  83 003e 80B2     		uxth	r0, r0
  84 0040 03E0     		b	.L5
  85              	.LVL8:
  86              	.L10:
  87              		.loc 1 43 0
  88 0042 C820     		mov	r0, #200
  89              	.LVL9:
  90 0044 8000     		lsl	r0, r0, #2
  91 0046 00E0     		b	.L5
  92              	.LVL10:
  93              	.L9:
  94 0048 0348     		ldr	r0, .L11+12
  95              	.LVL11:
  96              	.L5:
  44:..\source/hb25.c **** }
  97              		.loc 1 44 0 is_stmt 1 discriminator 8
  98              		@ sp needed
  99 004a 7047     		bx	lr
 100              	.L12:
 101              		.align	2
 102              	.L11:
 103 004c 00000000 		.word	.LC0
 104 0050 DC050000 		.word	1500
 105 0054 97080000 		.word	2199
 106 0058 98080000 		.word	2200
 107              		.cfi_endproc
 108              	.LFE34:
 109              		.size	CalculateCompare, .-CalculateCompare
 110              		.section	.text.HB25_Init,"ax",%progbits
 111              		.align	2
 112              		.global	HB25_Init
 113              		.code	16
 114              		.thumb_func
 115              		.type	HB25_Init, %function
 116              	HB25_Init:
 117              	.LFB35:
  45:..\source/hb25.c **** 
  46:..\source/hb25.c **** void HB25_Init()
  47:..\source/hb25.c **** {
 118              		.loc 1 47 0
 119              		.cfi_startproc
  48:..\source/hb25.c **** }
 120              		.loc 1 48 0
 121              		@ sp needed
 122 0000 7047     		bx	lr
 123              		.cfi_endproc
ARM GAS  C:\Users\Tim\AppData\Local\Temp\cceYcZO8.s 			page 4


 124              	.LFE35:
 125              		.size	HB25_Init, .-HB25_Init
 126 0002 C046     		.section	.text.HB25_Start,"ax",%progbits
 127              		.align	2
 128              		.global	HB25_Start
 129              		.code	16
 130              		.thumb_func
 131              		.type	HB25_Start, %function
 132              	HB25_Start:
 133              	.LFB36:
  49:..\source/hb25.c **** 
  50:..\source/hb25.c **** void HB25_Start()
  51:..\source/hb25.c **** {
 134              		.loc 1 51 0
 135              		.cfi_startproc
 136 0000 08B5     		push	{r3, lr}
 137              		.cfi_def_cfa_offset 8
 138              		.cfi_offset 3, -8
 139              		.cfi_offset 14, -4
  52:..\source/hb25.c ****     /* The HB25's have a specific startup sequence which needs to be implemented:
  53:..\source/hb25.c ****     
  54:..\source/hb25.c ****     Most reliable option:
  55:..\source/hb25.c ****         1. Power the microcontroller up first, using code that forces the program to wait until the
  56:..\source/hb25.c ****            HB-25 is powered up before sending pulses.
  57:..\source/hb25.c ****            Note: The HB-25 pulls the input line low until it is ready
  58:..\source/hb25.c ****         2. Power up the HB-25 for operation.
  59:..\source/hb25.c ****         3. When shutting down your application, cut off power to the HB-25 first.
  60:..\source/hb25.c ****         4. Power down your microcontroller last.
  61:..\source/hb25.c ****     */
  62:..\source/hb25.c ****     
  63:..\source/hb25.c ****     /*
  64:..\source/hb25.c ****     To perform the above, we need to be able to read the current input on each PWM pin.  I'm not su
  65:..\source/hb25.c ****     Q: Can we set the PWM pins up as bidirectinal?  If so, then we can just read it
  66:..\source/hb25.c ****     
  67:..\source/hb25.c ****      */
  68:..\source/hb25.c ****     
  69:..\source/hb25.c ****     /* Energize the HB25 motor controllers */
  70:..\source/hb25.c ****     //HB25_Enable_Write(HB25_ON);
  71:..\source/hb25.c ****     
  72:..\source/hb25.c ****     /* Wait for the HB25 motor controllers to pull the PWM pins high */
  73:..\source/hb25.c ****     //while (!HB25_PWM_Pin_Read())
  74:..\source/hb25.c ****     //{
  75:..\source/hb25.c ****     //}
  76:..\source/hb25.c ****     
  77:..\source/hb25.c ****     HB25_PWM_Start();
 140              		.loc 1 77 0
 141 0002 FFF7FEFF 		bl	HB25_PWM_Start
 142              	.LVL12:
  78:..\source/hb25.c **** }
 143              		.loc 1 78 0
 144              		@ sp needed
 145 0006 08BD     		pop	{r3, pc}
 146              		.cfi_endproc
 147              	.LFE36:
 148              		.size	HB25_Start, .-HB25_Start
 149              		.section	.text.HB25_SetOutput,"ax",%progbits
 150              		.align	2
ARM GAS  C:\Users\Tim\AppData\Local\Temp\cceYcZO8.s 			page 5


 151              		.global	HB25_SetOutput
 152              		.code	16
 153              		.thumb_func
 154              		.type	HB25_SetOutput, %function
 155              	HB25_SetOutput:
 156              	.LFB37:
  79:..\source/hb25.c **** 
  80:..\source/hb25.c **** void HB25_SetOutput(int8 value)
  81:..\source/hb25.c **** {
 157              		.loc 1 81 0
 158              		.cfi_startproc
 159              	.LVL13:
 160 0000 08B5     		push	{r3, lr}
 161              		.cfi_def_cfa_offset 8
 162              		.cfi_offset 3, -8
 163              		.cfi_offset 14, -4
 164              	.LVL14:
  82:..\source/hb25.c ****     uint16 pwm_compare = 0;
  83:..\source/hb25.c ****     
  84:..\source/hb25.c ****     pwm_compare = CalculateCompare(value);
 165              		.loc 1 84 0
 166 0002 FFF7FEFF 		bl	CalculateCompare
 167              	.LVL15:
  85:..\source/hb25.c ****     HB25_PWM_WriteCompare(pwm_compare);
 168              		.loc 1 85 0
 169 0006 FFF7FEFF 		bl	HB25_PWM_WriteCompare
 170              	.LVL16:
  86:..\source/hb25.c **** }
 171              		.loc 1 86 0
 172              		@ sp needed
 173 000a 08BD     		pop	{r3, pc}
 174              		.cfi_endproc
 175              	.LFE37:
 176              		.size	HB25_SetOutput, .-HB25_SetOutput
 177              		.section	.text.HB25_Stop,"ax",%progbits
 178              		.align	2
 179              		.global	HB25_Stop
 180              		.code	16
 181              		.thumb_func
 182              		.type	HB25_Stop, %function
 183              	HB25_Stop:
 184              	.LFB38:
  87:..\source/hb25.c **** 
  88:..\source/hb25.c **** void HB25_Stop()
  89:..\source/hb25.c **** {
 185              		.loc 1 89 0
 186              		.cfi_startproc
 187 0000 08B5     		push	{r3, lr}
 188              		.cfi_def_cfa_offset 8
 189              		.cfi_offset 3, -8
 190              		.cfi_offset 14, -4
  90:..\source/hb25.c ****     HB25_PWM_Stop();
 191              		.loc 1 90 0
 192 0002 FFF7FEFF 		bl	HB25_PWM_Stop
 193              	.LVL17:
  91:..\source/hb25.c ****     HB25_Enable_Write(HB25_OFF);
 194              		.loc 1 91 0
ARM GAS  C:\Users\Tim\AppData\Local\Temp\cceYcZO8.s 			page 6


 195 0006 0020     		mov	r0, #0
 196 0008 FFF7FEFF 		bl	HB25_Enable_Write
 197              	.LVL18:
  92:..\source/hb25.c **** }
 198              		.loc 1 92 0
 199              		@ sp needed
 200 000c 08BD     		pop	{r3, pc}
 201              		.cfi_endproc
 202              	.LFE38:
 203              		.size	HB25_Stop, .-HB25_Stop
 204 000e C046     		.section	.text.HB25_Test,"ax",%progbits
 205              		.align	2
 206              		.global	HB25_Test
 207              		.code	16
 208              		.thumb_func
 209              		.type	HB25_Test, %function
 210              	HB25_Test:
 211              	.LFB39:
  93:..\source/hb25.c **** 
  94:..\source/hb25.c **** void HB25_Test()
  95:..\source/hb25.c **** {
 212              		.loc 1 95 0
 213              		.cfi_startproc
  96:..\source/hb25.c ****     //HB25_PWM_Start();
  97:..\source/hb25.c ****     //HB25_PWM_WriteCompare(0000);
  98:..\source/hb25.c **** }
 214              		.loc 1 98 0
 215              		@ sp needed
 216 0000 7047     		bx	lr
 217              		.cfi_endproc
 218              	.LFE39:
 219              		.size	HB25_Test, .-HB25_Test
 220 0002 C046     		.text
 221              	.Letext0:
 222              		.file 2 "Generated_Source\\PSoC4/cytypes.h"
 223              		.file 3 "Generated_Source\\PSoC4/HB25_PWM.h"
 224              		.file 4 "Generated_Source\\PSoC4/HB25_Enable.h"