ARM GAS  C:\Users\Tim\AppData\Local\Temp\ccHrFsGG.s 			page 1


   1              		.cpu cortex-m0
   2              		.fpu softvfp
   3              		.eabi_attribute 20, 1
   4              		.eabi_attribute 21, 1
   5              		.eabi_attribute 23, 3
   6              		.eabi_attribute 24, 1
   7              		.eabi_attribute 25, 1
   8              		.eabi_attribute 26, 1
   9              		.eabi_attribute 30, 1
  10              		.eabi_attribute 34, 0
  11              		.eabi_attribute 18, 4
  12              		.code	16
  13              		.file	"i2c.c"
  14              		.text
  15              	.Ltext0:
  16              		.cfi_sections	.debug_frame
  17              		.section	.text.I2c_Init,"ax",%progbits
  18              		.align	2
  19              		.global	I2c_Init
  20              		.code	16
  21              		.thumb_func
  22              		.type	I2c_Init, %function
  23              	I2c_Init:
  24              	.LFB34:
  25              		.file 1 "..\\source\\i2c.c"
   1:..\source/i2c.c **** /* ========================================
   2:..\source/i2c.c ****  *
   3:..\source/i2c.c ****  * Copyright YOUR COMPANY, THE YEAR
   4:..\source/i2c.c ****  * All Rights Reserved
   5:..\source/i2c.c ****  * UNPUBLISHED, LICENSED SOFTWARE.
   6:..\source/i2c.c ****  *
   7:..\source/i2c.c ****  * CONFIDENTIAL AND PROPRIETARY INFORMATION
   8:..\source/i2c.c ****  * WHICH IS THE PROPERTY OF your company.
   9:..\source/i2c.c ****  *
  10:..\source/i2c.c ****  * ========================================
  11:..\source/i2c.c **** */
  12:..\source/i2c.c **** 
  13:..\source/i2c.c **** #include "i2c.h"
  14:..\source/i2c.c **** #include "time.h"
  15:..\source/i2c.c **** #include "hwconfig.h"
  16:..\source/i2c.c **** 
  17:..\source/i2c.c **** /*
  18:..\source/i2c.c ****     Buffer Layout
  19:..\source/i2c.c **** 
  20:..\source/i2c.c ****     offset     num bytes     name                           description
  21:..\source/i2c.c ****       00           2         [control register]             the control register supports 
  22:..\source/i2c.c ****                                                             enable/disable of the HB25 motors and
  23:..\source/i2c.c ****                                                             Encoder counts
  24:..\source/i2c.c ****       02           2         [commanded velocity]           commanded velocity is in units of 
  25:..\source/i2c.c ****                                                             millimeters/second
  26:..\source/i2c.c ****       04           2         [commanded accel]              commanded velocity in in units of 
  27:..\source/i2c.c ****                                                             millimeters/second^2
  28:..\source/i2c.c ****     ------------------------------ Read/Write Boundary --------------------------------------------
  29:..\source/i2c.c ****       06           2         [device status]                contains bits that represent the status
  30:..\source/i2c.c ****                                                                - HB25 Motor Controller Initialize b
  31:..\source/i2c.c ****       08           4         [measured count]               measured count is the encoder count
  32:..\source/i2c.c ****       12           2         [measured velocity]            measured velocity is the measured speed
ARM GAS  C:\Users\Tim\AppData\Local\Temp\ccHrFsGG.s 			page 2


  33:..\source/i2c.c ****                                                             of the wheel using the encoder count
  34:..\source/i2c.c ****       14          16         [ultrasonic distance]          ultrasonic distance is an array of 
  35:..\source/i2c.c ****                                                             distances from the ultrasonic sensors i
  36:..\source/i2c.c ****                                                             centimeters, range 2 to 500
  37:..\source/i2c.c ****       30           8         [infrared distance]            infrared distance is an array of distan
  38:..\source/i2c.c ****                                                             from the infrared sensors in centimeter
  39:..\source/i2c.c ****                                                             range 10 to 80
  40:..\source/i2c.c ****       38           1         [test]                         used for testing the i2c communication
  41:..\source/i2c.c ****       39        [empty]
  42:..\source/i2c.c ****  */
  43:..\source/i2c.c **** 
  44:..\source/i2c.c **** #define I2C_BUFFER_BASE (0)
  45:..\source/i2c.c **** #define I2C_READ_WRITE_OFFSET (I2C_BUFFER_BASE)
  46:..\source/i2c.c **** 
  47:..\source/i2c.c **** #define CONTROL_BASE (I2C_READ_WRITE_OFFSET)
  48:..\source/i2c.c **** #define CONTROL_SIZE (sizeof(uint16))
  49:..\source/i2c.c **** 
  50:..\source/i2c.c **** #define COMMANDED_VELOCITY_BASE (CONTROL_BASE + CONTROL_SIZE)
  51:..\source/i2c.c **** #define COMMANDED_VELOCITY_SIZE (sizeof(uint16))
  52:..\source/i2c.c **** 
  53:..\source/i2c.c **** #define COMMANDED_ACCELERATION_BASE (COMMANDED_VELOCITY_BASE + COMMANDED_VELOCITY_SIZE)
  54:..\source/i2c.c **** #define COMMANDED_ACCELERATION_SIZE (sizeof(uint16))
  55:..\source/i2c.c **** 
  56:..\source/i2c.c **** /* The read/write size is the number of bytes (starting from the beginning of the buffer
  57:..\source/i2c.c ****    that the master can write to.  The master can always read from the entire buffer
  58:..\source/i2c.c ****  */
  59:..\source/i2c.c **** #define I2C_READ_WRITE_SIZE (CONTROL_SIZE + COMMANDED_VELOCITY_SIZE + COMMANDED_ACCELERATION_SIZE)
  60:..\source/i2c.c **** #define I2C_READ_ONLY_OFFSET (I2C_READ_WRITE_OFFSET + I2C_READ_WRITE_SIZE)
  61:..\source/i2c.c **** 
  62:..\source/i2c.c **** #define DEVICE_STATUS_BASE (I2C_READ_ONLY_OFFSET)
  63:..\source/i2c.c **** #define DEVICE_STATUS_SIZE (sizeof(uint16))
  64:..\source/i2c.c **** 
  65:..\source/i2c.c **** #define MEASURED_COUNT_BASE (DEVICE_STATUS_BASE + DEVICE_STATUS_SIZE)
  66:..\source/i2c.c **** #define MEASURED_COUNT_SIZE (sizeof(uint32))
  67:..\source/i2c.c **** 
  68:..\source/i2c.c **** #define MEASURED_VELOCITY_BASE (MEASURED_COUNT_BASE + MEASURED_COUNT_SIZE)
  69:..\source/i2c.c **** #define MEASURED_VELOCITY_SIZE (sizeof(uint16))
  70:..\source/i2c.c **** 
  71:..\source/i2c.c **** #define ULTRASONIC_DISTANCE_BASE (MEASURED_VELOCITY_BASE + MEASURED_VELOCITY_SIZE)
  72:..\source/i2c.c **** #define ULTRASONIC_DISTANCE_SIZE (NUM_ULTRASONIC_SENSORS * sizeof(uint16))
  73:..\source/i2c.c **** 
  74:..\source/i2c.c **** #define INFRARED_DISTANCE_BASE (ULTRASONIC_DISTANCE_BASE + ULTRASONIC_DISTANCE_SIZE)
  75:..\source/i2c.c **** #define INFRARED_DISTANCE_SIZE (NUM_INFRARED_SENSORS * sizeof(uint8))
  76:..\source/i2c.c **** 
  77:..\source/i2c.c **** #define TEST_BASE (ULTRASONIC_DISTANCE_BASE + ULTRASONIC_DISTANCE_SIZE)
  78:..\source/i2c.c **** #define TEST_SIZE (1)
  79:..\source/i2c.c **** 
  80:..\source/i2c.c **** #define I2C_READ_ONLY_SIZE (MEASURED_COUNT_SIZE + MEASURED_VELOCITY_SIZE + ULTRASONIC_DISTANCE_SIZE
  81:..\source/i2c.c **** 
  82:..\source/i2c.c **** #define BUFFER_SIZE (I2C_READ_WRITE_SIZE + I2C_READ_ONLY_SIZE)
  83:..\source/i2c.c **** 
  84:..\source/i2c.c **** static uint8 i2c_buf[BUFFER_SIZE];
  85:..\source/i2c.c **** 
  86:..\source/i2c.c **** 
  87:..\source/i2c.c **** void I2c_Init()
  88:..\source/i2c.c **** {
  26              		.loc 1 88 0
ARM GAS  C:\Users\Tim\AppData\Local\Temp\ccHrFsGG.s 			page 3


  27              		.cfi_startproc
  89:..\source/i2c.c ****     memset( i2c_buf, 0, sizeof(i2c_buf));
  28              		.loc 1 89 0
  29 0000 044B     		ldr	r3, .L2
  30 0002 0022     		mov	r2, #0
  31 0004 1A60     		str	r2, [r3]
  32 0006 5A60     		str	r2, [r3, #4]
  33 0008 9A60     		str	r2, [r3, #8]
  34 000a DA60     		str	r2, [r3, #12]
  35 000c 1A61     		str	r2, [r3, #16]
  36 000e 5A61     		str	r2, [r3, #20]
  37 0010 1A76     		strb	r2, [r3, #24]
  90:..\source/i2c.c **** }
  38              		.loc 1 90 0
  39              		@ sp needed
  40 0012 7047     		bx	lr
  41              	.L3:
  42              		.align	2
  43              	.L2:
  44 0014 00000000 		.word	.LANCHOR0
  45              		.cfi_endproc
  46              	.LFE34:
  47              		.size	I2c_Init, .-I2c_Init
  48              		.section	.text.I2c_Start,"ax",%progbits
  49              		.align	2
  50              		.global	I2c_Start
  51              		.code	16
  52              		.thumb_func
  53              		.type	I2c_Start, %function
  54              	I2c_Start:
  55              	.LFB35:
  91:..\source/i2c.c **** 
  92:..\source/i2c.c **** void I2c_Start()
  93:..\source/i2c.c **** {
  56              		.loc 1 93 0
  57              		.cfi_startproc
  58 0000 08B5     		push	{r3, lr}
  59              		.cfi_def_cfa_offset 8
  60              		.cfi_offset 3, -8
  61              		.cfi_offset 14, -4
  94:..\source/i2c.c **** #ifdef BOARD_1
  95:..\source/i2c.c ****     EZI2C_EzI2CSetAddress1(BOARD_1_I2C_ADDRESS);
  96:..\source/i2c.c **** #else /* BOARD_2 */
  97:..\source/i2c.c ****     EZI2C_EzI2CSetAddress1(BOARD_2_I2C_ADDRESS);
  62              		.loc 1 97 0
  63 0002 0920     		mov	r0, #9
  64 0004 FFF7FEFF 		bl	EZI2C_EzI2CSetAddress1
  65              	.LVL0:
  98:..\source/i2c.c **** #endif
  99:..\source/i2c.c ****     EZI2C_Start();
  66              		.loc 1 99 0
  67 0008 FFF7FEFF 		bl	EZI2C_Start
  68              	.LVL1:
 100:..\source/i2c.c ****     
 101:..\source/i2c.c ****     EZI2C_EzI2CSetBuffer1(sizeof(i2c_buf), I2C_READ_WRITE_SIZE, i2c_buf);
  69              		.loc 1 101 0
  70 000c 1920     		mov	r0, #25
ARM GAS  C:\Users\Tim\AppData\Local\Temp\ccHrFsGG.s 			page 4


  71 000e 0621     		mov	r1, #6
  72 0010 014A     		ldr	r2, .L5
  73 0012 FFF7FEFF 		bl	EZI2C_EzI2CSetBuffer1
  74              	.LVL2:
 102:..\source/i2c.c **** }
  75              		.loc 1 102 0
  76              		@ sp needed
  77 0016 08BD     		pop	{r3, pc}
  78              	.L6:
  79              		.align	2
  80              	.L5:
  81 0018 00000000 		.word	.LANCHOR0
  82              		.cfi_endproc
  83              	.LFE35:
  84              		.size	I2c_Start, .-I2c_Start
  85              		.section	.text.I2c_ReadControl,"ax",%progbits
  86              		.align	2
  87              		.global	I2c_ReadControl
  88              		.code	16
  89              		.thumb_func
  90              		.type	I2c_ReadControl, %function
  91              	I2c_ReadControl:
  92              	.LFB36:
 103:..\source/i2c.c **** 
 104:..\source/i2c.c **** uint16 I2c_ReadControl()
 105:..\source/i2c.c **** {
  93              		.loc 1 105 0
  94              		.cfi_startproc
 106:..\source/i2c.c ****     return (uint16) (i2c_buf[CONTROL_BASE + 1] << 8) | i2c_buf[CONTROL_BASE];
  95              		.loc 1 106 0
  96 0000 024B     		ldr	r3, .L8
  97 0002 5878     		ldrb	r0, [r3, #1]
  98 0004 0002     		lsl	r0, r0, #8
  99 0006 1B78     		ldrb	r3, [r3]
 100 0008 1843     		orr	r0, r3
 107:..\source/i2c.c **** }
 101              		.loc 1 107 0
 102              		@ sp needed
 103 000a 7047     		bx	lr
 104              	.L9:
 105              		.align	2
 106              	.L8:
 107 000c 00000000 		.word	.LANCHOR0
 108              		.cfi_endproc
 109              	.LFE36:
 110              		.size	I2c_ReadControl, .-I2c_ReadControl
 111              		.section	.text.I2c_WriteStatus,"ax",%progbits
 112              		.align	2
 113              		.global	I2c_WriteStatus
 114              		.code	16
 115              		.thumb_func
 116              		.type	I2c_WriteStatus, %function
 117              	I2c_WriteStatus:
 118              	.LFB37:
 108:..\source/i2c.c **** 
 109:..\source/i2c.c **** void I2c_WriteStatus(uint16 mask)
 110:..\source/i2c.c **** {
ARM GAS  C:\Users\Tim\AppData\Local\Temp\ccHrFsGG.s 			page 5


 119              		.loc 1 110 0
 120              		.cfi_startproc
 121              	.LVL3:
 111:..\source/i2c.c ****     i2c_buf[DEVICE_STATUS_BASE] |= (mask >> 8);
 122              		.loc 1 111 0
 123 0000 044B     		ldr	r3, .L11
 124 0002 010A     		lsr	r1, r0, #8
 125 0004 9A79     		ldrb	r2, [r3, #6]
 126 0006 0A43     		orr	r2, r1
 127 0008 9A71     		strb	r2, [r3, #6]
 112:..\source/i2c.c ****     i2c_buf[DEVICE_STATUS_BASE + 1] |= (mask & 0xFF);
 128              		.loc 1 112 0
 129 000a DA79     		ldrb	r2, [r3, #7]
 130 000c 1043     		orr	r0, r2
 131              	.LVL4:
 132 000e D871     		strb	r0, [r3, #7]
 113:..\source/i2c.c **** }
 133              		.loc 1 113 0
 134              		@ sp needed
 135 0010 7047     		bx	lr
 136              	.L12:
 137 0012 C046     		.align	2
 138              	.L11:
 139 0014 00000000 		.word	.LANCHOR0
 140              		.cfi_endproc
 141              	.LFE37:
 142              		.size	I2c_WriteStatus, .-I2c_WriteStatus
 143              		.section	.text.I2c_ReadVelocity,"ax",%progbits
 144              		.align	2
 145              		.global	I2c_ReadVelocity
 146              		.code	16
 147              		.thumb_func
 148              		.type	I2c_ReadVelocity, %function
 149              	I2c_ReadVelocity:
 150              	.LFB38:
 114:..\source/i2c.c **** 
 115:..\source/i2c.c **** void I2c_ReadVelocity(int16* velocity_percent)
 116:..\source/i2c.c **** {
 151              		.loc 1 116 0
 152              		.cfi_startproc
 153              	.LVL5:
 117:..\source/i2c.c ****     *velocity_percent = (int16) (i2c_buf[COMMANDED_VELOCITY_BASE + 1] << 8) | i2c_buf[COMMANDED_VEL
 154              		.loc 1 117 0
 155 0000 034A     		ldr	r2, .L14
 156 0002 D378     		ldrb	r3, [r2, #3]
 157 0004 1B02     		lsl	r3, r3, #8
 158 0006 9278     		ldrb	r2, [r2, #2]
 159 0008 1343     		orr	r3, r2
 160 000a 0380     		strh	r3, [r0]
 118:..\source/i2c.c **** }
 161              		.loc 1 118 0
 162              		@ sp needed
 163 000c 7047     		bx	lr
 164              	.L15:
 165 000e C046     		.align	2
 166              	.L14:
 167 0010 00000000 		.word	.LANCHOR0
ARM GAS  C:\Users\Tim\AppData\Local\Temp\ccHrFsGG.s 			page 6


 168              		.cfi_endproc
 169              	.LFE38:
 170              		.size	I2c_ReadVelocity, .-I2c_ReadVelocity
 171              		.section	.text.I2c_ReadAcceleration,"ax",%progbits
 172              		.align	2
 173              		.global	I2c_ReadAcceleration
 174              		.code	16
 175              		.thumb_func
 176              		.type	I2c_ReadAcceleration, %function
 177              	I2c_ReadAcceleration:
 178              	.LFB39:
 119:..\source/i2c.c **** 
 120:..\source/i2c.c **** void I2c_ReadAcceleration(int16* accel_percent)
 121:..\source/i2c.c **** {
 179              		.loc 1 121 0
 180              		.cfi_startproc
 181              	.LVL6:
 122:..\source/i2c.c ****     *accel_percent = (int16) (i2c_buf[COMMANDED_ACCELERATION_BASE + 1] << 8) | i2c_buf[COMMANDED_AC
 182              		.loc 1 122 0
 183 0000 034A     		ldr	r2, .L17
 184 0002 5379     		ldrb	r3, [r2, #5]
 185 0004 1B02     		lsl	r3, r3, #8
 186 0006 1279     		ldrb	r2, [r2, #4]
 187 0008 1343     		orr	r3, r2
 188 000a 0380     		strh	r3, [r0]
 123:..\source/i2c.c **** }
 189              		.loc 1 123 0
 190              		@ sp needed
 191 000c 7047     		bx	lr
 192              	.L18:
 193 000e C046     		.align	2
 194              	.L17:
 195 0010 00000000 		.word	.LANCHOR0
 196              		.cfi_endproc
 197              	.LFE39:
 198              		.size	I2c_ReadAcceleration, .-I2c_ReadAcceleration
 199              		.section	.text.I2c_WriteCount,"ax",%progbits
 200              		.align	2
 201              		.global	I2c_WriteCount
 202              		.code	16
 203              		.thumb_func
 204              		.type	I2c_WriteCount, %function
 205              	I2c_WriteCount:
 206              	.LFB40:
 124:..\source/i2c.c **** 
 125:..\source/i2c.c **** void I2c_WriteCount(uint32 count)
 126:..\source/i2c.c **** {
 207              		.loc 1 126 0
 208              		.cfi_startproc
 209              	.LVL7:
 127:..\source/i2c.c ****     i2c_buf[MEASURED_COUNT_BASE] = (uint8) (count >> 24) & 0x000000ff;
 210              		.loc 1 127 0
 211 0000 020E     		lsr	r2, r0, #24
 212 0002 044B     		ldr	r3, .L20
 213 0004 1A72     		strb	r2, [r3, #8]
 128:..\source/i2c.c ****     i2c_buf[MEASURED_COUNT_BASE + 1] = (uint8) (count >> 16) & 0x000000ff;
 214              		.loc 1 128 0
ARM GAS  C:\Users\Tim\AppData\Local\Temp\ccHrFsGG.s 			page 7


 215 0006 020C     		lsr	r2, r0, #16
 216 0008 5A72     		strb	r2, [r3, #9]
 129:..\source/i2c.c ****     i2c_buf[MEASURED_COUNT_BASE + 2] = (uint8) (count >> 8) & 0x000000ff;
 217              		.loc 1 129 0
 218 000a 020A     		lsr	r2, r0, #8
 219 000c 9A72     		strb	r2, [r3, #10]
 130:..\source/i2c.c ****     i2c_buf[MEASURED_COUNT_BASE + 3] = (uint8) (count & 0x000000ff);
 220              		.loc 1 130 0
 221 000e D872     		strb	r0, [r3, #11]
 131:..\source/i2c.c **** }
 222              		.loc 1 131 0
 223              		@ sp needed
 224 0010 7047     		bx	lr
 225              	.L21:
 226 0012 C046     		.align	2
 227              	.L20:
 228 0014 00000000 		.word	.LANCHOR0
 229              		.cfi_endproc
 230              	.LFE40:
 231              		.size	I2c_WriteCount, .-I2c_WriteCount
 232              		.section	.text.I2c_WriteVelocity,"ax",%progbits
 233              		.align	2
 234              		.global	I2c_WriteVelocity
 235              		.code	16
 236              		.thumb_func
 237              		.type	I2c_WriteVelocity, %function
 238              	I2c_WriteVelocity:
 239              	.LFB41:
 132:..\source/i2c.c **** 
 133:..\source/i2c.c **** void I2c_WriteVelocity(int16 velocity_percent)
 134:..\source/i2c.c **** {
 240              		.loc 1 134 0
 241              		.cfi_startproc
 242              	.LVL8:
 135:..\source/i2c.c ****     i2c_buf[MEASURED_VELOCITY_BASE] = (uint8) (velocity_percent >> 8) & 0x00ff;
 243              		.loc 1 135 0
 244 0000 0212     		asr	r2, r0, #8
 245 0002 024B     		ldr	r3, .L23
 246 0004 1A73     		strb	r2, [r3, #12]
 136:..\source/i2c.c ****     i2c_buf[MEASURED_VELOCITY_BASE + 1] = (uint8) velocity_percent & 0x00ff;
 247              		.loc 1 136 0
 248 0006 5873     		strb	r0, [r3, #13]
 137:..\source/i2c.c **** }
 249              		.loc 1 137 0
 250              		@ sp needed
 251 0008 7047     		bx	lr
 252              	.L24:
 253 000a C046     		.align	2
 254              	.L23:
 255 000c 00000000 		.word	.LANCHOR0
 256              		.cfi_endproc
 257              	.LFE41:
 258              		.size	I2c_WriteVelocity, .-I2c_WriteVelocity
 259              		.section	.text.I2c_WriteUltrasonicDistance,"ax",%progbits
 260              		.align	2
 261              		.global	I2c_WriteUltrasonicDistance
 262              		.code	16
ARM GAS  C:\Users\Tim\AppData\Local\Temp\ccHrFsGG.s 			page 8


 263              		.thumb_func
 264              		.type	I2c_WriteUltrasonicDistance, %function
 265              	I2c_WriteUltrasonicDistance:
 266              	.LFB42:
 138:..\source/i2c.c **** 
 139:..\source/i2c.c **** void I2c_WriteUltrasonicDistance(uint8 offset, uint16 distance)
 140:..\source/i2c.c **** {
 267              		.loc 1 140 0
 268              		.cfi_startproc
 269              	.LVL9:
 270 0000 10B5     		push	{r4, lr}
 271              		.cfi_def_cfa_offset 8
 272              		.cfi_offset 4, -8
 273              		.cfi_offset 14, -4
 141:..\source/i2c.c ****     uint8 index = offset * sizeof(distance);
 274              		.loc 1 141 0
 275 0002 4000     		lsl	r0, r0, #1
 276              	.LVL10:
 277 0004 C0B2     		uxtb	r0, r0
 278              	.LVL11:
 142:..\source/i2c.c ****     i2c_buf[ULTRASONIC_DISTANCE_BASE + index] = (distance >> 8) & 0x00ff;
 279              		.loc 1 142 0
 280 0006 021C     		mov	r2, r0
 281 0008 0E32     		add	r2, r2, #14
 282 000a 034B     		ldr	r3, .L26
 283 000c 0C0A     		lsr	r4, r1, #8
 284 000e 9C54     		strb	r4, [r3, r2]
 143:..\source/i2c.c ****     i2c_buf[ULTRASONIC_DISTANCE_BASE + index + 1] = distance & 0x00ff;
 285              		.loc 1 143 0
 286 0010 0F30     		add	r0, r0, #15
 287              	.LVL12:
 288 0012 1954     		strb	r1, [r3, r0]
 144:..\source/i2c.c **** }
 289              		.loc 1 144 0
 290              		@ sp needed
 291 0014 10BD     		pop	{r4, pc}
 292              	.L27:
 293 0016 C046     		.align	2
 294              	.L26:
 295 0018 00000000 		.word	.LANCHOR0
 296              		.cfi_endproc
 297              	.LFE42:
 298              		.size	I2c_WriteUltrasonicDistance, .-I2c_WriteUltrasonicDistance
 299              		.section	.text.I2c_WriteInfraredDistance,"ax",%progbits
 300              		.align	2
 301              		.global	I2c_WriteInfraredDistance
 302              		.code	16
 303              		.thumb_func
 304              		.type	I2c_WriteInfraredDistance, %function
 305              	I2c_WriteInfraredDistance:
 306              	.LFB43:
 145:..\source/i2c.c **** 
 146:..\source/i2c.c **** void I2c_WriteInfraredDistance(uint8 offset, uint8 distance)
 147:..\source/i2c.c **** {
 307              		.loc 1 147 0
 308              		.cfi_startproc
 309              	.LVL13:
ARM GAS  C:\Users\Tim\AppData\Local\Temp\ccHrFsGG.s 			page 9


 148:..\source/i2c.c ****     i2c_buf[INFRARED_DISTANCE_BASE + offset] = distance;
 310              		.loc 1 148 0
 311 0000 1630     		add	r0, r0, #22
 312              	.LVL14:
 313 0002 014B     		ldr	r3, .L29
 314 0004 1954     		strb	r1, [r3, r0]
 149:..\source/i2c.c **** }
 315              		.loc 1 149 0
 316              		@ sp needed
 317 0006 7047     		bx	lr
 318              	.L30:
 319              		.align	2
 320              	.L29:
 321 0008 00000000 		.word	.LANCHOR0
 322              		.cfi_endproc
 323              	.LFE43:
 324              		.size	I2c_WriteInfraredDistance, .-I2c_WriteInfraredDistance
 325              		.section	.text.I2c_WriteTest,"ax",%progbits
 326              		.align	2
 327              		.global	I2c_WriteTest
 328              		.code	16
 329              		.thumb_func
 330              		.type	I2c_WriteTest, %function
 331              	I2c_WriteTest:
 332              	.LFB44:
 150:..\source/i2c.c **** 
 151:..\source/i2c.c **** void I2c_WriteTest()
 152:..\source/i2c.c **** {
 333              		.loc 1 152 0
 334              		.cfi_startproc
 335 0000 08B5     		push	{r3, lr}
 336              		.cfi_def_cfa_offset 8
 337              		.cfi_offset 3, -8
 338              		.cfi_offset 14, -4
 153:..\source/i2c.c ****     static uint32 last_time = 0;
 154:..\source/i2c.c ****     static uint8 test_count = 1;
 155:..\source/i2c.c ****     
 156:..\source/i2c.c ****     if (millis() - last_time > 1000)
 339              		.loc 1 156 0
 340 0002 FFF7FEFF 		bl	millis
 341              	.LVL15:
 342 0006 084B     		ldr	r3, .L33
 343 0008 DB69     		ldr	r3, [r3, #28]
 344 000a C01A     		sub	r0, r0, r3
 345 000c FA23     		mov	r3, #250
 346 000e 9B00     		lsl	r3, r3, #2
 347 0010 9842     		cmp	r0, r3
 348 0012 08D9     		bls	.L31
 157:..\source/i2c.c ****     {
 158:..\source/i2c.c ****         last_time = millis();
 349              		.loc 1 158 0
 350 0014 FFF7FEFF 		bl	millis
 351              	.LVL16:
 352 0018 034B     		ldr	r3, .L33
 353 001a D861     		str	r0, [r3, #28]
 159:..\source/i2c.c ****         i2c_buf[TEST_BASE] = test_count++;
 354              		.loc 1 159 0
ARM GAS  C:\Users\Tim\AppData\Local\Temp\ccHrFsGG.s 			page 10


 355 001c 0349     		ldr	r1, .L33+4
 356 001e 0A78     		ldrb	r2, [r1]
 357 0020 501C     		add	r0, r2, #1
 358 0022 0870     		strb	r0, [r1]
 359 0024 9A75     		strb	r2, [r3, #22]
 360              	.L31:
 160:..\source/i2c.c ****     }
 161:..\source/i2c.c **** }
 361              		.loc 1 161 0
 362              		@ sp needed
 363 0026 08BD     		pop	{r3, pc}
 364              	.L34:
 365              		.align	2
 366              	.L33:
 367 0028 00000000 		.word	.LANCHOR0
 368 002c 00000000 		.word	.LANCHOR1
 369              		.cfi_endproc
 370              	.LFE44:
 371              		.size	I2c_WriteTest, .-I2c_WriteTest
 372              		.data
 373              		.set	.LANCHOR1,. + 0
 374              		.type	test_count.6127, %object
 375              		.size	test_count.6127, 1
 376              	test_count.6127:
 377 0000 01       		.byte	1
 378              		.bss
 379              		.align	2
 380              		.set	.LANCHOR0,. + 0
 381              		.type	i2c_buf, %object
 382              		.size	i2c_buf, 25
 383              	i2c_buf:
 384 0000 00000000 		.space	25
 384      00000000 
 384      00000000 
 384      00000000 
 384      00000000 
 385 0019 000000   		.space	3
 386              		.type	last_time.6126, %object
 387              		.size	last_time.6126, 4
 388              	last_time.6126:
 389 001c 00000000 		.space	4
 390              		.text
 391              	.Letext0:
 392              		.file 2 "Generated_Source\\PSoC4/cytypes.h"
 393              		.file 3 "Generated_Source\\PSoC4/EZI2C_EZI2C.h"
 394              		.file 4 "Generated_Source\\PSoC4/EZI2C.h"
 395              		.file 5 "..\\source\\time.h"