ARM GAS  C:\Users\Tim\AppData\Local\Temp\ccdZDAgB.s 			page 1


   1              		.cpu cortex-m0
   2              		.fpu softvfp
   3              		.eabi_attribute 20, 1
   4              		.eabi_attribute 21, 1
   5              		.eabi_attribute 23, 3
   6              		.eabi_attribute 24, 1
   7              		.eabi_attribute 25, 1
   8              		.eabi_attribute 26, 1
   9              		.eabi_attribute 30, 1
  10              		.eabi_attribute 34, 0
  11              		.eabi_attribute 18, 4
  12              		.code	16
  13              		.file	"main.c"
  14              		.text
  15              	.Ltext0:
  16              		.cfi_sections	.debug_frame
  17              		.section	.text.main,"ax",%progbits
  18              		.align	2
  19              		.global	main
  20              		.code	16
  21              		.thumb_func
  22              		.type	main, %function
  23              	main:
  24              	.LFB34:
  25              		.file 1 "..\\source\\main.c"
   1:..\source/main.c **** /* ========================================
   2:..\source/main.c ****  *
   3:..\source/main.c ****  * Copyright YOUR COMPANY, THE YEAR
   4:..\source/main.c ****  * All Rights Reserved
   5:..\source/main.c ****  * UNPUBLISHED, LICENSED SOFTWARE.
   6:..\source/main.c ****  *
   7:..\source/main.c ****  * CONFIDENTIAL AND PROPRIETARY INFORMATION
   8:..\source/main.c ****  * WHICH IS THE PROPERTY OF your company.
   9:..\source/main.c ****  *
  10:..\source/main.c ****  * ========================================
  11:..\source/main.c **** */
  12:..\source/main.c **** #include <stdio.h>
  13:..\source/main.c **** #include <project.h>
  14:..\source/main.c **** #include "control.h"
  15:..\source/main.c **** #include "i2c.h"
  16:..\source/main.c **** #include "pid.h"
  17:..\source/main.c **** #include "encoder.h"
  18:..\source/main.c **** #include "motor.h"
  19:..\source/main.c **** #include "ultrasonic.h"
  20:..\source/main.c **** #include "infrared.h"
  21:..\source/main.c **** #include "time.h"
  22:..\source/main.c **** #include "debug.h"
  23:..\source/main.c **** 
  24:..\source/main.c **** #define MAX_MILLIMETERS_PER_SECOND (1000)
  25:..\source/main.c **** #define MIN_MILLIMETERS_PER_SECOND (-1000)
  26:..\source/main.c **** 
  27:..\source/main.c **** static int16 velocity_cmd;
  28:..\source/main.c **** static uint32 last_time;
  29:..\source/main.c **** static uint32 enc_count;
  30:..\source/main.c **** static uint16 meas_velocity;
  31:..\source/main.c **** 
  32:..\source/main.c **** int main()
ARM GAS  C:\Users\Tim\AppData\Local\Temp\ccdZDAgB.s 			page 2


  33:..\source/main.c **** {       
  26              		.loc 1 33 0
  27              		.cfi_startproc
  28 0000 30B5     		push	{r4, r5, lr}
  29              		.cfi_def_cfa_offset 12
  30              		.cfi_offset 4, -12
  31              		.cfi_offset 5, -8
  32              		.cfi_offset 14, -4
  33 0002 87B0     		sub	sp, sp, #28
  34              		.cfi_def_cfa_offset 40
  34:..\source/main.c **** 
  35:..\source/main.c ****     CyGlobalIntEnable;      /* Enable global interrupts */
  35              		.loc 1 35 0
  36              	@ 35 "..\source\main.c" 1
  37 0004 62B6     		CPSIE   i
  38              	@ 0 "" 2
  36:..\source/main.c ****     
  37:..\source/main.c ****     /* Start this right away so that we debug as soon as possible */
  38:..\source/main.c ****     Debug_Init();
  39              		.loc 1 38 0
  40              		.code	16
  41 0006 FFF7FEFF 		bl	Debug_Init
  42              	.LVL0:
  39:..\source/main.c ****     Debug_Start();
  43              		.loc 1 39 0
  44 000a FFF7FEFF 		bl	Debug_Start
  45              	.LVL1:
  40:..\source/main.c ****     
  41:..\source/main.c ****     Control_Init();
  46              		.loc 1 41 0
  47 000e FFF7FEFF 		bl	Control_Init
  48              	.LVL2:
  42:..\source/main.c ****     Time_Init();
  49              		.loc 1 42 0
  50 0012 FFF7FEFF 		bl	Time_Init
  51              	.LVL3:
  43:..\source/main.c ****     I2c_Init();
  52              		.loc 1 43 0
  53 0016 FFF7FEFF 		bl	I2c_Init
  54              	.LVL4:
  44:..\source/main.c ****     Encoder_Init();
  55              		.loc 1 44 0
  56 001a FFF7FEFF 		bl	Encoder_Init
  57              	.LVL5:
  45:..\source/main.c ****     Motor_Init();
  58              		.loc 1 45 0
  59 001e FFF7FEFF 		bl	Motor_Init
  60              	.LVL6:
  46:..\source/main.c **** 
  47:..\source/main.c ****     Time_Start();
  61              		.loc 1 47 0
  62 0022 FFF7FEFF 		bl	Time_Start
  63              	.LVL7:
  48:..\source/main.c ****     I2c_Start();
  64              		.loc 1 48 0
  65 0026 FFF7FEFF 		bl	I2c_Start
  66              	.LVL8:
ARM GAS  C:\Users\Tim\AppData\Local\Temp\ccdZDAgB.s 			page 3


  49:..\source/main.c ****     Encoder_Start();
  67              		.loc 1 49 0
  68 002a FFF7FEFF 		bl	Encoder_Start
  69              	.LVL9:
  50:..\source/main.c ****     Motor_Start();
  70              		.loc 1 50 0
  71 002e FFF7FEFF 		bl	Motor_Start
  72              	.LVL10:
  51:..\source/main.c ****     
  52:..\source/main.c ****     Control_Start();
  73              		.loc 1 52 0
  74 0032 FFF7FEFF 		bl	Control_Start
  75              	.LVL11:
  76              	.L2:
  53:..\source/main.c ****     
  54:..\source/main.c ****     for(;;)
  55:..\source/main.c ****     {
  56:..\source/main.c **** #ifdef MOTOR_TEST
  57:..\source/main.c ****         MotorTestDrive();
  58:..\source/main.c **** #endif
  59:..\source/main.c ****         
  60:..\source/main.c ****         I2c_ReadVelocity(&velocity_cmd);
  77              		.loc 1 60 0
  78 0036 1A4C     		ldr	r4, .L3
  79 0038 201C     		mov	r0, r4
  80 003a FFF7FEFF 		bl	I2c_ReadVelocity
  81              	.LVL12:
  61:..\source/main.c ****         
  62:..\source/main.c ****         Encoder_Update();
  82              		.loc 1 62 0
  83 003e FFF7FEFF 		bl	Encoder_Update
  84              	.LVL13:
  63:..\source/main.c ****         PID_Update(velocity_cmd);
  85              		.loc 1 63 0
  86 0042 0023     		mov	r3, #0
  87 0044 E05E     		ldrsh	r0, [r4, r3]
  88 0046 FFF7FEFF 		bl	PID_Update
  89              	.LVL14:
  64:..\source/main.c ****         
  65:..\source/main.c ****         enc_count = Encoder_GetCount();
  90              		.loc 1 65 0
  91 004a FFF7FEFF 		bl	Encoder_GetCount
  92              	.LVL15:
  93 004e 6060     		str	r0, [r4, #4]
  66:..\source/main.c ****         meas_velocity = Encoder_GetVelocity();
  94              		.loc 1 66 0
  95 0050 FFF7FEFF 		bl	Encoder_GetVelocity
  96              	.LVL16:
  97 0054 80B2     		uxth	r0, r0
  98 0056 2081     		strh	r0, [r4, #8]
  67:..\source/main.c ****         DEBUG_PRINT(0, "CV: %d, EC: %ld, MV: %d\n\r", velocity_cmd, enc_count, meas_velocity);
  99              		.loc 1 67 0
 100 0058 124D     		ldr	r5, .L3+4
 101 005a 134B     		ldr	r3, .L3+8
 102 005c 0093     		str	r3, [sp]
 103 005e 4323     		mov	r3, #67
 104 0060 0193     		str	r3, [sp, #4]
ARM GAS  C:\Users\Tim\AppData\Local\Temp\ccdZDAgB.s 			page 4


 105 0062 0022     		mov	r2, #0
 106 0064 A35E     		ldrsh	r3, [r4, r2]
 107 0066 0293     		str	r3, [sp, #8]
 108 0068 6368     		ldr	r3, [r4, #4]
 109 006a 0393     		str	r3, [sp, #12]
 110 006c 0490     		str	r0, [sp, #16]
 111 006e 281C     		mov	r0, r5
 112 0070 8021     		mov	r1, #128
 113 0072 4900     		lsl	r1, r1, #1
 114 0074 0D4A     		ldr	r2, .L3+12
 115 0076 0E4B     		ldr	r3, .L3+16
 116 0078 FFF7FEFF 		bl	snprintf
 117              	.LVL17:
 118 007c 281C     		mov	r0, r5
 119 007e FFF7FEFF 		bl	UART_Debug_UartPutString
 120              	.LVL18:
  68:..\source/main.c **** 
  69:..\source/main.c ****         I2c_WriteCount(enc_count);
 121              		.loc 1 69 0
 122 0082 6068     		ldr	r0, [r4, #4]
 123 0084 FFF7FEFF 		bl	I2c_WriteCount
 124              	.LVL19:
  70:..\source/main.c ****         I2c_WriteVelocity(meas_velocity);
 125              		.loc 1 70 0
 126 0088 0823     		mov	r3, #8
 127 008a E05E     		ldrsh	r0, [r4, r3]
 128 008c FFF7FEFF 		bl	I2c_WriteVelocity
 129              	.LVL20:
  71:..\source/main.c **** 
  72:..\source/main.c ****         Infrared_Measure();
 130              		.loc 1 72 0
 131 0090 FFF7FEFF 		bl	Infrared_Measure
 132              	.LVL21:
  73:..\source/main.c ****         Ultrasonic_Measure();
 133              		.loc 1 73 0
 134 0094 FFF7FEFF 		bl	Ultrasonic_Measure
 135              	.LVL22:
  74:..\source/main.c ****         Control_Update();        
 136              		.loc 1 74 0
 137 0098 FFF7FEFF 		bl	Control_Update
 138              	.LVL23:
  75:..\source/main.c ****     }
 139              		.loc 1 75 0
 140 009c CBE7     		b	.L2
 141              	.L4:
 142 009e C046     		.align	2
 143              	.L3:
 144 00a0 00000000 		.word	.LANCHOR0
 145 00a4 00000000 		.word	formatted_string
 146 00a8 00000000 		.word	.LANCHOR1
 147 00ac 00000000 		.word	.LC2
 148 00b0 40000000 		.word	.LC4
 149              		.cfi_endproc
 150              	.LFE34:
 151              		.size	main, .-main
 152              		.comm	formatted_string,256,4
 153              		.section	.rodata
ARM GAS  C:\Users\Tim\AppData\Local\Temp\ccdZDAgB.s 			page 5


 154              		.align	2
 155              		.set	.LANCHOR1,. + 0
 156              		.type	__func__.6758, %object
 157              		.size	__func__.6758, 5
 158              	__func__.6758:
 159 0000 6D61696E 		.ascii	"main\000"
 159      00
 160 0005 000000   		.section	.rodata.str1.4,"aMS",%progbits,1
 161              		.align	2
 162              	.LC2:
 163 0000 5B46494C 		.ascii	"[FILE : %s, FUNC : %s, LINE : %d]: CV: %d, EC: %ld,"
 163      45203A20 
 163      25732C20 
 163      46554E43 
 163      203A2025 
 164 0033 204D563A 		.ascii	" MV: %d\012\015\000"
 164      2025640A 
 164      0D00
 165 003d 000000   		.space	3
 166              	.LC4:
 167 0040 2E2E5C73 		.ascii	"..\\source\\main.c\000"
 167      6F757263 
 167      655C6D61 
 167      696E2E63 
 167      00
 168 0051 000000   		.bss
 169              		.align	2
 170              		.set	.LANCHOR0,. + 0
 171              		.type	velocity_cmd, %object
 172              		.size	velocity_cmd, 2
 173              	velocity_cmd:
 174 0000 0000     		.space	2
 175 0002 0000     		.space	2
 176              		.type	enc_count, %object
 177              		.size	enc_count, 4
 178              	enc_count:
 179 0004 00000000 		.space	4
 180              		.type	meas_velocity, %object
 181              		.size	meas_velocity, 2
 182              	meas_velocity:
 183 0008 0000     		.space	2
 184 000a 0000     		.text
 185              	.Letext0:
 186              		.file 2 "c:\\program files (x86)\\cypress\\psoc creator\\3.3\\psoc creator\\import\\gnu\\arm\\4.9.
 187              		.file 3 "Generated_Source\\PSoC4/cytypes.h"
 188              		.file 4 "..\\source\\debug.h"
 189              		.file 5 "..\\source\\control.h"
 190              		.file 6 "..\\source\\time.h"
 191              		.file 7 "..\\source\\i2c.h"
 192              		.file 8 "..\\source\\encoder.h"
 193              		.file 9 "..\\source\\motor.h"
 194              		.file 10 "..\\source\\pid.h"
 195              		.file 11 "Generated_Source\\PSoC4/UART_Debug_SPI_UART.h"
 196              		.file 12 "..\\source\\infrared.h"
 197              		.file 13 "..\\source\\ultrasonic.h"
 198              		.file 14 "c:\\program files (x86)\\cypress\\psoc creator\\3.3\\psoc creator\\import\\gnu\\arm\\4.9