ARM GAS  C:\Users\Tim\AppData\Local\Temp\ccWNDvpa.s 			page 1


   1              		.cpu cortex-m0
   2              		.fpu softvfp
   3              		.eabi_attribute 20, 1
   4              		.eabi_attribute 21, 1
   5              		.eabi_attribute 23, 3
   6              		.eabi_attribute 24, 1
   7              		.eabi_attribute 25, 1
   8              		.eabi_attribute 26, 1
   9              		.eabi_attribute 30, 1
  10              		.eabi_attribute 34, 0
  11              		.eabi_attribute 18, 4
  12              		.code	16
  13              		.file	"motor.c"
  14              		.text
  15              	.Ltext0:
  16              		.cfi_sections	.debug_frame
  17              		.section	.text.Motor_Init,"ax",%progbits
  18              		.align	2
  19              		.global	Motor_Init
  20              		.code	16
  21              		.thumb_func
  22              		.type	Motor_Init, %function
  23              	Motor_Init:
  24              	.LFB34:
  25              		.file 1 "..\\source\\motor.c"
   1:..\source/motor.c **** /* ========================================
   2:..\source/motor.c ****  *
   3:..\source/motor.c ****  * Copyright YOUR COMPANY, THE YEAR
   4:..\source/motor.c ****  * All Rights Reserved
   5:..\source/motor.c ****  * UNPUBLISHED, LICENSED SOFTWARE.
   6:..\source/motor.c ****  *
   7:..\source/motor.c ****  * CONFIDENTIAL AND PROPRIETARY INFORMATION
   8:..\source/motor.c ****  * WHICH IS THE PROPERTY OF your company.
   9:..\source/motor.c ****  *
  10:..\source/motor.c ****  * ========================================
  11:..\source/motor.c **** */
  12:..\source/motor.c **** 
  13:..\source/motor.c **** #include "motor.h"
  14:..\source/motor.c **** #include "utils.h"
  15:..\source/motor.c **** #include "debug.h"
  16:..\source/motor.c **** #include "hwconfig.h"
  17:..\source/motor.c **** 
  18:..\source/motor.c **** /* Add a link to the HB25 data sheet
  19:..\source/motor.c ****    Ref:
  20:..\source/motor.c ****  */
  21:..\source/motor.c **** 
  22:..\source/motor.c **** #define HB25_ENABLE_BIT (0)
  23:..\source/motor.c **** #define HB25_PWM_BIT (1)
  24:..\source/motor.c **** #define HB25_ENABLE (0)
  25:..\source/motor.c **** #define HB25_DISABLE (1)
  26:..\source/motor.c **** 
  27:..\source/motor.c **** #define MIN_PWM_COUNT (800)
  28:..\source/motor.c **** #define CNTR_PWM_COUNT (1500)
  29:..\source/motor.c **** #define MAX_PWM_COUNT (2200)
  30:..\source/motor.c **** 
  31:..\source/motor.c **** #define PWM_PADDING (200)
  32:..\source/motor.c **** 
ARM GAS  C:\Users\Tim\AppData\Local\Temp\ccWNDvpa.s 			page 2


  33:..\source/motor.c **** #define REVERSE_PWM_COUNT (MAX_PWM_COUNT - PWM_PADDING)
  34:..\source/motor.c **** #define STOP_PWM_COUNT (CNTR_PWM_COUNT)
  35:..\source/motor.c **** #define FORWARD_PWM_COUNT (MIN_PWM_COUNT + PWM_PADDING)
  36:..\source/motor.c **** 
  37:..\source/motor.c **** #define MOTOR_DRIVE_ABSOLUTE_VALUE (100)
  38:..\source/motor.c **** #define MIN_MOTOR_DRIVE (-MOTOR_DRIVE_ABSOLUTE_VALUE)
  39:..\source/motor.c **** #define MAX_MOTOR_DRIVE (+MOTOR_DRIVE_ABSOLUTE_VALUE)
  40:..\source/motor.c **** #define MID_VALUE (0)
  41:..\source/motor.c **** 
  42:..\source/motor.c **** #define MOTOR_RANGE (2 * MOTOR_DRIVE_ABSOLUTE_VALUE)
  43:..\source/motor.c **** #define PWM_RANGE   (REVERSE_PWM_COUNT - FORWARD_PWM_COUNT)
  44:..\source/motor.c **** //#define COUNT_RESOLUTION ((REVERSE_PWM_COUNT - FORWARD_PWM_COUNT)/MOTOR_RANGE)
  45:..\source/motor.c **** 
  46:..\source/motor.c **** /*
  47:..\source/motor.c ****     Recommendation by Parallax:
  48:..\source/motor.c **** 
  49:..\source/motor.c ****     Safe Power-Up and Power-Down
  50:..\source/motor.c ****     Remember, because the HB-25 responds to pulses like a servo, changing states on your microcontr
  51:..\source/motor.c ****     I/O pins at startup and shutdown can affect the HB-25 and set it into an unintended state. This
  52:..\source/motor.c ****     the I/O pins changing between input and output as well as between output high and output low.
  53:..\source/motor.c ****     If your microcontroller is powered up or powered down while the HB-25 is powered up, the
  54:..\source/motor.c ****     HB-25 could receive a false trigger. To prevent this, use one of the following options:
  55:..\source/motor.c ****     • Most reliable option:
  56:..\source/motor.c ****     1. Power the microcontroller up first, using code that forces the program to wait until the
  57:..\source/motor.c ****     HB-25 is powered up before sending pulses. Code examples are provided below.
  58:..\source/motor.c ****     2. Power up the HB-25 for operation.
  59:..\source/motor.c ****     3. When shutting down your application, cut off power to the HB-25 first.
  60:..\source/motor.c ****     4. Power down your microcontroller last.
  61:..\source/motor.c ****     • Or, power the HB-25 and the microcontroller at the same time using a double-post (dual-circ
  62:..\source/motor.c ****     switch.
  63:..\source/motor.c ****     • If there is the possibility that the HB-25 will be on before your microcontroller, use the 
  64:..\source/motor.c ****     code as mentioned above to ensure that the HB-25 is properly initialized when the
  65:..\source/motor.c ****     microcontroller is powered on. The I/O line connected to the HB-25 should be made LOW either
  66:..\source/motor.c ****     before or immediately after the HB-25 powers up. If this does not happen the HB-25 may fail to
  67:..\source/motor.c ****     respond to incoming pulses.
  68:..\source/motor.c ****     If your application poses any potential safety risk and you need the HB-25 to shut off the moto
  69:..\source/motor.c ****     the microcontroller has lost power or has malfunctioned, enable the Timeout Feature described b
  70:..\source/motor.c ****     before operation.
  71:..\source/motor.c **** 
  72:..\source/motor.c ****  */
  73:..\source/motor.c **** 
  74:..\source/motor.c **** void Motor_Init()
  75:..\source/motor.c **** {
  26              		.loc 1 75 0
  27              		.cfi_startproc
  28 0000 08B5     		push	{r3, lr}
  29              		.cfi_def_cfa_offset 8
  30              		.cfi_offset 3, -8
  31              		.cfi_offset 14, -4
  76:..\source/motor.c ****     HB25_Enable_Pin_Write(HB25_DISABLE);
  32              		.loc 1 76 0
  33 0002 0120     		mov	r0, #1
  34 0004 FFF7FEFF 		bl	HB25_Enable_Pin_Write
  35              	.LVL0:
  77:..\source/motor.c **** }
  36              		.loc 1 77 0
  37              		@ sp needed
ARM GAS  C:\Users\Tim\AppData\Local\Temp\ccWNDvpa.s 			page 3


  38 0008 08BD     		pop	{r3, pc}
  39              		.cfi_endproc
  40              	.LFE34:
  41              		.size	Motor_Init, .-Motor_Init
  42              		.section	.text.Motor_Start,"ax",%progbits
  43              		.align	2
  44              		.global	Motor_Start
  45              		.code	16
  46              		.thumb_func
  47              		.type	Motor_Start, %function
  48              	Motor_Start:
  49              	.LFB35:
  78:..\source/motor.c **** 
  79:..\source/motor.c **** void Motor_Start()
  80:..\source/motor.c **** {
  50              		.loc 1 80 0
  51              		.cfi_startproc
  52 0000 08B5     		push	{r3, lr}
  53              		.cfi_def_cfa_offset 8
  54              		.cfi_offset 3, -8
  55              		.cfi_offset 14, -4
  81:..\source/motor.c ****     /* Enable the power on the HB-25 motor 
  82:..\source/motor.c ****        Note: The HB-25 has a specific initialization sequence that is handled in hardware.  All tha
  83:..\source/motor.c ****        software is to enable power to the HB-25 motor controller and start the PWM.  The PWM will b
  84:..\source/motor.c ****        HB-25 signal pin when initialization completes.
  85:..\source/motor.c ****      */
  86:..\source/motor.c ****     HB25_Enable_Pin_Write(HB25_ENABLE);    
  56              		.loc 1 86 0
  57 0002 0020     		mov	r0, #0
  58 0004 FFF7FEFF 		bl	HB25_Enable_Pin_Write
  59              	.LVL1:
  87:..\source/motor.c ****     HB25_PWM_Start();
  60              		.loc 1 87 0
  61 0008 FFF7FEFF 		bl	HB25_PWM_Start
  62              	.LVL2:
  88:..\source/motor.c **** }
  63              		.loc 1 88 0
  64              		@ sp needed
  65 000c 08BD     		pop	{r3, pc}
  66              		.cfi_endproc
  67              	.LFE35:
  68              		.size	Motor_Start, .-Motor_Start
  69              		.global	__aeabi_idiv
  70 000e C046     		.section	.rodata.cst2,"aM",%progbits,2
  71              		.align	1
  72              	.LC0:
  73 0000 2003     		.short	800
  74              		.section	.text.Motor_SetOutput,"ax",%progbits
  75              		.align	2
  76              		.global	Motor_SetOutput
  77              		.code	16
  78              		.thumb_func
  79              		.type	Motor_SetOutput, %function
  80              	Motor_SetOutput:
  81              	.LFB36:
  89:..\source/motor.c **** 
  90:..\source/motor.c **** void Motor_SetOutput(int16 value)
ARM GAS  C:\Users\Tim\AppData\Local\Temp\ccWNDvpa.s 			page 4


  91:..\source/motor.c **** /* Incoming value units are millimeter per second.  It must be scaled to PWM range
  92:..\source/motor.c ****  */
  93:..\source/motor.c **** {
  82              		.loc 1 93 0
  83              		.cfi_startproc
  84              	.LVL3:
  85 0000 08B5     		push	{r3, lr}
  86              		.cfi_def_cfa_offset 8
  87              		.cfi_offset 3, -8
  88              		.cfi_offset 14, -4
  94:..\source/motor.c ****     uint16 pwm_compare;
  95:..\source/motor.c ****     int32 scaled_value;
  96:..\source/motor.c ****     
  97:..\source/motor.c ****     scaled_value = scale_integer(value, SPEED_RANGE, PWM_RANGE);    
  89              		.loc 1 97 0
  90 0002 FA23     		mov	r3, #250
  91 0004 9B00     		lsl	r3, r3, #2
  92 0006 5843     		mul	r0, r3
  93              	.LVL4:
  94 0008 FA21     		mov	r1, #250
  95 000a C900     		lsl	r1, r1, #3
  96 000c FFF7FEFF 		bl	__aeabi_idiv
  97              	.LVL5:
  98:..\source/motor.c ****     pwm_compare = constrain((uint16) (STOP_PWM_COUNT + scaled_value), (uint16) MIN_PWM_COUNT, (uint
  98              		.loc 1 98 0
  99 0010 80B2     		uxth	r0, r0
 100              	.LVL6:
 101 0012 0B4B     		ldr	r3, .L7
 102 0014 C318     		add	r3, r0, r3
 103 0016 9BB2     		uxth	r3, r3
 104 0018 0A4A     		ldr	r2, .L7+4
 105 001a 9342     		cmp	r3, r2
 106 001c 0CD9     		bls	.L6
 107              		.loc 1 98 0 is_stmt 0 discriminator 1
 108 001e 0A4B     		ldr	r3, .L7+8
 109 0020 9C46     		mov	ip, r3
 110 0022 6044     		add	r0, r0, ip
 111 0024 80B2     		uxth	r0, r0
 112 0026 031C     		add	r3, r0, #0
 113 0028 C822     		mov	r2, #200
 114 002a 9200     		lsl	r2, r2, #2
 115 002c 9042     		cmp	r0, r2
 116 002e 01D2     		bcs	.L5
 117 0030 064B     		ldr	r3, .L7+12
 118 0032 1B88     		ldrh	r3, [r3]
 119              	.L5:
 120 0034 98B2     		uxth	r0, r3
 121 0036 00E0     		b	.L4
 122              	.L6:
 123              		.loc 1 98 0
 124 0038 0548     		ldr	r0, .L7+16
 125              	.L4:
 126              	.LVL7:
  99:..\source/motor.c ****     
 100:..\source/motor.c ****     //COMMS_DEBUG_PRINT(0, "v: %d, s: %ld, p: %d\n\r", value, scaled_value, pwm_compare);
 101:..\source/motor.c ****     
 102:..\source/motor.c ****     HB25_PWM_WriteCompare(pwm_compare);
ARM GAS  C:\Users\Tim\AppData\Local\Temp\ccWNDvpa.s 			page 5


 127              		.loc 1 102 0 is_stmt 1 discriminator 4
 128 003a FFF7FEFF 		bl	HB25_PWM_WriteCompare
 129              	.LVL8:
 103:..\source/motor.c **** }
 130              		.loc 1 103 0 discriminator 4
 131              		@ sp needed
 132 003e 08BD     		pop	{r3, pc}
 133              	.L8:
 134              		.align	2
 135              	.L7:
 136 0040 44FDFFFF 		.word	-700
 137 0044 67F70000 		.word	63335
 138 0048 DC050000 		.word	1500
 139 004c 00000000 		.word	.LC0
 140 0050 98080000 		.word	2200
 141              		.cfi_endproc
 142              	.LFE36:
 143              		.size	Motor_SetOutput, .-Motor_SetOutput
 144              		.section	.text.Motor_Stop,"ax",%progbits
 145              		.align	2
 146              		.global	Motor_Stop
 147              		.code	16
 148              		.thumb_func
 149              		.type	Motor_Stop, %function
 150              	Motor_Stop:
 151              	.LFB37:
 104:..\source/motor.c **** 
 105:..\source/motor.c **** void Motor_Stop()
 106:..\source/motor.c **** {
 152              		.loc 1 106 0
 153              		.cfi_startproc
 107:..\source/motor.c ****     /* Reverse sequence to start:
 108:..\source/motor.c ****         - Stop the PWM
 109:..\source/motor.c ****         - Disable power to the HB-25
 110:..\source/motor.c ****      */
 111:..\source/motor.c ****     //HB25_PWM_Stop();
 112:..\source/motor.c ****     //HB25_Enable_Pin_Write(HB25_DISABLE);
 113:..\source/motor.c **** }
 154              		.loc 1 113 0
 155              		@ sp needed
 156 0000 7047     		bx	lr
 157              		.cfi_endproc
 158              	.LFE37:
 159              		.size	Motor_Stop, .-Motor_Stop
 160 0002 C046     		.section	.text.Motor_Test,"ax",%progbits
 161              		.align	2
 162              		.global	Motor_Test
 163              		.code	16
 164              		.thumb_func
 165              		.type	Motor_Test, %function
 166              	Motor_Test:
 167              	.LFB38:
 114:..\source/motor.c **** 
 115:..\source/motor.c **** void Motor_Test()
 116:..\source/motor.c **** {
 168              		.loc 1 116 0
 169              		.cfi_startproc
ARM GAS  C:\Users\Tim\AppData\Local\Temp\ccWNDvpa.s 			page 6


 117:..\source/motor.c **** }
 170              		.loc 1 117 0
 171              		@ sp needed
 172 0000 7047     		bx	lr
 173              		.cfi_endproc
 174              	.LFE38:
 175              		.size	Motor_Test, .-Motor_Test
 176              		.comm	formatted_string,256,4
 177 0002 C046     		.text
 178              	.Letext0:
 179              		.file 2 "Generated_Source\\PSoC4/cytypes.h"
 180              		.file 3 "..\\source\\debug.h"
 181              		.file 4 "Generated_Source\\PSoC4/HB25_PWM.h"