ARM GAS  C:\Users\Tim\AppData\Local\Temp\cczx40Ss.s 			page 1


   1              		.cpu cortex-m0
   2              		.fpu softvfp
   3              		.eabi_attribute 20, 1
   4              		.eabi_attribute 21, 1
   5              		.eabi_attribute 23, 3
   6              		.eabi_attribute 24, 1
   7              		.eabi_attribute 25, 1
   8              		.eabi_attribute 26, 1
   9              		.eabi_attribute 30, 1
  10              		.eabi_attribute 34, 0
  11              		.eabi_attribute 18, 4
  12              		.code	16
  13              		.file	"rpii2c.c"
  14              		.text
  15              	.Ltext0:
  16              		.cfi_sections	.debug_frame
  17              		.section	.text.RpiI2c_Init,"ax",%progbits
  18              		.align	2
  19              		.global	RpiI2c_Init
  20              		.code	16
  21              		.thumb_func
  22              		.type	RpiI2c_Init, %function
  23              	RpiI2c_Init:
  24              	.LFB34:
  25              		.file 1 "..\\source\\rpii2c.c"
   1:..\source/rpii2c.c **** /* ========================================
   2:..\source/rpii2c.c ****  *
   3:..\source/rpii2c.c ****  * Copyright YOUR COMPANY, THE YEAR
   4:..\source/rpii2c.c ****  * All Rights Reserved
   5:..\source/rpii2c.c ****  * UNPUBLISHED, LICENSED SOFTWARE.
   6:..\source/rpii2c.c ****  *
   7:..\source/rpii2c.c ****  * CONFIDENTIAL AND PROPRIETARY INFORMATION
   8:..\source/rpii2c.c ****  * WHICH IS THE PROPERTY OF your company.
   9:..\source/rpii2c.c ****  *
  10:..\source/rpii2c.c ****  * ========================================
  11:..\source/rpii2c.c **** */
  12:..\source/rpii2c.c **** 
  13:..\source/rpii2c.c **** #include "rpii2c.h"
  14:..\source/rpii2c.c **** 
  15:..\source/rpii2c.c **** #define LEFT_BOARD_I2C_ADDRESS (0x08)
  16:..\source/rpii2c.c **** #define RIGHT_BOARD_I2C_ADDRESS (0x09)
  17:..\source/rpii2c.c **** 
  18:..\source/rpii2c.c **** /*
  19:..\source/rpii2c.c ****     Buffer Layout
  20:..\source/rpii2c.c **** 
  21:..\source/rpii2c.c ****     offset     num bytes      description
  22:..\source/rpii2c.c ****       00           2        [control register]
  23:..\source/rpii2c.c ****       02           2       [commanded velocity]
  24:..\source/rpii2c.c ****       04           2        [commanded accel]
  25:..\source/rpii2c.c ****     ------------------------------ Read/Write Boundary
  26:..\source/rpii2c.c ****       06           4         [measured count]
  27:..\source/rpii2c.c ****       10           2        [measured velocity]
  28:..\source/rpii2c.c ****       12          16       [ultrasonic distance]
  29:..\source/rpii2c.c ****       28          16        [infrared distance]
  30:..\source/rpii2c.c ****       44        [empty]
  31:..\source/rpii2c.c ****  */
  32:..\source/rpii2c.c **** 
ARM GAS  C:\Users\Tim\AppData\Local\Temp\cczx40Ss.s 			page 2


  33:..\source/rpii2c.c **** #define I2C_BUFFER_BASE (0)
  34:..\source/rpii2c.c **** #define I2C_READ_WRITE_OFFSET (I2C_BUFFER_BASE)
  35:..\source/rpii2c.c **** 
  36:..\source/rpii2c.c **** #define CONTROL_BASE (I2C_READ_WRITE_OFFSET)
  37:..\source/rpii2c.c **** #define CONTROL_SIZE (2)
  38:..\source/rpii2c.c **** 
  39:..\source/rpii2c.c **** #define COMMANDED_VELOCITY_BASE (CONTROL_BASE + CONTROL_SIZE)
  40:..\source/rpii2c.c **** #define COMMANDED_VELOCITY_SIZE (2)
  41:..\source/rpii2c.c **** 
  42:..\source/rpii2c.c **** #define COMMANDED_ACCELERATION_BASE (COMMANDED_VELOCITY_BASE + COMMANDED_VELOCITY_SIZE)
  43:..\source/rpii2c.c **** #define COMMANDED_ACCELERATION_SIZE (2)
  44:..\source/rpii2c.c **** 
  45:..\source/rpii2c.c **** /* The read/write size is the number of bytes (starting from the beginning of the buffer
  46:..\source/rpii2c.c ****    that the master can write to.  The master can always read from the entire buffer
  47:..\source/rpii2c.c ****  */
  48:..\source/rpii2c.c **** #define I2C_READ_WRITE_SIZE (CONTROL_SIZE + COMMANDED_VELOCITY_SIZE + COMMANDED_ACCELERATION_SIZE)
  49:..\source/rpii2c.c **** #define I2C_READ_ONLY_OFFSET (I2C_READ_WRITE_OFFSET + I2C_READ_WRITE_SIZE)
  50:..\source/rpii2c.c **** 
  51:..\source/rpii2c.c **** 
  52:..\source/rpii2c.c **** #define MEASURED_COUNT_BASE (I2C_READ_ONLY_OFFSET)
  53:..\source/rpii2c.c **** #define MEASURED_COUNT_SIZE (4)
  54:..\source/rpii2c.c **** 
  55:..\source/rpii2c.c **** #define MEASURED_VELOCITY_BASE (MEASURED_COUNT_BASE + MEASURED_COUNT_SIZE)
  56:..\source/rpii2c.c **** #define MEASURED_VELOCITY_SIZE (2)
  57:..\source/rpii2c.c **** 
  58:..\source/rpii2c.c **** #define ULTRASONIC_DISTANCE_BASE (MEASURED_VELOCITY_BASE + MEASURED_VELOCITY_SIZE)
  59:..\source/rpii2c.c **** #define ULTRASONIC_DISTANCE_SIZE (16 * sizeof(uint16))
  60:..\source/rpii2c.c **** 
  61:..\source/rpii2c.c **** #define INFRARED_DISTANCE_BASE (ULTRASONIC_DISTANCE_BASE + ULTRASONIC_DISTANCE_SIZE)
  62:..\source/rpii2c.c **** #define INFRARED_DISTANCE_SIZE (16 * sizeof(uint16))
  63:..\source/rpii2c.c **** 
  64:..\source/rpii2c.c **** #define I2C_READ_ONLY_SIZE (MEASURED_VELOCITY_SIZE + ULTRASONIC_DISTANCE_SIZE + INFRARED_DISTANCE_S
  65:..\source/rpii2c.c **** 
  66:..\source/rpii2c.c **** #define BUFFER_SIZE (I2C_READ_WRITE_SIZE + I2C_READ_ONLY_SIZE)
  67:..\source/rpii2c.c **** 
  68:..\source/rpii2c.c **** static uint8 i2c_buf[BUFFER_SIZE];
  69:..\source/rpii2c.c **** 
  70:..\source/rpii2c.c **** 
  71:..\source/rpii2c.c **** void RpiI2c_Init()
  72:..\source/rpii2c.c **** {
  26              		.loc 1 72 0
  27              		.cfi_startproc
  28 0000 08B5     		push	{r3, lr}
  29              		.cfi_def_cfa_offset 8
  30              		.cfi_offset 3, -8
  31              		.cfi_offset 14, -4
  73:..\source/rpii2c.c ****     memset( i2c_buf, 0, sizeof(i2c_buf));
  32              		.loc 1 73 0
  33 0002 0348     		ldr	r0, .L2
  34 0004 0021     		mov	r1, #0
  35 0006 4822     		mov	r2, #72
  36 0008 FFF7FEFF 		bl	memset
  37              	.LVL0:
  74:..\source/rpii2c.c **** }
  38              		.loc 1 74 0
  39              		@ sp needed
  40 000c 08BD     		pop	{r3, pc}
ARM GAS  C:\Users\Tim\AppData\Local\Temp\cczx40Ss.s 			page 3


  41              	.L3:
  42 000e C046     		.align	2
  43              	.L2:
  44 0010 00000000 		.word	.LANCHOR0
  45              		.cfi_endproc
  46              	.LFE34:
  47              		.size	RpiI2c_Init, .-RpiI2c_Init
  48              		.section	.text.RpiI2c_Start,"ax",%progbits
  49              		.align	2
  50              		.global	RpiI2c_Start
  51              		.code	16
  52              		.thumb_func
  53              		.type	RpiI2c_Start, %function
  54              	RpiI2c_Start:
  55              	.LFB35:
  75:..\source/rpii2c.c **** 
  76:..\source/rpii2c.c **** void RpiI2c_Start()
  77:..\source/rpii2c.c **** {
  56              		.loc 1 77 0
  57              		.cfi_startproc
  58 0000 08B5     		push	{r3, lr}
  59              		.cfi_def_cfa_offset 8
  60              		.cfi_offset 3, -8
  61              		.cfi_offset 14, -4
  78:..\source/rpii2c.c **** #ifdef LEFT_BOARD    
  79:..\source/rpii2c.c ****     //EZI2C_EzI2CSetAddress1(LEFT_BOARD_I2C_ADDRESS);
  80:..\source/rpii2c.c **** #else /* RIGHT_BOARD */
  81:..\source/rpii2c.c ****     EZI2C_EzI2CSetAddress1(RIGHT_BOARD_I2C_ADDRESS);
  82:..\source/rpii2c.c **** #endif
  83:..\source/rpii2c.c ****     EZI2C_Start();
  62              		.loc 1 83 0
  63 0002 FFF7FEFF 		bl	EZI2C_Start
  64              	.LVL1:
  84:..\source/rpii2c.c ****     
  85:..\source/rpii2c.c ****     EZI2C_EzI2CSetBuffer1(sizeof(i2c_buf), I2C_READ_WRITE_SIZE, i2c_buf);
  65              		.loc 1 85 0
  66 0006 4820     		mov	r0, #72
  67 0008 0621     		mov	r1, #6
  68 000a 024A     		ldr	r2, .L5
  69 000c FFF7FEFF 		bl	EZI2C_EzI2CSetBuffer1
  70              	.LVL2:
  86:..\source/rpii2c.c **** }
  71              		.loc 1 86 0
  72              		@ sp needed
  73 0010 08BD     		pop	{r3, pc}
  74              	.L6:
  75 0012 C046     		.align	2
  76              	.L5:
  77 0014 00000000 		.word	.LANCHOR0
  78              		.cfi_endproc
  79              	.LFE35:
  80              		.size	RpiI2c_Start, .-RpiI2c_Start
  81              		.section	.text.RpiI2c_ReadControl,"ax",%progbits
  82              		.align	2
  83              		.global	RpiI2c_ReadControl
  84              		.code	16
  85              		.thumb_func
ARM GAS  C:\Users\Tim\AppData\Local\Temp\cczx40Ss.s 			page 4


  86              		.type	RpiI2c_ReadControl, %function
  87              	RpiI2c_ReadControl:
  88              	.LFB36:
  87:..\source/rpii2c.c **** 
  88:..\source/rpii2c.c **** uint16 RpiI2c_ReadControl()
  89:..\source/rpii2c.c **** {
  89              		.loc 1 89 0
  90              		.cfi_startproc
  90:..\source/rpii2c.c ****     //return (uint16) (i2c_buf[CONTROL_BASE] << 8) | i2c_buf[CONTROL_BASE + 1];
  91:..\source/rpii2c.c ****     return 0x0003;
  92:..\source/rpii2c.c **** }
  91              		.loc 1 92 0
  92 0000 0320     		mov	r0, #3
  93              		@ sp needed
  94 0002 7047     		bx	lr
  95              		.cfi_endproc
  96              	.LFE36:
  97              		.size	RpiI2c_ReadControl, .-RpiI2c_ReadControl
  98              		.section	.text.RpiI2c_ReadVelocity,"ax",%progbits
  99              		.align	2
 100              		.global	RpiI2c_ReadVelocity
 101              		.code	16
 102              		.thumb_func
 103              		.type	RpiI2c_ReadVelocity, %function
 104              	RpiI2c_ReadVelocity:
 105              	.LFB37:
  93:..\source/rpii2c.c **** 
  94:..\source/rpii2c.c **** void RpiI2c_ReadVelocity(int16* velocity_percent)
  95:..\source/rpii2c.c **** {
 106              		.loc 1 95 0
 107              		.cfi_startproc
 108              	.LVL3:
  96:..\source/rpii2c.c ****     *velocity_percent = (int16) (i2c_buf[COMMANDED_VELOCITY_BASE] << 8) | i2c_buf[COMMANDED_VELOCIT
 109              		.loc 1 96 0
 110 0000 034A     		ldr	r2, .L9
 111 0002 9378     		ldrb	r3, [r2, #2]
 112 0004 1B02     		lsl	r3, r3, #8
 113 0006 D278     		ldrb	r2, [r2, #3]
 114 0008 1343     		orr	r3, r2
 115 000a 0380     		strh	r3, [r0]
  97:..\source/rpii2c.c **** }
 116              		.loc 1 97 0
 117              		@ sp needed
 118 000c 7047     		bx	lr
 119              	.L10:
 120 000e C046     		.align	2
 121              	.L9:
 122 0010 00000000 		.word	.LANCHOR0
 123              		.cfi_endproc
 124              	.LFE37:
 125              		.size	RpiI2c_ReadVelocity, .-RpiI2c_ReadVelocity
 126              		.section	.text.RpiI2c_ReadAcceleration,"ax",%progbits
 127              		.align	2
 128              		.global	RpiI2c_ReadAcceleration
 129              		.code	16
 130              		.thumb_func
 131              		.type	RpiI2c_ReadAcceleration, %function
ARM GAS  C:\Users\Tim\AppData\Local\Temp\cczx40Ss.s 			page 5


 132              	RpiI2c_ReadAcceleration:
 133              	.LFB38:
  98:..\source/rpii2c.c **** 
  99:..\source/rpii2c.c **** void RpiI2c_ReadAcceleration(int16* accel_percent)
 100:..\source/rpii2c.c **** {
 134              		.loc 1 100 0
 135              		.cfi_startproc
 136              	.LVL4:
 101:..\source/rpii2c.c ****     *accel_percent = (int16) (i2c_buf[COMMANDED_ACCELERATION_BASE] << 8) | i2c_buf[COMMANDED_ACCELE
 137              		.loc 1 101 0
 138 0000 034A     		ldr	r2, .L12
 139 0002 1379     		ldrb	r3, [r2, #4]
 140 0004 1B02     		lsl	r3, r3, #8
 141 0006 5279     		ldrb	r2, [r2, #5]
 142 0008 1343     		orr	r3, r2
 143 000a 0380     		strh	r3, [r0]
 102:..\source/rpii2c.c **** }
 144              		.loc 1 102 0
 145              		@ sp needed
 146 000c 7047     		bx	lr
 147              	.L13:
 148 000e C046     		.align	2
 149              	.L12:
 150 0010 00000000 		.word	.LANCHOR0
 151              		.cfi_endproc
 152              	.LFE38:
 153              		.size	RpiI2c_ReadAcceleration, .-RpiI2c_ReadAcceleration
 154              		.section	.text.RpiI2c_WriteCount,"ax",%progbits
 155              		.align	2
 156              		.global	RpiI2c_WriteCount
 157              		.code	16
 158              		.thumb_func
 159              		.type	RpiI2c_WriteCount, %function
 160              	RpiI2c_WriteCount:
 161              	.LFB39:
 103:..\source/rpii2c.c **** 
 104:..\source/rpii2c.c **** void RpiI2c_WriteCount(uint32 count)
 105:..\source/rpii2c.c **** {
 162              		.loc 1 105 0
 163              		.cfi_startproc
 164              	.LVL5:
 106:..\source/rpii2c.c ****     i2c_buf[MEASURED_COUNT_BASE] = (uint8) (count >> 24) & 0x000000ff;
 165              		.loc 1 106 0
 166 0000 020E     		lsr	r2, r0, #24
 167 0002 044B     		ldr	r3, .L15
 168 0004 9A71     		strb	r2, [r3, #6]
 107:..\source/rpii2c.c ****     i2c_buf[MEASURED_COUNT_BASE + 1] = (uint8) (count >> 16) & 0x000000ff;
 169              		.loc 1 107 0
 170 0006 020C     		lsr	r2, r0, #16
 171 0008 DA71     		strb	r2, [r3, #7]
 108:..\source/rpii2c.c ****     i2c_buf[MEASURED_COUNT_BASE + 2] = (uint8) (count >> 8) & 0x000000ff;
 172              		.loc 1 108 0
 173 000a 020A     		lsr	r2, r0, #8
 174 000c 1A72     		strb	r2, [r3, #8]
 109:..\source/rpii2c.c ****     i2c_buf[MEASURED_COUNT_BASE + 3] = (uint8) (count & 0x000000ff);
 175              		.loc 1 109 0
 176 000e 5872     		strb	r0, [r3, #9]
ARM GAS  C:\Users\Tim\AppData\Local\Temp\cczx40Ss.s 			page 6


 110:..\source/rpii2c.c **** }
 177              		.loc 1 110 0
 178              		@ sp needed
 179 0010 7047     		bx	lr
 180              	.L16:
 181 0012 C046     		.align	2
 182              	.L15:
 183 0014 00000000 		.word	.LANCHOR0
 184              		.cfi_endproc
 185              	.LFE39:
 186              		.size	RpiI2c_WriteCount, .-RpiI2c_WriteCount
 187              		.section	.text.RpiI2c_WriteVelocity,"ax",%progbits
 188              		.align	2
 189              		.global	RpiI2c_WriteVelocity
 190              		.code	16
 191              		.thumb_func
 192              		.type	RpiI2c_WriteVelocity, %function
 193              	RpiI2c_WriteVelocity:
 194              	.LFB40:
 111:..\source/rpii2c.c **** 
 112:..\source/rpii2c.c **** void RpiI2c_WriteVelocity(int16 velocity_percent)
 113:..\source/rpii2c.c **** {
 195              		.loc 1 113 0
 196              		.cfi_startproc
 197              	.LVL6:
 114:..\source/rpii2c.c ****     i2c_buf[MEASURED_VELOCITY_BASE] = (uint8) (velocity_percent >> 8) & 0x00ff;
 198              		.loc 1 114 0
 199 0000 0212     		asr	r2, r0, #8
 200 0002 024B     		ldr	r3, .L18
 201 0004 9A72     		strb	r2, [r3, #10]
 115:..\source/rpii2c.c ****     i2c_buf[MEASURED_VELOCITY_BASE + 1] = (uint8) velocity_percent & 0x00ff;
 202              		.loc 1 115 0
 203 0006 D872     		strb	r0, [r3, #11]
 116:..\source/rpii2c.c **** }
 204              		.loc 1 116 0
 205              		@ sp needed
 206 0008 7047     		bx	lr
 207              	.L19:
 208 000a C046     		.align	2
 209              	.L18:
 210 000c 00000000 		.word	.LANCHOR0
 211              		.cfi_endproc
 212              	.LFE40:
 213              		.size	RpiI2c_WriteVelocity, .-RpiI2c_WriteVelocity
 214              		.section	.text.RpiI2c_WriteUltrasonicDistance,"ax",%progbits
 215              		.align	2
 216              		.global	RpiI2c_WriteUltrasonicDistance
 217              		.code	16
 218              		.thumb_func
 219              		.type	RpiI2c_WriteUltrasonicDistance, %function
 220              	RpiI2c_WriteUltrasonicDistance:
 221              	.LFB41:
 117:..\source/rpii2c.c **** 
 118:..\source/rpii2c.c **** void RpiI2c_WriteUltrasonicDistance(uint16 distance, uint8 offset)
 119:..\source/rpii2c.c **** {
 222              		.loc 1 119 0
 223              		.cfi_startproc
ARM GAS  C:\Users\Tim\AppData\Local\Temp\cczx40Ss.s 			page 7


 224              	.LVL7:
 225 0000 10B5     		push	{r4, lr}
 226              		.cfi_def_cfa_offset 8
 227              		.cfi_offset 4, -8
 228              		.cfi_offset 14, -4
 120:..\source/rpii2c.c ****     uint8 index = offset * sizeof(distance);
 229              		.loc 1 120 0
 230 0002 4900     		lsl	r1, r1, #1
 231              	.LVL8:
 232 0004 C9B2     		uxtb	r1, r1
 233              	.LVL9:
 121:..\source/rpii2c.c ****     i2c_buf[ULTRASONIC_DISTANCE_BASE + index] = (distance >> 8) & 0x00ff;
 234              		.loc 1 121 0
 235 0006 0A1C     		mov	r2, r1
 236 0008 0C32     		add	r2, r2, #12
 237 000a 034B     		ldr	r3, .L21
 238 000c 040A     		lsr	r4, r0, #8
 239 000e 9C54     		strb	r4, [r3, r2]
 122:..\source/rpii2c.c ****     i2c_buf[ULTRASONIC_DISTANCE_BASE + index + 1] = distance & 0x00ff;
 240              		.loc 1 122 0
 241 0010 0D31     		add	r1, r1, #13
 242              	.LVL10:
 243 0012 5854     		strb	r0, [r3, r1]
 123:..\source/rpii2c.c **** }
 244              		.loc 1 123 0
 245              		@ sp needed
 246 0014 10BD     		pop	{r4, pc}
 247              	.L22:
 248 0016 C046     		.align	2
 249              	.L21:
 250 0018 00000000 		.word	.LANCHOR0
 251              		.cfi_endproc
 252              	.LFE41:
 253              		.size	RpiI2c_WriteUltrasonicDistance, .-RpiI2c_WriteUltrasonicDistance
 254              		.section	.text.RpiI2c_WriteInfraredDistance,"ax",%progbits
 255              		.align	2
 256              		.global	RpiI2c_WriteInfraredDistance
 257              		.code	16
 258              		.thumb_func
 259              		.type	RpiI2c_WriteInfraredDistance, %function
 260              	RpiI2c_WriteInfraredDistance:
 261              	.LFB42:
 124:..\source/rpii2c.c **** 
 125:..\source/rpii2c.c **** void RpiI2c_WriteInfraredDistance(uint16 distance, uint8 offset)
 126:..\source/rpii2c.c **** {
 262              		.loc 1 126 0
 263              		.cfi_startproc
 264              	.LVL11:
 265 0000 10B5     		push	{r4, lr}
 266              		.cfi_def_cfa_offset 8
 267              		.cfi_offset 4, -8
 268              		.cfi_offset 14, -4
 127:..\source/rpii2c.c ****     uint8 index = offset * sizeof(distance);
 269              		.loc 1 127 0
 270 0002 4900     		lsl	r1, r1, #1
 271              	.LVL12:
 272 0004 C9B2     		uxtb	r1, r1
ARM GAS  C:\Users\Tim\AppData\Local\Temp\cczx40Ss.s 			page 8


 273              	.LVL13:
 128:..\source/rpii2c.c ****     i2c_buf[INFRARED_DISTANCE_BASE + index] = (distance >> 8) & 0x00ff;
 274              		.loc 1 128 0
 275 0006 0A1C     		mov	r2, r1
 276 0008 2C32     		add	r2, r2, #44
 277 000a 034B     		ldr	r3, .L24
 278 000c 040A     		lsr	r4, r0, #8
 279 000e 9C54     		strb	r4, [r3, r2]
 129:..\source/rpii2c.c ****     i2c_buf[INFRARED_DISTANCE_BASE + index + 1] = distance & 0x00ff;
 280              		.loc 1 129 0
 281 0010 2D31     		add	r1, r1, #45
 282              	.LVL14:
 283 0012 5854     		strb	r0, [r3, r1]
 130:..\source/rpii2c.c **** }
 284              		.loc 1 130 0
 285              		@ sp needed
 286 0014 10BD     		pop	{r4, pc}
 287              	.L25:
 288 0016 C046     		.align	2
 289              	.L24:
 290 0018 00000000 		.word	.LANCHOR0
 291              		.cfi_endproc
 292              	.LFE42:
 293              		.size	RpiI2c_WriteInfraredDistance, .-RpiI2c_WriteInfraredDistance
 294              		.bss
 295              		.align	2
 296              		.set	.LANCHOR0,. + 0
 297              		.type	i2c_buf, %object
 298              		.size	i2c_buf, 72
 299              	i2c_buf:
 300 0000 00000000 		.space	72
 300      00000000 
 300      00000000 
 300      00000000 
 300      00000000 
 301              		.text
 302              	.Letext0:
 303              		.file 2 "Generated_Source\\PSoC4/cytypes.h"
 304              		.file 3 "Generated_Source\\PSoC4/EZI2C.h"
 305              		.file 4 "Generated_Source\\PSoC4/EZI2C_EZI2C.h"