ARM GAS  C:\Users\Tim\AppData\Local\Temp\ccfWeTlQ.s 			page 1


   1              		.cpu cortex-m0
   2              		.fpu softvfp
   3              		.eabi_attribute 20, 1
   4              		.eabi_attribute 21, 1
   5              		.eabi_attribute 23, 3
   6              		.eabi_attribute 24, 1
   7              		.eabi_attribute 25, 1
   8              		.eabi_attribute 26, 1
   9              		.eabi_attribute 30, 1
  10              		.eabi_attribute 34, 0
  11              		.eabi_attribute 18, 4
  12              		.code	16
  13              		.file	"boardmain.c"
  14              		.text
  15              	.Ltext0:
  16              		.cfi_sections	.debug_frame
  17              		.section	.text.OnOffInterruptHandler,"ax",%progbits
  18              		.align	2
  19              		.global	OnOffInterruptHandler
  20              		.code	16
  21              		.thumb_func
  22              		.type	OnOffInterruptHandler, %function
  23              	OnOffInterruptHandler:
  24              	.LFB34:
  25              		.file 1 "..\\source\\boardmain.c"
   1:..\source/boardmain.c **** /* ========================================
   2:..\source/boardmain.c ****  *
   3:..\source/boardmain.c ****  * Copyright YOUR COMPANY, THE YEAR
   4:..\source/boardmain.c ****  * All Rights Reserved
   5:..\source/boardmain.c ****  * UNPUBLISHED, LICENSED SOFTWARE.
   6:..\source/boardmain.c ****  *
   7:..\source/boardmain.c ****  * CONFIDENTIAL AND PROPRIETARY INFORMATION
   8:..\source/boardmain.c ****  * WHICH IS THE PROPERTY OF your company.
   9:..\source/boardmain.c ****  *
  10:..\source/boardmain.c ****  * ========================================
  11:..\source/boardmain.c **** */
  12:..\source/boardmain.c **** #include <stdio.h>
  13:..\source/boardmain.c **** #include <project.h>
  14:..\source/boardmain.c **** #include "control.h"
  15:..\source/boardmain.c **** #include "i2c.h"
  16:..\source/boardmain.c **** #include "pid.h"
  17:..\source/boardmain.c **** #include "encoder.h"
  18:..\source/boardmain.c **** #include "motor.h"
  19:..\source/boardmain.c **** #include "ultrasonic.h"
  20:..\source/boardmain.c **** #include "infrared.h"
  21:..\source/boardmain.c **** #include "time.h"
  22:..\source/boardmain.c **** #include "debug.h"
  23:..\source/boardmain.c **** 
  24:..\source/boardmain.c **** #define MAX_MILLIMETERS_PER_SECOND (1000)
  25:..\source/boardmain.c **** #define MIN_MILLIMETERS_PER_SECOND (-1000)
  26:..\source/boardmain.c **** 
  27:..\source/boardmain.c **** CY_ISR(OnOffInterruptHandler)
  28:..\source/boardmain.c **** {
  26              		.loc 1 28 0
  27              		.cfi_startproc
  28 0000 08B5     		push	{r3, lr}
  29              		.cfi_def_cfa_offset 8
ARM GAS  C:\Users\Tim\AppData\Local\Temp\ccfWeTlQ.s 			page 2


  30              		.cfi_offset 3, -8
  31              		.cfi_offset 14, -4
  29:..\source/boardmain.c ****     OnOff_Detect_Pin_ClearInterrupt();
  32              		.loc 1 29 0
  33 0002 FFF7FEFF 		bl	OnOff_Detect_Pin_ClearInterrupt
  34              	.LVL0:
  30:..\source/boardmain.c ****     
  31:..\source/boardmain.c ****     I2c_WriteStatus(STATUS_ONOFF_DETECT_BIT);
  35              		.loc 1 31 0
  36 0006 0220     		mov	r0, #2
  37 0008 FFF7FEFF 		bl	I2c_WriteStatus
  38              	.LVL1:
  32:..\source/boardmain.c **** }
  39              		.loc 1 32 0
  40              		@ sp needed
  41 000c 08BD     		pop	{r3, pc}
  42              		.cfi_endproc
  43              	.LFE34:
  44              		.size	OnOffInterruptHandler, .-OnOffInterruptHandler
  45 000e C046     		.section	.text.main,"ax",%progbits
  46              		.align	2
  47              		.global	main
  48              		.code	16
  49              		.thumb_func
  50              		.type	main, %function
  51              	main:
  52              	.LFB35:
  33:..\source/boardmain.c **** 
  34:..\source/boardmain.c **** int main()
  35:..\source/boardmain.c **** {       
  53              		.loc 1 35 0
  54              		.cfi_startproc
  55 0000 08B5     		push	{r3, lr}
  56              		.cfi_def_cfa_offset 8
  57              		.cfi_offset 3, -8
  58              		.cfi_offset 14, -4
  36:..\source/boardmain.c ****     CyGlobalIntEnable;      /* Enable global interrupts */
  59              		.loc 1 36 0
  60              	@ 36 "..\source\boardmain.c" 1
  61 0002 62B6     		CPSIE   i
  62              	@ 0 "" 2
  37:..\source/boardmain.c ****     
  38:..\source/boardmain.c ****     /* Start this right away so that we debug as soon as possible */
  39:..\source/boardmain.c ****     Debug_Init();
  63              		.loc 1 39 0
  64              		.code	16
  65 0004 FFF7FEFF 		bl	Debug_Init
  66              	.LVL2:
  40:..\source/boardmain.c ****     Debug_Start();
  67              		.loc 1 40 0
  68 0008 FFF7FEFF 		bl	Debug_Start
  69              	.LVL3:
  41:..\source/boardmain.c ****         
  42:..\source/boardmain.c ****     Control_Init();
  70              		.loc 1 42 0
  71 000c FFF7FEFF 		bl	Control_Init
  72              	.LVL4:
ARM GAS  C:\Users\Tim\AppData\Local\Temp\ccfWeTlQ.s 			page 3


  43:..\source/boardmain.c ****     Time_Init();
  73              		.loc 1 43 0
  74 0010 FFF7FEFF 		bl	Time_Init
  75              	.LVL5:
  44:..\source/boardmain.c ****     I2c_Init();
  76              		.loc 1 44 0
  77 0014 FFF7FEFF 		bl	I2c_Init
  78              	.LVL6:
  45:..\source/boardmain.c ****     Encoder_Init();
  79              		.loc 1 45 0
  80 0018 FFF7FEFF 		bl	Encoder_Init
  81              	.LVL7:
  46:..\source/boardmain.c ****     Motor_Init();
  82              		.loc 1 46 0
  83 001c FFF7FEFF 		bl	Motor_Init
  84              	.LVL8:
  47:..\source/boardmain.c **** 
  48:..\source/boardmain.c ****     Time_Start();
  85              		.loc 1 48 0
  86 0020 FFF7FEFF 		bl	Time_Start
  87              	.LVL9:
  49:..\source/boardmain.c ****     I2c_Start();
  88              		.loc 1 49 0
  89 0024 FFF7FEFF 		bl	I2c_Start
  90              	.LVL10:
  50:..\source/boardmain.c ****     PID_Start();
  91              		.loc 1 50 0
  92 0028 FFF7FEFF 		bl	PID_Start
  93              	.LVL11:
  51:..\source/boardmain.c ****     Encoder_Start();    
  94              		.loc 1 51 0
  95 002c FFF7FEFF 		bl	Encoder_Start
  96              	.LVL12:
  52:..\source/boardmain.c ****     Motor_Start();
  97              		.loc 1 52 0
  98 0030 FFF7FEFF 		bl	Motor_Start
  99              	.LVL13:
  53:..\source/boardmain.c ****     
  54:..\source/boardmain.c ****     Control_Start();
 100              		.loc 1 54 0
 101 0034 FFF7FEFF 		bl	Control_Start
 102              	.LVL14:
  55:..\source/boardmain.c ****     
  56:..\source/boardmain.c ****     OnOff_Intr_StartEx(OnOffInterruptHandler);
 103              		.loc 1 56 0
 104 0038 0648     		ldr	r0, .L4
 105 003a FFF7FEFF 		bl	OnOff_Intr_StartEx
 106              	.LVL15:
 107              	.L3:
  57:..\source/boardmain.c **** 
  58:..\source/boardmain.c ****     for(;;)
  59:..\source/boardmain.c ****     {
  60:..\source/boardmain.c ****         /* Apply the velocity command to PID */
  61:..\source/boardmain.c ****         PID_Update();
 108              		.loc 1 61 0 discriminator 1
 109 003e FFF7FEFF 		bl	PID_Update
 110              	.LVL16:
ARM GAS  C:\Users\Tim\AppData\Local\Temp\ccfWeTlQ.s 			page 4


  62:..\source/boardmain.c ****         /* Update the encoder calculation */
  63:..\source/boardmain.c ****         Encoder_Update();
 111              		.loc 1 63 0 discriminator 1
 112 0042 FFF7FEFF 		bl	Encoder_Update
 113              	.LVL17:
  64:..\source/boardmain.c ****         /* Read the infrared sensors */
  65:..\source/boardmain.c ****         Infrared_Measure();
 114              		.loc 1 65 0 discriminator 1
 115 0046 FFF7FEFF 		bl	Infrared_Measure
 116              	.LVL18:
  66:..\source/boardmain.c ****         /* Read the ultrasonic sensors */
  67:..\source/boardmain.c ****         Ultrasonic_Measure();
 117              		.loc 1 67 0 discriminator 1
 118 004a FFF7FEFF 		bl	Ultrasonic_Measure
 119              	.LVL19:
  68:..\source/boardmain.c ****         /* Update any control changes */
  69:..\source/boardmain.c ****         Control_Update();
 120              		.loc 1 69 0 discriminator 1
 121 004e FFF7FEFF 		bl	Control_Update
 122              	.LVL20:
  70:..\source/boardmain.c ****     }
 123              		.loc 1 70 0 discriminator 1
 124 0052 F4E7     		b	.L3
 125              	.L5:
 126              		.align	2
 127              	.L4:
 128 0054 00000000 		.word	OnOffInterruptHandler
 129              		.cfi_endproc
 130              	.LFE35:
 131              		.size	main, .-main
 132              		.comm	formatted_string,256,4
 133              		.text
 134              	.Letext0:
 135              		.file 2 "Generated_Source\\PSoC4/cytypes.h"
 136              		.file 3 "..\\source\\debug.h"
 137              		.file 4 "..\\source\\control.h"
 138              		.file 5 "..\\source\\time.h"
 139              		.file 6 "..\\source\\i2c.h"
 140              		.file 7 "..\\source\\encoder.h"
 141              		.file 8 "..\\source\\motor.h"
 142              		.file 9 "..\\source\\pid.h"
 143              		.file 10 "Generated_Source\\PSoC4/OnOff_Intr.h"
 144              		.file 11 "..\\source\\infrared.h"
 145              		.file 12 "..\\source\\ultrasonic.h"
 146              		.file 13 "Generated_Source\\PSoC4/OnOff_Detect_Pin.h"