ARM GAS  C:\Users\Tim\AppData\Local\Temp\ccz2HcvD.s 			page 1


   1              		.cpu cortex-m0
   2              		.fpu softvfp
   3              		.eabi_attribute 20, 1
   4              		.eabi_attribute 21, 1
   5              		.eabi_attribute 23, 3
   6              		.eabi_attribute 24, 1
   7              		.eabi_attribute 25, 1
   8              		.eabi_attribute 26, 1
   9              		.eabi_attribute 30, 1
  10              		.eabi_attribute 34, 0
  11              		.eabi_attribute 18, 4
  12              		.code	16
  13              		.file	"control.c"
  14              		.text
  15              	.Ltext0:
  16              		.cfi_sections	.debug_frame
  17              		.section	.text.Control_Init,"ax",%progbits
  18              		.align	2
  19              		.global	Control_Init
  20              		.code	16
  21              		.thumb_func
  22              		.type	Control_Init, %function
  23              	Control_Init:
  24              	.LFB34:
  25              		.file 1 "..\\source\\control.c"
   1:..\source/control.c **** /* ========================================
   2:..\source/control.c ****  *
   3:..\source/control.c ****  * Copyright YOUR COMPANY, THE YEAR
   4:..\source/control.c ****  * All Rights Reserved
   5:..\source/control.c ****  * UNPUBLISHED, LICENSED SOFTWARE.
   6:..\source/control.c ****  *
   7:..\source/control.c ****  * CONFIDENTIAL AND PROPRIETARY INFORMATION
   8:..\source/control.c ****  * WHICH IS THE PROPERTY OF your company.
   9:..\source/control.c ****  *
  10:..\source/control.c ****  * ========================================
  11:..\source/control.c **** */
  12:..\source/control.c **** 
  13:..\source/control.c **** #include "control.h"
  14:..\source/control.c **** #include "i2c.h"
  15:..\source/control.c **** #include "encoder.h"
  16:..\source/control.c **** #include "motor.h"
  17:..\source/control.c **** #include "time.h"
  18:..\source/control.c **** 
  19:..\source/control.c **** /* The purpose of this module is to handle control changes to the system.
  20:..\source/control.c ****    The only thing considered at this point is shutting down the motors properly.
  21:..\source/control.c ****  */
  22:..\source/control.c **** 
  23:..\source/control.c **** #define POWER_ON_MOTOR (0x0001)
  24:..\source/control.c **** #define SPEED_TIMEOUT  (2000) // millisecond
  25:..\source/control.c **** 
  26:..\source/control.c **** static uint32 last_time;
  27:..\source/control.c **** 
  28:..\source/control.c **** void Control_Init()
  29:..\source/control.c **** {
  26              		.loc 1 29 0
  27              		.cfi_startproc
  28 0000 08B5     		push	{r3, lr}
ARM GAS  C:\Users\Tim\AppData\Local\Temp\ccz2HcvD.s 			page 2


  29              		.cfi_def_cfa_offset 8
  30              		.cfi_offset 3, -8
  31              		.cfi_offset 14, -4
  30:..\source/control.c ****     last_time = millis();
  32              		.loc 1 30 0
  33 0002 FFF7FEFF 		bl	millis
  34              	.LVL0:
  35 0006 014B     		ldr	r3, .L2
  36 0008 1860     		str	r0, [r3]
  31:..\source/control.c **** }
  37              		.loc 1 31 0
  38              		@ sp needed
  39 000a 08BD     		pop	{r3, pc}
  40              	.L3:
  41              		.align	2
  42              	.L2:
  43 000c 00000000 		.word	.LANCHOR0
  44              		.cfi_endproc
  45              	.LFE34:
  46              		.size	Control_Init, .-Control_Init
  47              		.section	.text.Control_Start,"ax",%progbits
  48              		.align	2
  49              		.global	Control_Start
  50              		.code	16
  51              		.thumb_func
  52              		.type	Control_Start, %function
  53              	Control_Start:
  54              	.LFB35:
  32:..\source/control.c **** 
  33:..\source/control.c **** void Control_Start()
  34:..\source/control.c **** {    
  55              		.loc 1 34 0
  56              		.cfi_startproc
  57 0000 08B5     		push	{r3, lr}
  58              		.cfi_def_cfa_offset 8
  59              		.cfi_offset 3, -8
  60              		.cfi_offset 14, -4
  35:..\source/control.c ****     /* Note: I'm not sure what to do here, was thinking that this could be a way to enabled/disable
  36:..\source/control.c ****     uint16 control = I2c_ReadControl();
  61              		.loc 1 36 0
  62 0002 FFF7FEFF 		bl	I2c_ReadControl
  63              	.LVL1:
  37:..\source/control.c **** }
  64              		.loc 1 37 0
  65              		@ sp needed
  66 0006 08BD     		pop	{r3, pc}
  67              		.cfi_endproc
  68              	.LFE35:
  69              		.size	Control_Start, .-Control_Start
  70              		.section	.text.Control_Update,"ax",%progbits
  71              		.align	2
  72              		.global	Control_Update
  73              		.code	16
  74              		.thumb_func
  75              		.type	Control_Update, %function
  76              	Control_Update:
  77              	.LFB36:
ARM GAS  C:\Users\Tim\AppData\Local\Temp\ccz2HcvD.s 			page 3


  38:..\source/control.c **** 
  39:..\source/control.c **** void Control_Update()
  40:..\source/control.c **** {
  78              		.loc 1 40 0
  79              		.cfi_startproc
  80 0000 10B5     		push	{r4, lr}
  81              		.cfi_def_cfa_offset 8
  82              		.cfi_offset 4, -8
  83              		.cfi_offset 14, -4
  41:..\source/control.c ****     uint8 motor_state;
  42:..\source/control.c ****     uint16 control;
  43:..\source/control.c ****     
  44:..\source/control.c ****     control = I2c_ReadControl();
  84              		.loc 1 44 0
  85 0002 FFF7FEFF 		bl	I2c_ReadControl
  86              	.LVL2:
  87 0006 041C     		mov	r4, r0
  88              	.LVL3:
  45:..\source/control.c ****     
  46:..\source/control.c ****     /* If a speed command hasn't been received within the given threshold, stop the motor
  47:..\source/control.c ****         
  48:..\source/control.c ****        Recommendation from Parallax:
  49:..\source/control.c ****         The HB-25 has a selectable Timeout mode. When this mode is enabled, the HB-25 will shut off
  50:..\source/control.c ****         after 4 seconds if it does not receive pulses from the microcontroller. Once the motor is s
  51:..\source/control.c ****         HB-25 receives a valid pulse again, it will restart the motor. Timeout mode should always b
  52:..\source/control.c ****         applications where a failure of your microcontroller could cause a dangerous situation or s
  53:..\source/control.c ****         potentially cause damage to your application. 
  54:..\source/control.c ****      */
  55:..\source/control.c ****     if ((millis() - last_time) > SPEED_TIMEOUT)
  89              		.loc 1 55 0
  90 0008 FFF7FEFF 		bl	millis
  91              	.LVL4:
  56:..\source/control.c ****     {
  57:..\source/control.c ****     //    Motor_SetOutput(0);
  58:..\source/control.c ****     }
  59:..\source/control.c ****     
  60:..\source/control.c ****     /* Along the same lines as Control_Start() this could be a way to disable or shutdown features,
  61:..\source/control.c ****        motor drivers or the motors via a relay */        
  62:..\source/control.c ****     
  63:..\source/control.c ****     motor_state = control & POWER_ON_MOTOR;
  64:..\source/control.c ****     if ( motor_state )
  92              		.loc 1 64 0
  93 000c E307     		lsl	r3, r4, #31
  94 000e 02D5     		bpl	.L6
  65:..\source/control.c ****     {
  66:..\source/control.c ****         Motor_Start();
  95              		.loc 1 66 0
  96 0010 FFF7FEFF 		bl	Motor_Start
  97              	.LVL5:
  98 0014 01E0     		b	.L5
  99              	.L6:
  67:..\source/control.c ****     }
  68:..\source/control.c ****     else
  69:..\source/control.c ****     {
  70:..\source/control.c ****         Motor_Stop();
 100              		.loc 1 70 0
 101 0016 FFF7FEFF 		bl	Motor_Stop
ARM GAS  C:\Users\Tim\AppData\Local\Temp\ccz2HcvD.s 			page 4


 102              	.LVL6:
 103              	.L5:
  71:..\source/control.c ****     }
  72:..\source/control.c ****     
  73:..\source/control.c **** }
 104              		.loc 1 73 0
 105              		@ sp needed
 106              	.LVL7:
 107 001a 10BD     		pop	{r4, pc}
 108              		.cfi_endproc
 109              	.LFE36:
 110              		.size	Control_Update, .-Control_Update
 111              		.bss
 112              		.align	2
 113              		.set	.LANCHOR0,. + 0
 114              		.type	last_time, %object
 115              		.size	last_time, 4
 116              	last_time:
 117 0000 00000000 		.space	4
 118              		.text
 119              	.Letext0:
 120              		.file 2 "Generated_Source\\PSoC4/cytypes.h"
 121              		.file 3 "..\\source\\time.h"
 122              		.file 4 "..\\source\\i2c.h"
 123              		.file 5 "..\\source\\motor.h"