ARM GAS  C:\Users\Tim\AppData\Local\Temp\cc0D5x6q.s 			page 1


   1              		.cpu cortex-m0
   2              		.fpu softvfp
   3              		.eabi_attribute 20, 1
   4              		.eabi_attribute 21, 1
   5              		.eabi_attribute 23, 3
   6              		.eabi_attribute 24, 1
   7              		.eabi_attribute 25, 1
   8              		.eabi_attribute 26, 1
   9              		.eabi_attribute 30, 1
  10              		.eabi_attribute 34, 0
  11              		.eabi_attribute 18, 4
  12              		.code	16
  13              		.file	"cyfitter_cfg.c"
  14              		.text
  15              	.Ltext0:
  16              		.cfi_sections	.debug_frame
  17              		.section	.text.cfg_write_bytes32,"ax",%progbits
  18              		.align	2
  19              		.code	16
  20              		.thumb_func
  21              		.type	cfg_write_bytes32, %function
  22              	cfg_write_bytes32:
  23              	.LFB4:
  24              		.file 1 ".\\Generated_Source\\PSoC4\\cyfitter_cfg.c"
   1:.\Generated_Source\PSoC4/cyfitter_cfg.c **** /*******************************************************************************
   2:.\Generated_Source\PSoC4/cyfitter_cfg.c **** * File Name: cyfitter_cfg.c
   3:.\Generated_Source\PSoC4/cyfitter_cfg.c **** * 
   4:.\Generated_Source\PSoC4/cyfitter_cfg.c **** * PSoC Creator  3.3 CP2
   5:.\Generated_Source\PSoC4/cyfitter_cfg.c **** *
   6:.\Generated_Source\PSoC4/cyfitter_cfg.c **** * Description:
   7:.\Generated_Source\PSoC4/cyfitter_cfg.c **** * This file contains device initialization code.
   8:.\Generated_Source\PSoC4/cyfitter_cfg.c **** * Except for the user defined sections in CyClockStartupError(), this file should not be modified.
   9:.\Generated_Source\PSoC4/cyfitter_cfg.c **** * This file is automatically generated by PSoC Creator.
  10:.\Generated_Source\PSoC4/cyfitter_cfg.c **** *
  11:.\Generated_Source\PSoC4/cyfitter_cfg.c **** ********************************************************************************
  12:.\Generated_Source\PSoC4/cyfitter_cfg.c **** * Copyright (c) 2007-2015 Cypress Semiconductor.  All rights reserved.
  13:.\Generated_Source\PSoC4/cyfitter_cfg.c **** * You may use this file only in accordance with the license, terms, conditions, 
  14:.\Generated_Source\PSoC4/cyfitter_cfg.c **** * disclaimers, and limitations in the end user license agreement accompanying 
  15:.\Generated_Source\PSoC4/cyfitter_cfg.c **** * the software package with which this file was provided.
  16:.\Generated_Source\PSoC4/cyfitter_cfg.c **** ********************************************************************************/
  17:.\Generated_Source\PSoC4/cyfitter_cfg.c **** 
  18:.\Generated_Source\PSoC4/cyfitter_cfg.c **** #include <string.h>
  19:.\Generated_Source\PSoC4/cyfitter_cfg.c **** #include "cytypes.h"
  20:.\Generated_Source\PSoC4/cyfitter_cfg.c **** #include "cydevice_trm.h"
  21:.\Generated_Source\PSoC4/cyfitter_cfg.c **** #include "cyfitter.h"
  22:.\Generated_Source\PSoC4/cyfitter_cfg.c **** #include "CyLib.h"
  23:.\Generated_Source\PSoC4/cyfitter_cfg.c **** #include "CyLFClk.h"
  24:.\Generated_Source\PSoC4/cyfitter_cfg.c **** #include "cyfitter_cfg.h"
  25:.\Generated_Source\PSoC4/cyfitter_cfg.c **** 
  26:.\Generated_Source\PSoC4/cyfitter_cfg.c **** 
  27:.\Generated_Source\PSoC4/cyfitter_cfg.c **** #if defined(__GNUC__) || defined(__ARMCC_VERSION)
  28:.\Generated_Source\PSoC4/cyfitter_cfg.c ****     #define CYPACKED 
  29:.\Generated_Source\PSoC4/cyfitter_cfg.c ****     #define CYPACKED_ATTR __attribute__ ((packed))
  30:.\Generated_Source\PSoC4/cyfitter_cfg.c ****     #define CYALIGNED __attribute__ ((aligned))
  31:.\Generated_Source\PSoC4/cyfitter_cfg.c ****     #define CY_CFG_UNUSED __attribute__ ((unused))
  32:.\Generated_Source\PSoC4/cyfitter_cfg.c ****     #ifndef CY_CFG_SECTION
  33:.\Generated_Source\PSoC4/cyfitter_cfg.c ****         #define CY_CFG_SECTION __attribute__ ((section(".psocinit")))
ARM GAS  C:\Users\Tim\AppData\Local\Temp\cc0D5x6q.s 			page 2


  34:.\Generated_Source\PSoC4/cyfitter_cfg.c ****     #endif
  35:.\Generated_Source\PSoC4/cyfitter_cfg.c ****     
  36:.\Generated_Source\PSoC4/cyfitter_cfg.c ****     #if defined(__ARMCC_VERSION)
  37:.\Generated_Source\PSoC4/cyfitter_cfg.c ****         #define CY_CFG_MEMORY_BARRIER() __memory_changed()
  38:.\Generated_Source\PSoC4/cyfitter_cfg.c ****     #else
  39:.\Generated_Source\PSoC4/cyfitter_cfg.c ****         #define CY_CFG_MEMORY_BARRIER() __sync_synchronize()
  40:.\Generated_Source\PSoC4/cyfitter_cfg.c ****     #endif
  41:.\Generated_Source\PSoC4/cyfitter_cfg.c ****     
  42:.\Generated_Source\PSoC4/cyfitter_cfg.c **** #elif defined(__ICCARM__)
  43:.\Generated_Source\PSoC4/cyfitter_cfg.c ****     #include <intrinsics.h>
  44:.\Generated_Source\PSoC4/cyfitter_cfg.c **** 
  45:.\Generated_Source\PSoC4/cyfitter_cfg.c ****     #define CYPACKED __packed
  46:.\Generated_Source\PSoC4/cyfitter_cfg.c ****     #define CYPACKED_ATTR 
  47:.\Generated_Source\PSoC4/cyfitter_cfg.c ****     #define CYALIGNED _Pragma("data_alignment=4")
  48:.\Generated_Source\PSoC4/cyfitter_cfg.c ****     #define CY_CFG_UNUSED _Pragma("diag_suppress=Pe177")
  49:.\Generated_Source\PSoC4/cyfitter_cfg.c ****     #define CY_CFG_SECTION _Pragma("location=\".psocinit\"")
  50:.\Generated_Source\PSoC4/cyfitter_cfg.c ****     
  51:.\Generated_Source\PSoC4/cyfitter_cfg.c ****     #define CY_CFG_MEMORY_BARRIER() __DMB()
  52:.\Generated_Source\PSoC4/cyfitter_cfg.c ****     
  53:.\Generated_Source\PSoC4/cyfitter_cfg.c **** #else
  54:.\Generated_Source\PSoC4/cyfitter_cfg.c ****     #error Unsupported toolchain
  55:.\Generated_Source\PSoC4/cyfitter_cfg.c **** #endif
  56:.\Generated_Source\PSoC4/cyfitter_cfg.c **** 
  57:.\Generated_Source\PSoC4/cyfitter_cfg.c **** 
  58:.\Generated_Source\PSoC4/cyfitter_cfg.c **** CY_CFG_UNUSED
  59:.\Generated_Source\PSoC4/cyfitter_cfg.c **** static void CYMEMZERO(void *s, size_t n);
  60:.\Generated_Source\PSoC4/cyfitter_cfg.c **** CY_CFG_UNUSED
  61:.\Generated_Source\PSoC4/cyfitter_cfg.c **** static void CYMEMZERO(void *s, size_t n)
  62:.\Generated_Source\PSoC4/cyfitter_cfg.c **** {
  63:.\Generated_Source\PSoC4/cyfitter_cfg.c **** 	(void)memset(s, 0, n);
  64:.\Generated_Source\PSoC4/cyfitter_cfg.c **** }
  65:.\Generated_Source\PSoC4/cyfitter_cfg.c **** CY_CFG_UNUSED
  66:.\Generated_Source\PSoC4/cyfitter_cfg.c **** static void CYCONFIGCPY(void *dest, const void *src, size_t n);
  67:.\Generated_Source\PSoC4/cyfitter_cfg.c **** CY_CFG_UNUSED
  68:.\Generated_Source\PSoC4/cyfitter_cfg.c **** static void CYCONFIGCPY(void *dest, const void *src, size_t n)
  69:.\Generated_Source\PSoC4/cyfitter_cfg.c **** {
  70:.\Generated_Source\PSoC4/cyfitter_cfg.c **** 	(void)memcpy(dest, src, n);
  71:.\Generated_Source\PSoC4/cyfitter_cfg.c **** }
  72:.\Generated_Source\PSoC4/cyfitter_cfg.c **** CY_CFG_UNUSED
  73:.\Generated_Source\PSoC4/cyfitter_cfg.c **** static void CYCONFIGCPYCODE(void *dest, const void *src, size_t n);
  74:.\Generated_Source\PSoC4/cyfitter_cfg.c **** CY_CFG_UNUSED
  75:.\Generated_Source\PSoC4/cyfitter_cfg.c **** static void CYCONFIGCPYCODE(void *dest, const void *src, size_t n)
  76:.\Generated_Source\PSoC4/cyfitter_cfg.c **** {
  77:.\Generated_Source\PSoC4/cyfitter_cfg.c **** 	(void)memcpy(dest, src, n);
  78:.\Generated_Source\PSoC4/cyfitter_cfg.c **** }
  79:.\Generated_Source\PSoC4/cyfitter_cfg.c **** 
  80:.\Generated_Source\PSoC4/cyfitter_cfg.c **** 
  81:.\Generated_Source\PSoC4/cyfitter_cfg.c **** 
  82:.\Generated_Source\PSoC4/cyfitter_cfg.c **** /* Clock startup error codes                                                   */
  83:.\Generated_Source\PSoC4/cyfitter_cfg.c **** #define CYCLOCKSTART_NO_ERROR    0u
  84:.\Generated_Source\PSoC4/cyfitter_cfg.c **** #define CYCLOCKSTART_XTAL_ERROR  1u
  85:.\Generated_Source\PSoC4/cyfitter_cfg.c **** #define CYCLOCKSTART_32KHZ_ERROR 2u
  86:.\Generated_Source\PSoC4/cyfitter_cfg.c **** #define CYCLOCKSTART_PLL_ERROR   3u
  87:.\Generated_Source\PSoC4/cyfitter_cfg.c **** 
  88:.\Generated_Source\PSoC4/cyfitter_cfg.c **** #ifdef CY_NEED_CYCLOCKSTARTUPERROR
  89:.\Generated_Source\PSoC4/cyfitter_cfg.c **** /*******************************************************************************
  90:.\Generated_Source\PSoC4/cyfitter_cfg.c **** * Function Name: CyClockStartupError
ARM GAS  C:\Users\Tim\AppData\Local\Temp\cc0D5x6q.s 			page 3


  91:.\Generated_Source\PSoC4/cyfitter_cfg.c **** ********************************************************************************
  92:.\Generated_Source\PSoC4/cyfitter_cfg.c **** * Summary:
  93:.\Generated_Source\PSoC4/cyfitter_cfg.c **** *  If an error is encountered during clock configuration (crystal startup error,
  94:.\Generated_Source\PSoC4/cyfitter_cfg.c **** *  PLL lock error, etc.), the system will end up here.  Unless reimplemented by
  95:.\Generated_Source\PSoC4/cyfitter_cfg.c **** *  the customer, this function will stop in an infinite loop.
  96:.\Generated_Source\PSoC4/cyfitter_cfg.c **** *
  97:.\Generated_Source\PSoC4/cyfitter_cfg.c **** * Parameters:
  98:.\Generated_Source\PSoC4/cyfitter_cfg.c **** *   void
  99:.\Generated_Source\PSoC4/cyfitter_cfg.c **** *
 100:.\Generated_Source\PSoC4/cyfitter_cfg.c **** * Return:
 101:.\Generated_Source\PSoC4/cyfitter_cfg.c **** *   void
 102:.\Generated_Source\PSoC4/cyfitter_cfg.c **** *
 103:.\Generated_Source\PSoC4/cyfitter_cfg.c **** *******************************************************************************/
 104:.\Generated_Source\PSoC4/cyfitter_cfg.c **** CY_CFG_UNUSED
 105:.\Generated_Source\PSoC4/cyfitter_cfg.c **** static void CyClockStartupError(uint8 errorCode);
 106:.\Generated_Source\PSoC4/cyfitter_cfg.c **** CY_CFG_UNUSED
 107:.\Generated_Source\PSoC4/cyfitter_cfg.c **** static void CyClockStartupError(uint8 errorCode)
 108:.\Generated_Source\PSoC4/cyfitter_cfg.c **** {
 109:.\Generated_Source\PSoC4/cyfitter_cfg.c ****     /* To remove the compiler warning if errorCode not used.                */
 110:.\Generated_Source\PSoC4/cyfitter_cfg.c ****     errorCode = errorCode;
 111:.\Generated_Source\PSoC4/cyfitter_cfg.c **** 
 112:.\Generated_Source\PSoC4/cyfitter_cfg.c ****     /* `#START CyClockStartupError` */
 113:.\Generated_Source\PSoC4/cyfitter_cfg.c **** 
 114:.\Generated_Source\PSoC4/cyfitter_cfg.c ****     /* If we have a clock startup error (bad MHz crystal, PLL lock, etc.),  */
 115:.\Generated_Source\PSoC4/cyfitter_cfg.c ****     /* we will end up here to allow the customer to implement something to  */
 116:.\Generated_Source\PSoC4/cyfitter_cfg.c ****     /* deal with the clock condition.                                       */
 117:.\Generated_Source\PSoC4/cyfitter_cfg.c **** 
 118:.\Generated_Source\PSoC4/cyfitter_cfg.c ****     /* `#END` */
 119:.\Generated_Source\PSoC4/cyfitter_cfg.c **** 
 120:.\Generated_Source\PSoC4/cyfitter_cfg.c ****     /* If nothing else, stop here since the clocks have not started         */
 121:.\Generated_Source\PSoC4/cyfitter_cfg.c ****     /* correctly.                                                           */
 122:.\Generated_Source\PSoC4/cyfitter_cfg.c ****     while(1) {}
 123:.\Generated_Source\PSoC4/cyfitter_cfg.c **** }
 124:.\Generated_Source\PSoC4/cyfitter_cfg.c **** #endif
 125:.\Generated_Source\PSoC4/cyfitter_cfg.c **** 
 126:.\Generated_Source\PSoC4/cyfitter_cfg.c **** #define CY_CFG_BASE_ADDR_COUNT 7u
 127:.\Generated_Source\PSoC4/cyfitter_cfg.c **** CYPACKED typedef struct
 128:.\Generated_Source\PSoC4/cyfitter_cfg.c **** {
 129:.\Generated_Source\PSoC4/cyfitter_cfg.c **** 	uint8 offset;
 130:.\Generated_Source\PSoC4/cyfitter_cfg.c **** 	uint8 value;
 131:.\Generated_Source\PSoC4/cyfitter_cfg.c **** } CYPACKED_ATTR cy_cfg_addrvalue_t;
 132:.\Generated_Source\PSoC4/cyfitter_cfg.c **** 
 133:.\Generated_Source\PSoC4/cyfitter_cfg.c **** 
 134:.\Generated_Source\PSoC4/cyfitter_cfg.c **** 
 135:.\Generated_Source\PSoC4/cyfitter_cfg.c **** /*******************************************************************************
 136:.\Generated_Source\PSoC4/cyfitter_cfg.c **** * Function Name: cfg_write_bytes32
 137:.\Generated_Source\PSoC4/cyfitter_cfg.c **** ********************************************************************************
 138:.\Generated_Source\PSoC4/cyfitter_cfg.c **** * Summary:
 139:.\Generated_Source\PSoC4/cyfitter_cfg.c **** *  This function is used for setting up the chip configuration areas that
 140:.\Generated_Source\PSoC4/cyfitter_cfg.c **** *  contain relatively sparse data.
 141:.\Generated_Source\PSoC4/cyfitter_cfg.c **** *
 142:.\Generated_Source\PSoC4/cyfitter_cfg.c **** * Parameters:
 143:.\Generated_Source\PSoC4/cyfitter_cfg.c **** *   void
 144:.\Generated_Source\PSoC4/cyfitter_cfg.c **** *
 145:.\Generated_Source\PSoC4/cyfitter_cfg.c **** * Return:
 146:.\Generated_Source\PSoC4/cyfitter_cfg.c **** *   void
 147:.\Generated_Source\PSoC4/cyfitter_cfg.c **** *
ARM GAS  C:\Users\Tim\AppData\Local\Temp\cc0D5x6q.s 			page 4


 148:.\Generated_Source\PSoC4/cyfitter_cfg.c **** *******************************************************************************/
 149:.\Generated_Source\PSoC4/cyfitter_cfg.c **** static void cfg_write_bytes32(const uint32 addr_table[], const cy_cfg_addrvalue_t data_table[]);
 150:.\Generated_Source\PSoC4/cyfitter_cfg.c **** static void cfg_write_bytes32(const uint32 addr_table[], const cy_cfg_addrvalue_t data_table[])
 151:.\Generated_Source\PSoC4/cyfitter_cfg.c **** {
  25              		.loc 1 151 0
  26              		.cfi_startproc
  27              	.LVL0:
  28 0000 F0B5     		push	{r4, r5, r6, r7, lr}
  29              		.cfi_def_cfa_offset 20
  30              		.cfi_offset 4, -20
  31              		.cfi_offset 5, -16
  32              		.cfi_offset 6, -12
  33              		.cfi_offset 7, -8
  34              		.cfi_offset 14, -4
  35              	.LVL1:
 152:.\Generated_Source\PSoC4/cyfitter_cfg.c **** 	/* For 32-bit little-endian architectures */
 153:.\Generated_Source\PSoC4/cyfitter_cfg.c **** 	uint32 i, j = 0u;
  36              		.loc 1 153 0
  37 0002 0025     		mov	r5, #0
 154:.\Generated_Source\PSoC4/cyfitter_cfg.c **** 	for (i = 0u; i < CY_CFG_BASE_ADDR_COUNT; i++)
  38              		.loc 1 154 0
  39 0004 0027     		mov	r7, #0
  40 0006 11E0     		b	.L2
  41              	.LVL2:
  42              	.L5:
  43              	.LBB2:
 155:.\Generated_Source\PSoC4/cyfitter_cfg.c **** 	{
 156:.\Generated_Source\PSoC4/cyfitter_cfg.c **** 		uint32 baseAddr = addr_table[i];
  44              		.loc 1 156 0
  45 0008 BB00     		lsl	r3, r7, #2
  46 000a C658     		ldr	r6, [r0, r3]
  47              	.LVL3:
 157:.\Generated_Source\PSoC4/cyfitter_cfg.c **** 		uint8 count = (uint8)baseAddr;
  48              		.loc 1 157 0
  49 000c F3B2     		uxtb	r3, r6
  50              	.LVL4:
 158:.\Generated_Source\PSoC4/cyfitter_cfg.c **** 		baseAddr &= 0xFFFFFF00u;
  51              		.loc 1 158 0
  52 000e FF22     		mov	r2, #255
  53 0010 9643     		bic	r6, r2
  54              	.LVL5:
 159:.\Generated_Source\PSoC4/cyfitter_cfg.c **** 		while (count != 0u)
  55              		.loc 1 159 0
  56 0012 08E0     		b	.L3
  57              	.L4:
 160:.\Generated_Source\PSoC4/cyfitter_cfg.c **** 		{
 161:.\Generated_Source\PSoC4/cyfitter_cfg.c **** 			CY_SET_XTND_REG8((void CYFAR *)(baseAddr + data_table[j].offset), data_table[j].value);
  58              		.loc 1 161 0
  59 0014 6A00     		lsl	r2, r5, #1
  60 0016 8A18     		add	r2, r1, r2
  61 0018 1478     		ldrb	r4, [r2]
  62 001a A419     		add	r4, r4, r6
  63 001c 5278     		ldrb	r2, [r2, #1]
  64 001e 2270     		strb	r2, [r4]
 162:.\Generated_Source\PSoC4/cyfitter_cfg.c **** 			j++;
  65              		.loc 1 162 0
  66 0020 0135     		add	r5, r5, #1
ARM GAS  C:\Users\Tim\AppData\Local\Temp\cc0D5x6q.s 			page 5


  67              	.LVL6:
 163:.\Generated_Source\PSoC4/cyfitter_cfg.c **** 			count--;
  68              		.loc 1 163 0
  69 0022 013B     		sub	r3, r3, #1
  70              	.LVL7:
  71 0024 DBB2     		uxtb	r3, r3
  72              	.LVL8:
  73              	.L3:
 159:.\Generated_Source\PSoC4/cyfitter_cfg.c **** 		{
  74              		.loc 1 159 0
  75 0026 002B     		cmp	r3, #0
  76 0028 F4D1     		bne	.L4
  77              	.LBE2:
 154:.\Generated_Source\PSoC4/cyfitter_cfg.c **** 	{
  78              		.loc 1 154 0 discriminator 2
  79 002a 0137     		add	r7, r7, #1
  80              	.LVL9:
  81              	.L2:
 154:.\Generated_Source\PSoC4/cyfitter_cfg.c **** 	{
  82              		.loc 1 154 0 is_stmt 0 discriminator 1
  83 002c 062F     		cmp	r7, #6
  84 002e EBD9     		bls	.L5
 164:.\Generated_Source\PSoC4/cyfitter_cfg.c **** 		}
 165:.\Generated_Source\PSoC4/cyfitter_cfg.c **** 	}
 166:.\Generated_Source\PSoC4/cyfitter_cfg.c **** }
  85              		.loc 1 166 0 is_stmt 1
  86              		@ sp needed
  87              	.LVL10:
  88              	.LVL11:
  89 0030 F0BD     		pop	{r4, r5, r6, r7, pc}
  90              		.cfi_endproc
  91              	.LFE4:
  92              		.size	cfg_write_bytes32, .-cfg_write_bytes32
  93 0032 C046     		.section	.text.AnalogSetDefault,"ax",%progbits
  94              		.align	2
  95              		.code	16
  96              		.thumb_func
  97              		.type	AnalogSetDefault, %function
  98              	AnalogSetDefault:
  99              	.LFB6:
 167:.\Generated_Source\PSoC4/cyfitter_cfg.c **** 
 168:.\Generated_Source\PSoC4/cyfitter_cfg.c **** 
 169:.\Generated_Source\PSoC4/cyfitter_cfg.c **** /*******************************************************************************
 170:.\Generated_Source\PSoC4/cyfitter_cfg.c **** * Function Name: ClockSetup
 171:.\Generated_Source\PSoC4/cyfitter_cfg.c **** ********************************************************************************
 172:.\Generated_Source\PSoC4/cyfitter_cfg.c **** *
 173:.\Generated_Source\PSoC4/cyfitter_cfg.c **** * Summary:
 174:.\Generated_Source\PSoC4/cyfitter_cfg.c **** *   Performs the initialization of all of the clocks in the device based on the
 175:.\Generated_Source\PSoC4/cyfitter_cfg.c **** *   settings in the Clock tab of the DWR.  This includes enabling the requested
 176:.\Generated_Source\PSoC4/cyfitter_cfg.c **** *   clocks and setting the necessary dividers to produce the desired frequency. 
 177:.\Generated_Source\PSoC4/cyfitter_cfg.c **** *
 178:.\Generated_Source\PSoC4/cyfitter_cfg.c **** * Parameters:
 179:.\Generated_Source\PSoC4/cyfitter_cfg.c **** *   void
 180:.\Generated_Source\PSoC4/cyfitter_cfg.c **** *
 181:.\Generated_Source\PSoC4/cyfitter_cfg.c **** * Return:
 182:.\Generated_Source\PSoC4/cyfitter_cfg.c **** *   void
 183:.\Generated_Source\PSoC4/cyfitter_cfg.c **** *
ARM GAS  C:\Users\Tim\AppData\Local\Temp\cc0D5x6q.s 			page 6


 184:.\Generated_Source\PSoC4/cyfitter_cfg.c **** *******************************************************************************/
 185:.\Generated_Source\PSoC4/cyfitter_cfg.c **** static void ClockSetup(void);
 186:.\Generated_Source\PSoC4/cyfitter_cfg.c **** CY_CFG_SECTION
 187:.\Generated_Source\PSoC4/cyfitter_cfg.c **** static void ClockSetup(void)
 188:.\Generated_Source\PSoC4/cyfitter_cfg.c **** {
 189:.\Generated_Source\PSoC4/cyfitter_cfg.c **** 
 190:.\Generated_Source\PSoC4/cyfitter_cfg.c **** 	/* Set Flash Cycles based on max possible frequency in case a glitch occurs during ClockSetup(). *
 191:.\Generated_Source\PSoC4/cyfitter_cfg.c **** 	CY_SET_REG32((void CYXDATA *)(CYREG_CPUSS_FLASH_CTL), (0x0012u));
 192:.\Generated_Source\PSoC4/cyfitter_cfg.c **** 	/* Setup and trim IMO based on desired frequency. */
 193:.\Generated_Source\PSoC4/cyfitter_cfg.c **** 	CySysClkWriteImoFreq(48u);
 194:.\Generated_Source\PSoC4/cyfitter_cfg.c **** 	/* CYDEV_CLK_ILO_CONFIG Starting address: CYDEV_CLK_ILO_CONFIG */
 195:.\Generated_Source\PSoC4/cyfitter_cfg.c **** 	CY_SET_XTND_REG32((void CYFAR *)(CYREG_CLK_ILO_CONFIG), 0x80000006u);
 196:.\Generated_Source\PSoC4/cyfitter_cfg.c **** 
 197:.\Generated_Source\PSoC4/cyfitter_cfg.c **** 
 198:.\Generated_Source\PSoC4/cyfitter_cfg.c **** 	/* Setup phase aligned clocks */
 199:.\Generated_Source\PSoC4/cyfitter_cfg.c **** 	CY_SET_REG32((void *)CYREG_PERI_DIV_16_CTL4, 0x00002F00u);
 200:.\Generated_Source\PSoC4/cyfitter_cfg.c **** 	CY_SET_REG32((void *)CYREG_PERI_DIV_CMD, 0x8000FF44u);
 201:.\Generated_Source\PSoC4/cyfitter_cfg.c **** 	CY_SET_REG32((void *)CYREG_PERI_DIV_16_CTL3, 0x00002F00u);
 202:.\Generated_Source\PSoC4/cyfitter_cfg.c **** 	CY_SET_REG32((void *)CYREG_PERI_DIV_CMD, 0x8000FF43u);
 203:.\Generated_Source\PSoC4/cyfitter_cfg.c **** 	CY_SET_REG32((void *)CYREG_PERI_DIV_16_CTL2, 0x00002F00u);
 204:.\Generated_Source\PSoC4/cyfitter_cfg.c **** 	CY_SET_REG32((void *)CYREG_PERI_DIV_CMD, 0x8000FF42u);
 205:.\Generated_Source\PSoC4/cyfitter_cfg.c **** 	CY_SET_REG32((void *)CYREG_PERI_DIV_16_CTL1, 0x00002200u);
 206:.\Generated_Source\PSoC4/cyfitter_cfg.c **** 	CY_SET_REG32((void *)CYREG_PERI_DIV_CMD, 0x8000FF41u);
 207:.\Generated_Source\PSoC4/cyfitter_cfg.c **** 	CY_SET_REG32((void *)CYREG_PERI_DIV_16_CTL0, 0x00001D00u);
 208:.\Generated_Source\PSoC4/cyfitter_cfg.c **** 	CY_SET_REG32((void *)CYREG_PERI_DIV_CMD, 0x8000FF40u);
 209:.\Generated_Source\PSoC4/cyfitter_cfg.c **** 
 210:.\Generated_Source\PSoC4/cyfitter_cfg.c **** 	/* CYDEV_CLK_IMO_CONFIG Starting address: CYDEV_CLK_IMO_CONFIG */
 211:.\Generated_Source\PSoC4/cyfitter_cfg.c **** 	CY_SET_XTND_REG32((void CYFAR *)(CYREG_CLK_IMO_CONFIG), 0x82000000u);
 212:.\Generated_Source\PSoC4/cyfitter_cfg.c **** 
 213:.\Generated_Source\PSoC4/cyfitter_cfg.c **** 	/* CYDEV_CLK_SELECT Starting address: CYDEV_CLK_SELECT */
 214:.\Generated_Source\PSoC4/cyfitter_cfg.c **** 	CY_SET_XTND_REG32((void CYFAR *)(CYREG_CLK_SELECT), 0x00040000u);
 215:.\Generated_Source\PSoC4/cyfitter_cfg.c **** 
 216:.\Generated_Source\PSoC4/cyfitter_cfg.c **** 	/* CYDEV_PERI_PCLK_CTL12 Starting address: CYDEV_PERI_PCLK_CTL12 */
 217:.\Generated_Source\PSoC4/cyfitter_cfg.c **** 	CY_SET_XTND_REG32((void CYFAR *)(CYREG_PERI_PCLK_CTL12), 0x00000044u);
 218:.\Generated_Source\PSoC4/cyfitter_cfg.c **** 
 219:.\Generated_Source\PSoC4/cyfitter_cfg.c **** 	/* CYDEV_PERI_PCLK_CTL11 Starting address: CYDEV_PERI_PCLK_CTL11 */
 220:.\Generated_Source\PSoC4/cyfitter_cfg.c **** 	CY_SET_XTND_REG32((void CYFAR *)(CYREG_PERI_PCLK_CTL11), 0x00000043u);
 221:.\Generated_Source\PSoC4/cyfitter_cfg.c **** 
 222:.\Generated_Source\PSoC4/cyfitter_cfg.c **** 	/* CYDEV_PERI_PCLK_CTL10 Starting address: CYDEV_PERI_PCLK_CTL10 */
 223:.\Generated_Source\PSoC4/cyfitter_cfg.c **** 	CY_SET_XTND_REG32((void CYFAR *)(CYREG_PERI_PCLK_CTL10), 0x00000042u);
 224:.\Generated_Source\PSoC4/cyfitter_cfg.c **** 
 225:.\Generated_Source\PSoC4/cyfitter_cfg.c **** 	/* CYDEV_PERI_PCLK_CTL3 Starting address: CYDEV_PERI_PCLK_CTL3 */
 226:.\Generated_Source\PSoC4/cyfitter_cfg.c **** 	CY_SET_XTND_REG32((void CYFAR *)(CYREG_PERI_PCLK_CTL3), 0x00000041u);
 227:.\Generated_Source\PSoC4/cyfitter_cfg.c **** 
 228:.\Generated_Source\PSoC4/cyfitter_cfg.c **** 	/* CYDEV_PERI_PCLK_CTL2 Starting address: CYDEV_PERI_PCLK_CTL2 */
 229:.\Generated_Source\PSoC4/cyfitter_cfg.c **** 	CY_SET_XTND_REG32((void CYFAR *)(CYREG_PERI_PCLK_CTL2), 0x00000040u);
 230:.\Generated_Source\PSoC4/cyfitter_cfg.c **** 
 231:.\Generated_Source\PSoC4/cyfitter_cfg.c **** 	(void)CyIntSetVector(7u, &CySysWdtIsr);
 232:.\Generated_Source\PSoC4/cyfitter_cfg.c **** 	CyIntEnable(7u);
 233:.\Generated_Source\PSoC4/cyfitter_cfg.c **** 	CY_SET_XTND_REG32((void CYFAR *)(CYREG_WDT_CONFIG), 0x00000000u);
 234:.\Generated_Source\PSoC4/cyfitter_cfg.c **** }
 235:.\Generated_Source\PSoC4/cyfitter_cfg.c **** 
 236:.\Generated_Source\PSoC4/cyfitter_cfg.c **** 
 237:.\Generated_Source\PSoC4/cyfitter_cfg.c **** /* Analog API Functions */
 238:.\Generated_Source\PSoC4/cyfitter_cfg.c **** 
 239:.\Generated_Source\PSoC4/cyfitter_cfg.c **** 
 240:.\Generated_Source\PSoC4/cyfitter_cfg.c **** /*******************************************************************************
ARM GAS  C:\Users\Tim\AppData\Local\Temp\cc0D5x6q.s 			page 7


 241:.\Generated_Source\PSoC4/cyfitter_cfg.c **** * Function Name: AnalogSetDefault
 242:.\Generated_Source\PSoC4/cyfitter_cfg.c **** ********************************************************************************
 243:.\Generated_Source\PSoC4/cyfitter_cfg.c **** *
 244:.\Generated_Source\PSoC4/cyfitter_cfg.c **** * Summary:
 245:.\Generated_Source\PSoC4/cyfitter_cfg.c **** *  Sets up the analog portions of the chip to default values based on chip
 246:.\Generated_Source\PSoC4/cyfitter_cfg.c **** *  configuration options from the project.
 247:.\Generated_Source\PSoC4/cyfitter_cfg.c **** *
 248:.\Generated_Source\PSoC4/cyfitter_cfg.c **** * Parameters:
 249:.\Generated_Source\PSoC4/cyfitter_cfg.c **** *  void
 250:.\Generated_Source\PSoC4/cyfitter_cfg.c **** *
 251:.\Generated_Source\PSoC4/cyfitter_cfg.c **** * Return:
 252:.\Generated_Source\PSoC4/cyfitter_cfg.c **** *  void
 253:.\Generated_Source\PSoC4/cyfitter_cfg.c **** *
 254:.\Generated_Source\PSoC4/cyfitter_cfg.c **** *******************************************************************************/
 255:.\Generated_Source\PSoC4/cyfitter_cfg.c **** static void AnalogSetDefault(void);
 256:.\Generated_Source\PSoC4/cyfitter_cfg.c **** static void AnalogSetDefault(void)
 257:.\Generated_Source\PSoC4/cyfitter_cfg.c **** {
 100              		.loc 1 257 0
 101              		.cfi_startproc
 258:.\Generated_Source\PSoC4/cyfitter_cfg.c **** 	CY_SET_XTND_REG32((void CYFAR *)CYREG_CTBM0_DFT_CTRL, 0x00000003u);
 102              		.loc 1 258 0
 103 0000 0323     		mov	r3, #3
 104 0002 084A     		ldr	r2, .L7
 105 0004 1360     		str	r3, [r2]
 259:.\Generated_Source\PSoC4/cyfitter_cfg.c **** 	CY_SET_XTND_REG32((void CYFAR *)CYREG_CTBM1_DFT_CTRL, 0x00000003u);
 106              		.loc 1 259 0
 107 0006 084A     		ldr	r2, .L7+4
 108 0008 1360     		str	r3, [r2]
 260:.\Generated_Source\PSoC4/cyfitter_cfg.c **** 	CY_SET_XTND_REG32((void CYFAR *)CYREG_SAR_CTRL, 0x08000000u);
 109              		.loc 1 260 0
 110 000a 8022     		mov	r2, #128
 111 000c 1205     		lsl	r2, r2, #20
 112 000e 074B     		ldr	r3, .L7+8
 113 0010 1A60     		str	r2, [r3]
 261:.\Generated_Source\PSoC4/cyfitter_cfg.c **** 	CY_SET_XTND_REG32((void CYFAR *)CYREG_SAR_MUX_SWITCH0, 0x0000000Fu);
 114              		.loc 1 261 0
 115 0012 0F23     		mov	r3, #15
 116 0014 064A     		ldr	r2, .L7+12
 117 0016 1360     		str	r3, [r2]
 262:.\Generated_Source\PSoC4/cyfitter_cfg.c **** 	CY_SET_XTND_REG32((void CYFAR *)CYREG_SAR_MUX_SWITCH_HW_CTRL, 0x0000000Fu);
 118              		.loc 1 262 0
 119 0018 064A     		ldr	r2, .L7+16
 120 001a 1360     		str	r3, [r2]
 263:.\Generated_Source\PSoC4/cyfitter_cfg.c **** 	CY_SET_XTND_REG32((void CYFAR *)CYREG_PASS_DSAB_DSAB_CTRL, 0x00000000u);
 121              		.loc 1 263 0
 122 001c 0022     		mov	r2, #0
 123 001e 064B     		ldr	r3, .L7+20
 124 0020 1A60     		str	r2, [r3]
 264:.\Generated_Source\PSoC4/cyfitter_cfg.c **** 	/* Variable VDDA is selected; no pumps are enabled by default */
 265:.\Generated_Source\PSoC4/cyfitter_cfg.c **** }
 125              		.loc 1 265 0
 126              		@ sp needed
 127 0022 7047     		bx	lr
 128              	.L8:
 129              		.align	2
 130              	.L7:
 131 0024 30003040 		.word	1076887600
ARM GAS  C:\Users\Tim\AppData\Local\Temp\cc0D5x6q.s 			page 8


 132 0028 30003140 		.word	1076953136
 133 002c 00003A40 		.word	1077542912
 134 0030 00033A40 		.word	1077543680
 135 0034 40033A40 		.word	1077543744
 136 0038 000E3F40 		.word	1077874176
 137              		.cfi_endproc
 138              	.LFE6:
 139              		.size	AnalogSetDefault, .-AnalogSetDefault
 140              		.section	.text.CYMEMZERO,"ax",%progbits
 141              		.align	2
 142              		.code	16
 143              		.thumb_func
 144              		.type	CYMEMZERO, %function
 145              	CYMEMZERO:
 146              	.LFB1:
  62:.\Generated_Source\PSoC4/cyfitter_cfg.c **** 	(void)memset(s, 0, n);
 147              		.loc 1 62 0
 148              		.cfi_startproc
 149              	.LVL12:
 150 0000 08B5     		push	{r3, lr}
 151              		.cfi_def_cfa_offset 8
 152              		.cfi_offset 3, -8
 153              		.cfi_offset 14, -4
 154 0002 0A1C     		mov	r2, r1
  63:.\Generated_Source\PSoC4/cyfitter_cfg.c **** }
 155              		.loc 1 63 0
 156 0004 0021     		mov	r1, #0
 157              	.LVL13:
 158 0006 FFF7FEFF 		bl	memset
 159              	.LVL14:
  64:.\Generated_Source\PSoC4/cyfitter_cfg.c **** CY_CFG_UNUSED
 160              		.loc 1 64 0
 161              		@ sp needed
 162 000a 08BD     		pop	{r3, pc}
 163              		.cfi_endproc
 164              	.LFE1:
 165              		.size	CYMEMZERO, .-CYMEMZERO
 166              		.section	.psocinit,"ax",%progbits
 167              		.align	2
 168              		.code	16
 169              		.thumb_func
 170              		.type	ClockSetup, %function
 171              	ClockSetup:
 172              	.LFB5:
 188:.\Generated_Source\PSoC4/cyfitter_cfg.c **** 
 173              		.loc 1 188 0
 174              		.cfi_startproc
 175 0000 08B5     		push	{r3, lr}
 176              		.cfi_def_cfa_offset 8
 177              		.cfi_offset 3, -8
 178              		.cfi_offset 14, -4
 191:.\Generated_Source\PSoC4/cyfitter_cfg.c **** 	/* Setup and trim IMO based on desired frequency. */
 179              		.loc 1 191 0
 180 0002 1222     		mov	r2, #18
 181 0004 224B     		ldr	r3, .L11
 182 0006 1A60     		str	r2, [r3]
 193:.\Generated_Source\PSoC4/cyfitter_cfg.c **** 	/* CYDEV_CLK_ILO_CONFIG Starting address: CYDEV_CLK_ILO_CONFIG */
ARM GAS  C:\Users\Tim\AppData\Local\Temp\cc0D5x6q.s 			page 9


 183              		.loc 1 193 0
 184 0008 3020     		mov	r0, #48
 185 000a FFF7FEFF 		bl	CySysClkWriteImoFreq
 186              	.LVL15:
 195:.\Generated_Source\PSoC4/cyfitter_cfg.c **** 
 187              		.loc 1 195 0
 188 000e 214A     		ldr	r2, .L11+4
 189 0010 214B     		ldr	r3, .L11+8
 190 0012 1A60     		str	r2, [r3]
 199:.\Generated_Source\PSoC4/cyfitter_cfg.c **** 	CY_SET_REG32((void *)CYREG_PERI_DIV_CMD, 0x8000FF44u);
 191              		.loc 1 199 0
 192 0014 BC22     		mov	r2, #188
 193 0016 9201     		lsl	r2, r2, #6
 194 0018 204B     		ldr	r3, .L11+12
 195 001a 1A60     		str	r2, [r3]
 200:.\Generated_Source\PSoC4/cyfitter_cfg.c **** 	CY_SET_REG32((void *)CYREG_PERI_DIV_16_CTL3, 0x00002F00u);
 196              		.loc 1 200 0
 197 001c 204B     		ldr	r3, .L11+16
 198 001e 2149     		ldr	r1, .L11+20
 199 0020 1960     		str	r1, [r3]
 201:.\Generated_Source\PSoC4/cyfitter_cfg.c **** 	CY_SET_REG32((void *)CYREG_PERI_DIV_CMD, 0x8000FF43u);
 200              		.loc 1 201 0
 201 0022 2149     		ldr	r1, .L11+24
 202 0024 0A60     		str	r2, [r1]
 202:.\Generated_Source\PSoC4/cyfitter_cfg.c **** 	CY_SET_REG32((void *)CYREG_PERI_DIV_16_CTL2, 0x00002F00u);
 203              		.loc 1 202 0
 204 0026 2149     		ldr	r1, .L11+28
 205 0028 1960     		str	r1, [r3]
 203:.\Generated_Source\PSoC4/cyfitter_cfg.c **** 	CY_SET_REG32((void *)CYREG_PERI_DIV_CMD, 0x8000FF42u);
 206              		.loc 1 203 0
 207 002a 2149     		ldr	r1, .L11+32
 208 002c 0A60     		str	r2, [r1]
 204:.\Generated_Source\PSoC4/cyfitter_cfg.c **** 	CY_SET_REG32((void *)CYREG_PERI_DIV_16_CTL1, 0x00002200u);
 209              		.loc 1 204 0
 210 002e 214A     		ldr	r2, .L11+36
 211 0030 1A60     		str	r2, [r3]
 205:.\Generated_Source\PSoC4/cyfitter_cfg.c **** 	CY_SET_REG32((void *)CYREG_PERI_DIV_CMD, 0x8000FF41u);
 212              		.loc 1 205 0
 213 0032 8821     		mov	r1, #136
 214 0034 8901     		lsl	r1, r1, #6
 215 0036 204A     		ldr	r2, .L11+40
 216 0038 1160     		str	r1, [r2]
 206:.\Generated_Source\PSoC4/cyfitter_cfg.c **** 	CY_SET_REG32((void *)CYREG_PERI_DIV_16_CTL0, 0x00001D00u);
 217              		.loc 1 206 0
 218 003a 204A     		ldr	r2, .L11+44
 219 003c 1A60     		str	r2, [r3]
 207:.\Generated_Source\PSoC4/cyfitter_cfg.c **** 	CY_SET_REG32((void *)CYREG_PERI_DIV_CMD, 0x8000FF40u);
 220              		.loc 1 207 0
 221 003e E821     		mov	r1, #232
 222 0040 4901     		lsl	r1, r1, #5
 223 0042 1F4A     		ldr	r2, .L11+48
 224 0044 1160     		str	r1, [r2]
 208:.\Generated_Source\PSoC4/cyfitter_cfg.c **** 
 225              		.loc 1 208 0
 226 0046 1F4A     		ldr	r2, .L11+52
 227 0048 1A60     		str	r2, [r3]
 211:.\Generated_Source\PSoC4/cyfitter_cfg.c **** 
ARM GAS  C:\Users\Tim\AppData\Local\Temp\cc0D5x6q.s 			page 10


 228              		.loc 1 211 0
 229 004a 8222     		mov	r2, #130
 230 004c 1206     		lsl	r2, r2, #24
 231 004e 1E4B     		ldr	r3, .L11+56
 232 0050 1A60     		str	r2, [r3]
 214:.\Generated_Source\PSoC4/cyfitter_cfg.c **** 
 233              		.loc 1 214 0
 234 0052 8022     		mov	r2, #128
 235 0054 D202     		lsl	r2, r2, #11
 236 0056 1D4B     		ldr	r3, .L11+60
 237 0058 1A60     		str	r2, [r3]
 217:.\Generated_Source\PSoC4/cyfitter_cfg.c **** 
 238              		.loc 1 217 0
 239 005a 4422     		mov	r2, #68
 240 005c 1C4B     		ldr	r3, .L11+64
 241 005e 1A60     		str	r2, [r3]
 220:.\Generated_Source\PSoC4/cyfitter_cfg.c **** 
 242              		.loc 1 220 0
 243 0060 013A     		sub	r2, r2, #1
 244 0062 1C4B     		ldr	r3, .L11+68
 245 0064 1A60     		str	r2, [r3]
 223:.\Generated_Source\PSoC4/cyfitter_cfg.c **** 
 246              		.loc 1 223 0
 247 0066 013A     		sub	r2, r2, #1
 248 0068 1B4B     		ldr	r3, .L11+72
 249 006a 1A60     		str	r2, [r3]
 226:.\Generated_Source\PSoC4/cyfitter_cfg.c **** 
 250              		.loc 1 226 0
 251 006c 013A     		sub	r2, r2, #1
 252 006e 1B4B     		ldr	r3, .L11+76
 253 0070 1A60     		str	r2, [r3]
 229:.\Generated_Source\PSoC4/cyfitter_cfg.c **** 
 254              		.loc 1 229 0
 255 0072 013A     		sub	r2, r2, #1
 256 0074 1A4B     		ldr	r3, .L11+80
 257 0076 1A60     		str	r2, [r3]
 231:.\Generated_Source\PSoC4/cyfitter_cfg.c **** 	CyIntEnable(7u);
 258              		.loc 1 231 0
 259 0078 0720     		mov	r0, #7
 260 007a 1A49     		ldr	r1, .L11+84
 261 007c FFF7FEFF 		bl	CyIntSetVector
 262              	.LVL16:
 232:.\Generated_Source\PSoC4/cyfitter_cfg.c **** 	CY_SET_XTND_REG32((void CYFAR *)(CYREG_WDT_CONFIG), 0x00000000u);
 263              		.loc 1 232 0
 264 0080 0720     		mov	r0, #7
 265 0082 FFF7FEFF 		bl	CyIntEnable
 266              	.LVL17:
 233:.\Generated_Source\PSoC4/cyfitter_cfg.c **** }
 267              		.loc 1 233 0
 268 0086 0022     		mov	r2, #0
 269 0088 174B     		ldr	r3, .L11+88
 270 008a 1A60     		str	r2, [r3]
 234:.\Generated_Source\PSoC4/cyfitter_cfg.c **** 
 271              		.loc 1 234 0
 272              		@ sp needed
 273 008c 08BD     		pop	{r3, pc}
 274              	.L12:
ARM GAS  C:\Users\Tim\AppData\Local\Temp\cc0D5x6q.s 			page 11


 275 008e C046     		.align	2
 276              	.L11:
 277 0090 30001040 		.word	1074790448
 278 0094 06000080 		.word	-2147483642
 279 0098 04010B40 		.word	1074462980
 280 009c 10030140 		.word	1073808144
 281 00a0 00000140 		.word	1073807360
 282 00a4 44FF0080 		.word	-2147418300
 283 00a8 0C030140 		.word	1073808140
 284 00ac 43FF0080 		.word	-2147418301
 285 00b0 08030140 		.word	1073808136
 286 00b4 42FF0080 		.word	-2147418302
 287 00b8 04030140 		.word	1073808132
 288 00bc 41FF0080 		.word	-2147418303
 289 00c0 00030140 		.word	1073808128
 290 00c4 40FF0080 		.word	-2147418304
 291 00c8 08010B40 		.word	1074462984
 292 00cc 00010B40 		.word	1074462976
 293 00d0 30010140 		.word	1073807664
 294 00d4 2C010140 		.word	1073807660
 295 00d8 28010140 		.word	1073807656
 296 00dc 0C010140 		.word	1073807628
 297 00e0 08010140 		.word	1073807624
 298 00e4 00000000 		.word	CySysWdtIsr
 299 00e8 0C020B40 		.word	1074463244
 300              		.cfi_endproc
 301              	.LFE5:
 302              		.size	ClockSetup, .-ClockSetup
 303              		.section	.text.SetAnalogRoutingPumps,"ax",%progbits
 304              		.align	2
 305              		.global	SetAnalogRoutingPumps
 306              		.code	16
 307              		.thumb_func
 308              		.type	SetAnalogRoutingPumps, %function
 309              	SetAnalogRoutingPumps:
 310              	.LFB7:
 266:.\Generated_Source\PSoC4/cyfitter_cfg.c **** 
 267:.\Generated_Source\PSoC4/cyfitter_cfg.c **** 
 268:.\Generated_Source\PSoC4/cyfitter_cfg.c **** /*******************************************************************************
 269:.\Generated_Source\PSoC4/cyfitter_cfg.c **** * Function Name: SetAnalogRoutingPumps
 270:.\Generated_Source\PSoC4/cyfitter_cfg.c **** ********************************************************************************
 271:.\Generated_Source\PSoC4/cyfitter_cfg.c **** *
 272:.\Generated_Source\PSoC4/cyfitter_cfg.c **** * Summary:
 273:.\Generated_Source\PSoC4/cyfitter_cfg.c **** * Enables or disables the analog pumps feeding analog routing switches.
 274:.\Generated_Source\PSoC4/cyfitter_cfg.c **** * Intended to be called at startup, based on the Vdda system configuration;
 275:.\Generated_Source\PSoC4/cyfitter_cfg.c **** * may be called during operation when the user informs us that the Vdda voltage crossed the pump th
 276:.\Generated_Source\PSoC4/cyfitter_cfg.c **** *
 277:.\Generated_Source\PSoC4/cyfitter_cfg.c **** * Parameters:
 278:.\Generated_Source\PSoC4/cyfitter_cfg.c **** *  enabled - 1 to enable the pumps, 0 to disable the pumps
 279:.\Generated_Source\PSoC4/cyfitter_cfg.c **** *
 280:.\Generated_Source\PSoC4/cyfitter_cfg.c **** * Return:
 281:.\Generated_Source\PSoC4/cyfitter_cfg.c **** *  void
 282:.\Generated_Source\PSoC4/cyfitter_cfg.c **** *
 283:.\Generated_Source\PSoC4/cyfitter_cfg.c **** *******************************************************************************/
 284:.\Generated_Source\PSoC4/cyfitter_cfg.c **** void SetAnalogRoutingPumps(uint8 enabled)
 285:.\Generated_Source\PSoC4/cyfitter_cfg.c **** {
 311              		.loc 1 285 0
ARM GAS  C:\Users\Tim\AppData\Local\Temp\cc0D5x6q.s 			page 12


 312              		.cfi_startproc
 313              	.LVL18:
 286:.\Generated_Source\PSoC4/cyfitter_cfg.c **** 	uint32 regValue = CY_GET_XTND_REG32((void *)(CYREG_SAR_PUMP_CTRL));
 314              		.loc 1 286 0
 315 0000 064B     		ldr	r3, .L16
 316 0002 1B68     		ldr	r3, [r3]
 317              	.LVL19:
 287:.\Generated_Source\PSoC4/cyfitter_cfg.c **** 	if (enabled != 0u)
 318              		.loc 1 287 0
 319 0004 0028     		cmp	r0, #0
 320 0006 03D0     		beq	.L14
 288:.\Generated_Source\PSoC4/cyfitter_cfg.c **** 	{
 289:.\Generated_Source\PSoC4/cyfitter_cfg.c **** 		regValue |= 0x80000000u;
 321              		.loc 1 289 0
 322 0008 8022     		mov	r2, #128
 323 000a 1206     		lsl	r2, r2, #24
 324 000c 1343     		orr	r3, r2
 325              	.LVL20:
 326 000e 01E0     		b	.L15
 327              	.L14:
 290:.\Generated_Source\PSoC4/cyfitter_cfg.c **** 	}
 291:.\Generated_Source\PSoC4/cyfitter_cfg.c **** 	else
 292:.\Generated_Source\PSoC4/cyfitter_cfg.c **** 	{
 293:.\Generated_Source\PSoC4/cyfitter_cfg.c **** 		regValue &= ~0x80000000u;
 328              		.loc 1 293 0
 329 0010 5B00     		lsl	r3, r3, #1
 330              	.LVL21:
 331 0012 5B08     		lsr	r3, r3, #1
 332              	.LVL22:
 333              	.L15:
 294:.\Generated_Source\PSoC4/cyfitter_cfg.c **** 	}
 295:.\Generated_Source\PSoC4/cyfitter_cfg.c **** 	CY_SET_XTND_REG32((void *)(CYREG_SAR_PUMP_CTRL), regValue);
 334              		.loc 1 295 0
 335 0014 014A     		ldr	r2, .L16
 336 0016 1360     		str	r3, [r2]
 296:.\Generated_Source\PSoC4/cyfitter_cfg.c **** }
 337              		.loc 1 296 0
 338              		@ sp needed
 339 0018 7047     		bx	lr
 340              	.L17:
 341 001a C046     		.align	2
 342              	.L16:
 343 001c 80033A40 		.word	1077543808
 344              		.cfi_endproc
 345              	.LFE7:
 346              		.size	SetAnalogRoutingPumps, .-SetAnalogRoutingPumps
 347              		.section	.psocinit
 348              		.align	2
 349              		.global	cyfitter_cfg
 350              		.code	16
 351              		.thumb_func
 352              		.type	cyfitter_cfg, %function
 353              	cyfitter_cfg:
 354              	.LFB8:
 297:.\Generated_Source\PSoC4/cyfitter_cfg.c **** 
 298:.\Generated_Source\PSoC4/cyfitter_cfg.c **** #define CY_AMUX_UNUSED CYREG_CM0_ROM_DWT
 299:.\Generated_Source\PSoC4/cyfitter_cfg.c **** 
ARM GAS  C:\Users\Tim\AppData\Local\Temp\cc0D5x6q.s 			page 13


 300:.\Generated_Source\PSoC4/cyfitter_cfg.c **** 
 301:.\Generated_Source\PSoC4/cyfitter_cfg.c **** /*******************************************************************************
 302:.\Generated_Source\PSoC4/cyfitter_cfg.c **** * Function Name: cyfitter_cfg
 303:.\Generated_Source\PSoC4/cyfitter_cfg.c **** ********************************************************************************
 304:.\Generated_Source\PSoC4/cyfitter_cfg.c **** * Summary:
 305:.\Generated_Source\PSoC4/cyfitter_cfg.c **** *  This function is called by the start-up code for the selected device. It
 306:.\Generated_Source\PSoC4/cyfitter_cfg.c **** *  performs all of the necessary device configuration based on the design
 307:.\Generated_Source\PSoC4/cyfitter_cfg.c **** *  settings.  This includes settings from the Design Wide Resources (DWR) such
 308:.\Generated_Source\PSoC4/cyfitter_cfg.c **** *  as Clocks and Pins as well as any component configuration that is necessary.
 309:.\Generated_Source\PSoC4/cyfitter_cfg.c **** *
 310:.\Generated_Source\PSoC4/cyfitter_cfg.c **** * Parameters:  
 311:.\Generated_Source\PSoC4/cyfitter_cfg.c **** *   void
 312:.\Generated_Source\PSoC4/cyfitter_cfg.c **** *
 313:.\Generated_Source\PSoC4/cyfitter_cfg.c **** * Return:
 314:.\Generated_Source\PSoC4/cyfitter_cfg.c **** *   void
 315:.\Generated_Source\PSoC4/cyfitter_cfg.c **** *
 316:.\Generated_Source\PSoC4/cyfitter_cfg.c **** *******************************************************************************/
 317:.\Generated_Source\PSoC4/cyfitter_cfg.c **** CY_CFG_SECTION
 318:.\Generated_Source\PSoC4/cyfitter_cfg.c **** void cyfitter_cfg(void)
 319:.\Generated_Source\PSoC4/cyfitter_cfg.c **** {
 355              		.loc 1 319 0
 356              		.cfi_startproc
 357 00ec 10B5     		push	{r4, lr}
 358              		.cfi_def_cfa_offset 8
 359              		.cfi_offset 4, -8
 360              		.cfi_offset 14, -4
 320:.\Generated_Source\PSoC4/cyfitter_cfg.c **** 	/* Disable interrupts by default. Let user enable if/when they want. */
 321:.\Generated_Source\PSoC4/cyfitter_cfg.c **** 	CyGlobalIntDisable;
 361              		.loc 1 321 0
 362              	@ 321 ".\Generated_Source\PSoC4\cyfitter_cfg.c" 1
 363 00ee 72B6     		CPSID   i
 364              	@ 0 "" 2
 365              	.LVL23:
 366              		.code	16
 367              	.LBB3:
 322:.\Generated_Source\PSoC4/cyfitter_cfg.c **** 
 323:.\Generated_Source\PSoC4/cyfitter_cfg.c **** 	{
 324:.\Generated_Source\PSoC4/cyfitter_cfg.c **** 		static const uint32 CYCODE cy_cfg_addr_table[] = {
 325:.\Generated_Source\PSoC4/cyfitter_cfg.c **** 			0x400F3210u, /* Base address: 0x400F3200 Count: 16 */
 326:.\Generated_Source\PSoC4/cyfitter_cfg.c **** 			0x400F3315u, /* Base address: 0x400F3300 Count: 21 */
 327:.\Generated_Source\PSoC4/cyfitter_cfg.c **** 			0x400F4002u, /* Base address: 0x400F4000 Count: 2 */
 328:.\Generated_Source\PSoC4/cyfitter_cfg.c **** 			0x400F410Eu, /* Base address: 0x400F4100 Count: 14 */
 329:.\Generated_Source\PSoC4/cyfitter_cfg.c **** 			0x400F4202u, /* Base address: 0x400F4200 Count: 2 */
 330:.\Generated_Source\PSoC4/cyfitter_cfg.c **** 			0x400F430Eu, /* Base address: 0x400F4300 Count: 14 */
 331:.\Generated_Source\PSoC4/cyfitter_cfg.c **** 			0x400F6002u, /* Base address: 0x400F6000 Count: 2 */
 332:.\Generated_Source\PSoC4/cyfitter_cfg.c **** 		};
 333:.\Generated_Source\PSoC4/cyfitter_cfg.c **** 
 334:.\Generated_Source\PSoC4/cyfitter_cfg.c **** 		static const cy_cfg_addrvalue_t CYCODE cy_cfg_data_table[] = {
 335:.\Generated_Source\PSoC4/cyfitter_cfg.c **** 			{0x02u, 0x08u},
 336:.\Generated_Source\PSoC4/cyfitter_cfg.c **** 			{0x12u, 0x01u},
 337:.\Generated_Source\PSoC4/cyfitter_cfg.c **** 			{0x16u, 0x04u},
 338:.\Generated_Source\PSoC4/cyfitter_cfg.c **** 			{0x1Eu, 0x02u},
 339:.\Generated_Source\PSoC4/cyfitter_cfg.c **** 			{0x28u, 0x09u},
 340:.\Generated_Source\PSoC4/cyfitter_cfg.c **** 			{0x2Au, 0x06u},
 341:.\Generated_Source\PSoC4/cyfitter_cfg.c **** 			{0x2Cu, 0x05u},
 342:.\Generated_Source\PSoC4/cyfitter_cfg.c **** 			{0x2Eu, 0x0Au},
 343:.\Generated_Source\PSoC4/cyfitter_cfg.c **** 			{0x36u, 0x0Fu},
ARM GAS  C:\Users\Tim\AppData\Local\Temp\cc0D5x6q.s 			page 14


 344:.\Generated_Source\PSoC4/cyfitter_cfg.c **** 			{0x3Eu, 0x40u},
 345:.\Generated_Source\PSoC4/cyfitter_cfg.c **** 			{0x58u, 0x04u},
 346:.\Generated_Source\PSoC4/cyfitter_cfg.c **** 			{0x5Bu, 0x04u},
 347:.\Generated_Source\PSoC4/cyfitter_cfg.c **** 			{0x5Fu, 0x01u},
 348:.\Generated_Source\PSoC4/cyfitter_cfg.c **** 			{0xBDu, 0x10u},
 349:.\Generated_Source\PSoC4/cyfitter_cfg.c **** 			{0xD9u, 0x04u},
 350:.\Generated_Source\PSoC4/cyfitter_cfg.c **** 			{0xDFu, 0x01u},
 351:.\Generated_Source\PSoC4/cyfitter_cfg.c **** 			{0x04u, 0x02u},
 352:.\Generated_Source\PSoC4/cyfitter_cfg.c **** 			{0x0Du, 0x08u},
 353:.\Generated_Source\PSoC4/cyfitter_cfg.c **** 			{0x0Fu, 0x82u},
 354:.\Generated_Source\PSoC4/cyfitter_cfg.c **** 			{0x15u, 0x50u},
 355:.\Generated_Source\PSoC4/cyfitter_cfg.c **** 			{0x1Fu, 0x40u},
 356:.\Generated_Source\PSoC4/cyfitter_cfg.c **** 			{0x20u, 0x04u},
 357:.\Generated_Source\PSoC4/cyfitter_cfg.c **** 			{0x6Du, 0x50u},
 358:.\Generated_Source\PSoC4/cyfitter_cfg.c **** 			{0x78u, 0x02u},
 359:.\Generated_Source\PSoC4/cyfitter_cfg.c **** 			{0x80u, 0x01u},
 360:.\Generated_Source\PSoC4/cyfitter_cfg.c **** 			{0x83u, 0x40u},
 361:.\Generated_Source\PSoC4/cyfitter_cfg.c **** 			{0x87u, 0x40u},
 362:.\Generated_Source\PSoC4/cyfitter_cfg.c **** 			{0x89u, 0x08u},
 363:.\Generated_Source\PSoC4/cyfitter_cfg.c **** 			{0x8Bu, 0x01u},
 364:.\Generated_Source\PSoC4/cyfitter_cfg.c **** 			{0x8Cu, 0x06u},
 365:.\Generated_Source\PSoC4/cyfitter_cfg.c **** 			{0xC0u, 0x10u},
 366:.\Generated_Source\PSoC4/cyfitter_cfg.c **** 			{0xC2u, 0xB0u},
 367:.\Generated_Source\PSoC4/cyfitter_cfg.c **** 			{0xC4u, 0xC0u},
 368:.\Generated_Source\PSoC4/cyfitter_cfg.c **** 			{0xDEu, 0x01u},
 369:.\Generated_Source\PSoC4/cyfitter_cfg.c **** 			{0xE0u, 0x80u},
 370:.\Generated_Source\PSoC4/cyfitter_cfg.c **** 			{0xE4u, 0x20u},
 371:.\Generated_Source\PSoC4/cyfitter_cfg.c **** 			{0xECu, 0x10u},
 372:.\Generated_Source\PSoC4/cyfitter_cfg.c **** 			{0x10u, 0x08u},
 373:.\Generated_Source\PSoC4/cyfitter_cfg.c **** 			{0xC4u, 0x40u},
 374:.\Generated_Source\PSoC4/cyfitter_cfg.c **** 			{0x03u, 0x11u},
 375:.\Generated_Source\PSoC4/cyfitter_cfg.c **** 			{0x05u, 0x42u},
 376:.\Generated_Source\PSoC4/cyfitter_cfg.c **** 			{0x4Bu, 0x10u},
 377:.\Generated_Source\PSoC4/cyfitter_cfg.c **** 			{0x81u, 0x02u},
 378:.\Generated_Source\PSoC4/cyfitter_cfg.c **** 			{0x83u, 0x10u},
 379:.\Generated_Source\PSoC4/cyfitter_cfg.c **** 			{0x87u, 0x10u},
 380:.\Generated_Source\PSoC4/cyfitter_cfg.c **** 			{0x89u, 0x40u},
 381:.\Generated_Source\PSoC4/cyfitter_cfg.c **** 			{0x8Bu, 0x01u},
 382:.\Generated_Source\PSoC4/cyfitter_cfg.c **** 			{0xB4u, 0x08u},
 383:.\Generated_Source\PSoC4/cyfitter_cfg.c **** 			{0xC0u, 0xF0u},
 384:.\Generated_Source\PSoC4/cyfitter_cfg.c **** 			{0xD2u, 0x10u},
 385:.\Generated_Source\PSoC4/cyfitter_cfg.c **** 			{0xE0u, 0x20u},
 386:.\Generated_Source\PSoC4/cyfitter_cfg.c **** 			{0xE2u, 0x10u},
 387:.\Generated_Source\PSoC4/cyfitter_cfg.c **** 			{0xE4u, 0x20u},
 388:.\Generated_Source\PSoC4/cyfitter_cfg.c **** 			{0x61u, 0x02u},
 389:.\Generated_Source\PSoC4/cyfitter_cfg.c **** 			{0xD8u, 0x02u},
 390:.\Generated_Source\PSoC4/cyfitter_cfg.c **** 			{0x09u, 0x01u},
 391:.\Generated_Source\PSoC4/cyfitter_cfg.c **** 			{0x1Cu, 0x10u},
 392:.\Generated_Source\PSoC4/cyfitter_cfg.c **** 			{0x30u, 0x02u},
 393:.\Generated_Source\PSoC4/cyfitter_cfg.c **** 			{0x60u, 0x10u},
 394:.\Generated_Source\PSoC4/cyfitter_cfg.c **** 			{0x8Cu, 0x02u},
 395:.\Generated_Source\PSoC4/cyfitter_cfg.c **** 			{0x8Du, 0x01u},
 396:.\Generated_Source\PSoC4/cyfitter_cfg.c **** 			{0xB5u, 0x02u},
 397:.\Generated_Source\PSoC4/cyfitter_cfg.c **** 			{0xC2u, 0x08u},
 398:.\Generated_Source\PSoC4/cyfitter_cfg.c **** 			{0xC6u, 0x04u},
 399:.\Generated_Source\PSoC4/cyfitter_cfg.c **** 			{0xCCu, 0x02u},
 400:.\Generated_Source\PSoC4/cyfitter_cfg.c **** 			{0xD8u, 0x02u},
ARM GAS  C:\Users\Tim\AppData\Local\Temp\cc0D5x6q.s 			page 15


 401:.\Generated_Source\PSoC4/cyfitter_cfg.c **** 			{0xE2u, 0x08u},
 402:.\Generated_Source\PSoC4/cyfitter_cfg.c **** 			{0xE4u, 0x02u},
 403:.\Generated_Source\PSoC4/cyfitter_cfg.c **** 			{0xECu, 0x08u},
 404:.\Generated_Source\PSoC4/cyfitter_cfg.c **** 			{0x02u, 0x01u},
 405:.\Generated_Source\PSoC4/cyfitter_cfg.c **** 			{0x11u, 0x01u},
 406:.\Generated_Source\PSoC4/cyfitter_cfg.c **** 		};
 407:.\Generated_Source\PSoC4/cyfitter_cfg.c **** 
 408:.\Generated_Source\PSoC4/cyfitter_cfg.c **** 
 409:.\Generated_Source\PSoC4/cyfitter_cfg.c **** 
 410:.\Generated_Source\PSoC4/cyfitter_cfg.c **** 		CYPACKED typedef struct {
 411:.\Generated_Source\PSoC4/cyfitter_cfg.c **** 			void CYFAR *address;
 412:.\Generated_Source\PSoC4/cyfitter_cfg.c **** 			uint16 size;
 413:.\Generated_Source\PSoC4/cyfitter_cfg.c **** 		} CYPACKED_ATTR cfg_memset_t;
 414:.\Generated_Source\PSoC4/cyfitter_cfg.c **** 
 415:.\Generated_Source\PSoC4/cyfitter_cfg.c **** 		static const cfg_memset_t CYCODE cfg_memset_list [] = {
 416:.\Generated_Source\PSoC4/cyfitter_cfg.c **** 			/* address, size */
 417:.\Generated_Source\PSoC4/cyfitter_cfg.c **** 			{(void CYFAR *)(CYDEV_UDB_P0_U0_BASE), 1024u},
 418:.\Generated_Source\PSoC4/cyfitter_cfg.c **** 			{(void CYFAR *)(CYDEV_UDB_DSI0_BASE), 1024u},
 419:.\Generated_Source\PSoC4/cyfitter_cfg.c **** 		};
 420:.\Generated_Source\PSoC4/cyfitter_cfg.c **** 
 421:.\Generated_Source\PSoC4/cyfitter_cfg.c **** 		uint8 CYDATA i;
 422:.\Generated_Source\PSoC4/cyfitter_cfg.c **** 
 423:.\Generated_Source\PSoC4/cyfitter_cfg.c **** 		/* Zero out critical memory blocks before beginning configuration */
 424:.\Generated_Source\PSoC4/cyfitter_cfg.c **** 		for (i = 0u; i < (sizeof(cfg_memset_list)/sizeof(cfg_memset_list[0])); i++)
 368              		.loc 1 424 0
 369 00f0 0024     		mov	r4, #0
 370 00f2 10E0     		b	.L19
 371              	.LVL24:
 372              	.L20:
 373              	.LBB4:
 425:.\Generated_Source\PSoC4/cyfitter_cfg.c **** 		{
 426:.\Generated_Source\PSoC4/cyfitter_cfg.c **** 			const cfg_memset_t CYCODE * CYDATA ms = &cfg_memset_list[i];
 427:.\Generated_Source\PSoC4/cyfitter_cfg.c **** 			CYMEMZERO(ms->address, (size_t)(uint32)(ms->size));
 374              		.loc 1 427 0 discriminator 3
 375 00f4 4648     		ldr	r0, .L21
 376 00f6 6300     		lsl	r3, r4, #1
 377 00f8 1A19     		add	r2, r3, r4
 378 00fa 5200     		lsl	r2, r2, #1
 379 00fc 8218     		add	r2, r0, r2
 380 00fe 9188     		ldrh	r1, [r2, #4]
 381 0100 1B19     		add	r3, r3, r4
 382 0102 5B00     		lsl	r3, r3, #1
 383 0104 1A5A     		ldrh	r2, [r3, r0]
 384 0106 C318     		add	r3, r0, r3
 385 0108 5888     		ldrh	r0, [r3, #2]
 386 010a 0004     		lsl	r0, r0, #16
 387 010c 1043     		orr	r0, r2
 388 010e FFF7FEFF 		bl	CYMEMZERO
 389              	.LVL25:
 390              	.LBE4:
 424:.\Generated_Source\PSoC4/cyfitter_cfg.c **** 		{
 391              		.loc 1 424 0 discriminator 3
 392 0112 0134     		add	r4, r4, #1
 393              	.LVL26:
 394 0114 E4B2     		uxtb	r4, r4
 395              	.LVL27:
 396              	.L19:
ARM GAS  C:\Users\Tim\AppData\Local\Temp\cc0D5x6q.s 			page 16


 424:.\Generated_Source\PSoC4/cyfitter_cfg.c **** 		{
 397              		.loc 1 424 0 is_stmt 0 discriminator 1
 398 0116 012C     		cmp	r4, #1
 399 0118 ECD9     		bls	.L20
 428:.\Generated_Source\PSoC4/cyfitter_cfg.c **** 		}
 429:.\Generated_Source\PSoC4/cyfitter_cfg.c **** 
 430:.\Generated_Source\PSoC4/cyfitter_cfg.c **** 		cfg_write_bytes32(cy_cfg_addr_table, cy_cfg_data_table);
 400              		.loc 1 430 0 is_stmt 1
 401 011a 3D49     		ldr	r1, .L21
 402 011c 081C     		mov	r0, r1
 403 011e 0C30     		add	r0, r0, #12
 404 0120 2831     		add	r1, r1, #40
 405 0122 FFF7FEFF 		bl	cfg_write_bytes32
 406              	.LVL28:
 431:.\Generated_Source\PSoC4/cyfitter_cfg.c **** 
 432:.\Generated_Source\PSoC4/cyfitter_cfg.c **** 		/* HSIOM Starting address: CYDEV_HSIOM_BASE */
 433:.\Generated_Source\PSoC4/cyfitter_cfg.c **** 		CY_SET_XTND_REG32((void CYFAR *)(CYREG_HSIOM_PORT_SEL2), 0x03000000u);
 407              		.loc 1 433 0
 408 0126 C022     		mov	r2, #192
 409 0128 9204     		lsl	r2, r2, #18
 410 012a 3A4B     		ldr	r3, .L21+4
 411 012c 1A60     		str	r2, [r3]
 434:.\Generated_Source\PSoC4/cyfitter_cfg.c **** 		CY_SET_XTND_REG32((void CYFAR *)(CYREG_HSIOM_PORT_SEL3), 0x0002EE90u);
 412              		.loc 1 434 0
 413 012e 3A4A     		ldr	r2, .L21+8
 414 0130 3A4B     		ldr	r3, .L21+12
 415 0132 1A60     		str	r2, [r3]
 435:.\Generated_Source\PSoC4/cyfitter_cfg.c **** 		CY_SET_XTND_REG32((void CYFAR *)(CYREG_HSIOM_PORT_SEL4), 0x000000EEu);
 416              		.loc 1 435 0
 417 0134 EE22     		mov	r2, #238
 418 0136 3A4B     		ldr	r3, .L21+16
 419 0138 1A60     		str	r2, [r3]
 436:.\Generated_Source\PSoC4/cyfitter_cfg.c **** 
 437:.\Generated_Source\PSoC4/cyfitter_cfg.c **** 		/* UDB_PA_0 Starting address: CYDEV_UDB_PA0_BASE */
 438:.\Generated_Source\PSoC4/cyfitter_cfg.c **** 		CY_SET_XTND_REG32((void CYFAR *)(CYDEV_UDB_PA0_BASE), 0x00990000u);
 420              		.loc 1 438 0
 421 013a 9922     		mov	r2, #153
 422 013c 1204     		lsl	r2, r2, #16
 423 013e 394B     		ldr	r3, .L21+20
 424 0140 1A60     		str	r2, [r3]
 439:.\Generated_Source\PSoC4/cyfitter_cfg.c **** 
 440:.\Generated_Source\PSoC4/cyfitter_cfg.c **** 		/* UDB_PA_1 Starting address: CYDEV_UDB_PA1_BASE */
 441:.\Generated_Source\PSoC4/cyfitter_cfg.c **** 		CY_SET_XTND_REG32((void CYFAR *)(CYDEV_UDB_PA1_BASE), 0x00990004u);
 425              		.loc 1 441 0
 426 0142 394B     		ldr	r3, .L21+24
 427 0144 3949     		ldr	r1, .L21+28
 428 0146 0B60     		str	r3, [r1]
 442:.\Generated_Source\PSoC4/cyfitter_cfg.c **** 		CY_SET_XTND_REG32((void CYFAR *)(CYREG_UDB_PA1_CFG4), 0x00AA0000u);
 429              		.loc 1 442 0
 430 0148 AA20     		mov	r0, #170
 431 014a 0004     		lsl	r0, r0, #16
 432 014c 3849     		ldr	r1, .L21+32
 433 014e 0860     		str	r0, [r1]
 443:.\Generated_Source\PSoC4/cyfitter_cfg.c **** 
 444:.\Generated_Source\PSoC4/cyfitter_cfg.c **** 		/* UDB_PA_2 Starting address: CYDEV_UDB_PA2_BASE */
 445:.\Generated_Source\PSoC4/cyfitter_cfg.c **** 		CY_SET_XTND_REG32((void CYFAR *)(CYDEV_UDB_PA2_BASE), 0x00990000u);
 434              		.loc 1 445 0
ARM GAS  C:\Users\Tim\AppData\Local\Temp\cc0D5x6q.s 			page 17


 435 0150 3849     		ldr	r1, .L21+36
 436 0152 0A60     		str	r2, [r1]
 446:.\Generated_Source\PSoC4/cyfitter_cfg.c **** 		CY_SET_XTND_REG32((void CYFAR *)(CYREG_UDB_PA2_CFG4), 0x0A000000u);
 437              		.loc 1 446 0
 438 0154 A021     		mov	r1, #160
 439 0156 0905     		lsl	r1, r1, #20
 440 0158 374A     		ldr	r2, .L21+40
 441 015a 1160     		str	r1, [r2]
 447:.\Generated_Source\PSoC4/cyfitter_cfg.c **** 		CY_SET_XTND_REG32((void CYFAR *)(CYREG_UDB_PA2_CFG8), 0x20000000u);
 442              		.loc 1 447 0
 443 015c 8021     		mov	r1, #128
 444 015e 8905     		lsl	r1, r1, #22
 445 0160 364A     		ldr	r2, .L21+44
 446 0162 1160     		str	r1, [r2]
 448:.\Generated_Source\PSoC4/cyfitter_cfg.c **** 
 449:.\Generated_Source\PSoC4/cyfitter_cfg.c **** 		/* UDB_PA_3 Starting address: CYDEV_UDB_PA3_BASE */
 450:.\Generated_Source\PSoC4/cyfitter_cfg.c **** 		CY_SET_XTND_REG32((void CYFAR *)(CYDEV_UDB_PA3_BASE), 0x00990004u);
 447              		.loc 1 450 0
 448 0164 364A     		ldr	r2, .L21+48
 449 0166 1360     		str	r3, [r2]
 451:.\Generated_Source\PSoC4/cyfitter_cfg.c **** 		CY_SET_XTND_REG32((void CYFAR *)(CYREG_UDB_PA3_CFG4), 0x02000000u);
 450              		.loc 1 451 0
 451 0168 8023     		mov	r3, #128
 452 016a 9B04     		lsl	r3, r3, #18
 453 016c 354A     		ldr	r2, .L21+52
 454 016e 1360     		str	r3, [r2]
 452:.\Generated_Source\PSoC4/cyfitter_cfg.c **** 		CY_SET_XTND_REG32((void CYFAR *)(CYREG_UDB_PA3_CFG8), 0x02000000u);
 455              		.loc 1 452 0
 456 0170 354A     		ldr	r2, .L21+56
 457 0172 1360     		str	r3, [r2]
 453:.\Generated_Source\PSoC4/cyfitter_cfg.c **** 		CY_SET_XTND_REG32((void CYFAR *)(CYREG_UDB_PA3_CFG12), 0x00000200u);
 458              		.loc 1 453 0
 459 0174 8022     		mov	r2, #128
 460 0176 9200     		lsl	r2, r2, #2
 461 0178 344B     		ldr	r3, .L21+60
 462 017a 1A60     		str	r2, [r3]
 454:.\Generated_Source\PSoC4/cyfitter_cfg.c **** 
 455:.\Generated_Source\PSoC4/cyfitter_cfg.c **** 		/* TCPWM_CNT0 Starting address: CYDEV_TCPWM_CNT0_TR_CTRL0 */
 456:.\Generated_Source\PSoC4/cyfitter_cfg.c **** 		CY_SET_XTND_REG32((void CYFAR *)(CYREG_TCPWM_CNT0_TR_CTRL0), 0x000EEE1Eu);
 463              		.loc 1 456 0
 464 017c 344A     		ldr	r2, .L21+64
 465 017e 354B     		ldr	r3, .L21+68
 466 0180 1A60     		str	r2, [r3]
 457:.\Generated_Source\PSoC4/cyfitter_cfg.c **** 
 458:.\Generated_Source\PSoC4/cyfitter_cfg.c **** 		/* Enable digital routing */
 459:.\Generated_Source\PSoC4/cyfitter_cfg.c **** 		CY_SET_XTND_REG8((void *)CYREG_UDB_UDBIF_BANK_CTL, CY_GET_XTND_REG8((void *)CYREG_UDB_UDBIF_BANK_
 467              		.loc 1 459 0
 468 0182 354B     		ldr	r3, .L21+72
 469 0184 1978     		ldrb	r1, [r3]
 470 0186 0222     		mov	r2, #2
 471 0188 0A43     		orr	r2, r1
 472 018a 1A70     		strb	r2, [r3]
 460:.\Generated_Source\PSoC4/cyfitter_cfg.c **** 
 461:.\Generated_Source\PSoC4/cyfitter_cfg.c **** 		/* Enable UDB array */
 462:.\Generated_Source\PSoC4/cyfitter_cfg.c **** 		CY_SET_XTND_REG8((void *)CYREG_UDB_UDBIF_WAIT_CFG, (uint8)((CY_GET_XTND_REG8((void *)CYREG_UDB_UD
 473              		.loc 1 462 0
 474 018c 3348     		ldr	r0, .L21+76
ARM GAS  C:\Users\Tim\AppData\Local\Temp\cc0D5x6q.s 			page 18


 475 018e 0278     		ldrb	r2, [r0]
 476 0190 3C21     		mov	r1, #60
 477 0192 8A43     		bic	r2, r1
 478 0194 2839     		sub	r1, r1, #40
 479 0196 0A43     		orr	r2, r1
 480 0198 0270     		strb	r2, [r0]
 463:.\Generated_Source\PSoC4/cyfitter_cfg.c **** 		CY_SET_XTND_REG8((void *)CYREG_UDB_UDBIF_BANK_CTL, (uint8)(CY_GET_XTND_REG8((void *)CYREG_UDB_UDB
 481              		.loc 1 463 0
 482 019a 1978     		ldrb	r1, [r3]
 483 019c 1622     		mov	r2, #22
 484 019e 0A43     		orr	r2, r1
 485 01a0 1A70     		strb	r2, [r3]
 486              	.LBE3:
 464:.\Generated_Source\PSoC4/cyfitter_cfg.c **** 	}
 465:.\Generated_Source\PSoC4/cyfitter_cfg.c **** 
 466:.\Generated_Source\PSoC4/cyfitter_cfg.c **** 
 467:.\Generated_Source\PSoC4/cyfitter_cfg.c **** 	/* Perform second pass device configuration. These items must be configured in specific order afte
 468:.\Generated_Source\PSoC4/cyfitter_cfg.c **** 	CY_SET_XTND_REG8((void CYFAR *)(CYREG_UDB_P1_U1_CFG24), 0xC0u);
 487              		.loc 1 468 0
 488 01a2 C022     		mov	r2, #192
 489 01a4 2E4B     		ldr	r3, .L21+80
 490 01a6 1A70     		strb	r2, [r3]
 469:.\Generated_Source\PSoC4/cyfitter_cfg.c **** 	/* IOPINS0_0 Starting address: CYDEV_GPIO_PRT0_BASE */
 470:.\Generated_Source\PSoC4/cyfitter_cfg.c **** 	CY_SET_XTND_REG32((void CYFAR *)(CYREG_GPIO_PRT0_PC), 0x00000D81u);
 491              		.loc 1 470 0
 492 01a8 2E4A     		ldr	r2, .L21+84
 493 01aa 2F4B     		ldr	r3, .L21+88
 494 01ac 1A60     		str	r2, [r3]
 471:.\Generated_Source\PSoC4/cyfitter_cfg.c **** 	CY_SET_XTND_REG32((void CYFAR *)(CYREG_GPIO_PRT0_INTR_CFG), 0x00000001u);
 495              		.loc 1 471 0
 496 01ae 0122     		mov	r2, #1
 497 01b0 2E4B     		ldr	r3, .L21+92
 498 01b2 1A60     		str	r2, [r3]
 472:.\Generated_Source\PSoC4/cyfitter_cfg.c **** 
 473:.\Generated_Source\PSoC4/cyfitter_cfg.c **** 	/* IOPINS0_1 Starting address: CYDEV_GPIO_PRT1_BASE */
 474:.\Generated_Source\PSoC4/cyfitter_cfg.c **** 	CY_SET_XTND_REG32((void CYFAR *)(CYDEV_GPIO_PRT1_BASE), 0x00000080u);
 499              		.loc 1 474 0
 500 01b4 8023     		mov	r3, #128
 501 01b6 2E4A     		ldr	r2, .L21+96
 502 01b8 1360     		str	r3, [r2]
 475:.\Generated_Source\PSoC4/cyfitter_cfg.c **** 	CY_SET_XTND_REG32((void CYFAR *)(CYREG_GPIO_PRT1_PC), 0x0000024Eu);
 503              		.loc 1 475 0
 504 01ba 2E49     		ldr	r1, .L21+100
 505 01bc 2E4A     		ldr	r2, .L21+104
 506 01be 1160     		str	r1, [r2]
 476:.\Generated_Source\PSoC4/cyfitter_cfg.c **** 	CY_SET_XTND_REG32((void CYFAR *)(CYREG_GPIO_PRT1_PC2), 0x00000080u);
 507              		.loc 1 476 0
 508 01c0 2E4A     		ldr	r2, .L21+108
 509 01c2 1360     		str	r3, [r2]
 477:.\Generated_Source\PSoC4/cyfitter_cfg.c **** 
 478:.\Generated_Source\PSoC4/cyfitter_cfg.c **** 	/* IOPINS0_2 Starting address: CYDEV_GPIO_PRT2_BASE */
 479:.\Generated_Source\PSoC4/cyfitter_cfg.c **** 	CY_SET_XTND_REG32((void CYFAR *)(CYDEV_GPIO_PRT2_BASE), 0x0000007Fu);
 510              		.loc 1 479 0
 511 01c4 7F22     		mov	r2, #127
 512 01c6 2E4B     		ldr	r3, .L21+112
 513 01c8 1A60     		str	r2, [r3]
 480:.\Generated_Source\PSoC4/cyfitter_cfg.c **** 	CY_SET_XTND_REG32((void CYFAR *)(CYREG_GPIO_PRT2_PC), 0x00192000u);
ARM GAS  C:\Users\Tim\AppData\Local\Temp\cc0D5x6q.s 			page 19


 514              		.loc 1 480 0
 515 01ca C922     		mov	r2, #201
 516 01cc 5203     		lsl	r2, r2, #13
 517 01ce 2D4B     		ldr	r3, .L21+116
 518 01d0 1A60     		str	r2, [r3]
 481:.\Generated_Source\PSoC4/cyfitter_cfg.c **** 	CY_SET_XTND_REG32((void CYFAR *)(CYREG_GPIO_PRT2_INTR_CFG), 0x00000F00u);
 519              		.loc 1 481 0
 520 01d2 F022     		mov	r2, #240
 521 01d4 1201     		lsl	r2, r2, #4
 522 01d6 2C4B     		ldr	r3, .L21+120
 523 01d8 1A60     		str	r2, [r3]
 482:.\Generated_Source\PSoC4/cyfitter_cfg.c **** 	CY_SET_XTND_REG32((void CYFAR *)(CYREG_GPIO_PRT2_PC2), 0x0000000Fu);
 524              		.loc 1 482 0
 525 01da 0F22     		mov	r2, #15
 526 01dc 2B4B     		ldr	r3, .L21+124
 527 01de 1A60     		str	r2, [r3]
 483:.\Generated_Source\PSoC4/cyfitter_cfg.c **** 
 484:.\Generated_Source\PSoC4/cyfitter_cfg.c **** 	/* IOPINS0_3 Starting address: CYDEV_GPIO_PRT3_BASE */
 485:.\Generated_Source\PSoC4/cyfitter_cfg.c **** 	CY_SET_XTND_REG32((void CYFAR *)(CYDEV_GPIO_PRT3_BASE), 0x00000022u);
 528              		.loc 1 485 0
 529 01e0 1332     		add	r2, r2, #19
 530 01e2 2B4B     		ldr	r3, .L21+128
 531 01e4 1A60     		str	r2, [r3]
 486:.\Generated_Source\PSoC4/cyfitter_cfg.c **** 	CY_SET_XTND_REG32((void CYFAR *)(CYREG_GPIO_PRT3_PC), 0x00033DB0u);
 532              		.loc 1 486 0
 533 01e6 2B4A     		ldr	r2, .L21+132
 534 01e8 2B4B     		ldr	r3, .L21+136
 535 01ea 1A60     		str	r2, [r3]
 487:.\Generated_Source\PSoC4/cyfitter_cfg.c **** 	CY_SET_XTND_REG32((void CYFAR *)(CYREG_GPIO_PRT3_PC2), 0x00000002u);
 536              		.loc 1 487 0
 537 01ec 2B4B     		ldr	r3, .L21+140
 538 01ee 0222     		mov	r2, #2
 539 01f0 1A60     		str	r2, [r3]
 488:.\Generated_Source\PSoC4/cyfitter_cfg.c **** 
 489:.\Generated_Source\PSoC4/cyfitter_cfg.c **** 	/* IOPINS0_4 Starting address: CYDEV_GPIO_PRT4_BASE */
 490:.\Generated_Source\PSoC4/cyfitter_cfg.c **** 	CY_SET_XTND_REG32((void CYFAR *)(CYDEV_GPIO_PRT4_BASE), 0x00000003u);
 540              		.loc 1 490 0
 541 01f2 0132     		add	r2, r2, #1
 542 01f4 2A4B     		ldr	r3, .L21+144
 543 01f6 1A60     		str	r2, [r3]
 491:.\Generated_Source\PSoC4/cyfitter_cfg.c **** 	CY_SET_XTND_REG32((void CYFAR *)(CYREG_GPIO_PRT4_PC), 0x00000024u);
 544              		.loc 1 491 0
 545 01f8 2132     		add	r2, r2, #33
 546 01fa 2A4B     		ldr	r3, .L21+148
 547 01fc 1A60     		str	r2, [r3]
 492:.\Generated_Source\PSoC4/cyfitter_cfg.c **** 
 493:.\Generated_Source\PSoC4/cyfitter_cfg.c **** 	/* IOPINS0_5 Starting address: CYDEV_GPIO_PRT5_BASE */
 494:.\Generated_Source\PSoC4/cyfitter_cfg.c **** 	CY_SET_XTND_REG32((void CYFAR *)(CYREG_GPIO_PRT5_PC), 0x00030C00u);
 548              		.loc 1 494 0
 549 01fe C322     		mov	r2, #195
 550 0200 9202     		lsl	r2, r2, #10
 551 0202 294B     		ldr	r3, .L21+152
 552 0204 1A60     		str	r2, [r3]
 495:.\Generated_Source\PSoC4/cyfitter_cfg.c **** 
 496:.\Generated_Source\PSoC4/cyfitter_cfg.c **** 
 497:.\Generated_Source\PSoC4/cyfitter_cfg.c **** 	/* Setup clocks based on selections from Clock DWR */
 498:.\Generated_Source\PSoC4/cyfitter_cfg.c **** 	ClockSetup();
ARM GAS  C:\Users\Tim\AppData\Local\Temp\cc0D5x6q.s 			page 20


 553              		.loc 1 498 0
 554 0206 FFF7FBFE 		bl	ClockSetup
 555              	.LVL29:
 499:.\Generated_Source\PSoC4/cyfitter_cfg.c **** 
 500:.\Generated_Source\PSoC4/cyfitter_cfg.c **** 	/* Perform basic analog initialization to defaults */
 501:.\Generated_Source\PSoC4/cyfitter_cfg.c **** 	AnalogSetDefault();
 556              		.loc 1 501 0
 557 020a FFF7FEFF 		bl	AnalogSetDefault
 558              	.LVL30:
 502:.\Generated_Source\PSoC4/cyfitter_cfg.c **** 
 503:.\Generated_Source\PSoC4/cyfitter_cfg.c **** }
 559              		.loc 1 503 0
 560              		@ sp needed
 561              	.LVL31:
 562 020e 10BD     		pop	{r4, pc}
 563              	.L22:
 564              		.align	2
 565              	.L21:
 566 0210 00000000 		.word	.LANCHOR0
 567 0214 00020240 		.word	1073873408
 568 0218 90EE0200 		.word	192144
 569 021c 00030240 		.word	1073873664
 570 0220 00040240 		.word	1073873920
 571 0224 00500F40 		.word	1074745344
 572 0228 04009900 		.word	10027012
 573 022c 10500F40 		.word	1074745360
 574 0230 14500F40 		.word	1074745364
 575 0234 20500F40 		.word	1074745376
 576 0238 24500F40 		.word	1074745380
 577 023c 28500F40 		.word	1074745384
 578 0240 30500F40 		.word	1074745392
 579 0244 34500F40 		.word	1074745396
 580 0248 38500F40 		.word	1074745400
 581 024c 3C500F40 		.word	1074745404
 582 0250 1EEE0E00 		.word	978462
 583 0254 20012040 		.word	1075839264
 584 0258 00700F40 		.word	1074753536
 585 025c 01700F40 		.word	1074753537
 586 0260 D8320F40 		.word	1074737880
 587 0264 810D0000 		.word	3457
 588 0268 08000440 		.word	1074003976
 589 026c 0C000440 		.word	1074003980
 590 0270 00010440 		.word	1074004224
 591 0274 4E020000 		.word	590
 592 0278 08010440 		.word	1074004232
 593 027c 18010440 		.word	1074004248
 594 0280 00020440 		.word	1074004480
 595 0284 08020440 		.word	1074004488
 596 0288 0C020440 		.word	1074004492
 597 028c 18020440 		.word	1074004504
 598 0290 00030440 		.word	1074004736
 599 0294 B03D0300 		.word	212400
 600 0298 08030440 		.word	1074004744
 601 029c 18030440 		.word	1074004760
 602 02a0 00040440 		.word	1074004992
 603 02a4 08040440 		.word	1074005000
 604 02a8 08050440 		.word	1074005256
ARM GAS  C:\Users\Tim\AppData\Local\Temp\cc0D5x6q.s 			page 21


 605              		.cfi_endproc
 606              	.LFE8:
 607              		.size	cyfitter_cfg, .-cyfitter_cfg
 608              		.section	.rodata
 609              		.align	2
 610              		.set	.LANCHOR0,. + 0
 611              		.type	cfg_memset_list.4764, %object
 612              		.size	cfg_memset_list.4764, 12
 613              	cfg_memset_list.4764:
 614 0000 00300F40 		.word	1074737152
 615 0004 0004     		.short	1024
 616 0006 00400F40 		.4byte	1074741248
 617 000a 0004     		.short	1024
 618              		.type	cy_cfg_addr_table.4758, %object
 619              		.size	cy_cfg_addr_table.4758, 28
 620              	cy_cfg_addr_table.4758:
 621 000c 10320F40 		.word	1074737680
 622 0010 15330F40 		.word	1074737941
 623 0014 02400F40 		.word	1074741250
 624 0018 0E410F40 		.word	1074741518
 625 001c 02420F40 		.word	1074741762
 626 0020 0E430F40 		.word	1074742030
 627 0024 02600F40 		.word	1074749442
 628              		.type	cy_cfg_data_table.4759, %object
 629              		.size	cy_cfg_data_table.4759, 142
 630              	cy_cfg_data_table.4759:
 631 0028 02       		.byte	2
 632 0029 08       		.byte	8
 633 002a 12       		.byte	18
 634 002b 01       		.byte	1
 635 002c 16       		.byte	22
 636 002d 04       		.byte	4
 637 002e 1E       		.byte	30
 638 002f 02       		.byte	2
 639 0030 28       		.byte	40
 640 0031 09       		.byte	9
 641 0032 2A       		.byte	42
 642 0033 06       		.byte	6
 643 0034 2C       		.byte	44
 644 0035 05       		.byte	5
 645 0036 2E       		.byte	46
 646 0037 0A       		.byte	10
 647 0038 36       		.byte	54
 648 0039 0F       		.byte	15
 649 003a 3E       		.byte	62
 650 003b 40       		.byte	64
 651 003c 58       		.byte	88
 652 003d 04       		.byte	4
 653 003e 5B       		.byte	91
 654 003f 04       		.byte	4
 655 0040 5F       		.byte	95
 656 0041 01       		.byte	1
 657 0042 BD       		.byte	-67
 658 0043 10       		.byte	16
 659 0044 D9       		.byte	-39
 660 0045 04       		.byte	4
 661 0046 DF       		.byte	-33
ARM GAS  C:\Users\Tim\AppData\Local\Temp\cc0D5x6q.s 			page 22


 662 0047 01       		.byte	1
 663 0048 04       		.byte	4
 664 0049 02       		.byte	2
 665 004a 0D       		.byte	13
 666 004b 08       		.byte	8
 667 004c 0F       		.byte	15
 668 004d 82       		.byte	-126
 669 004e 15       		.byte	21
 670 004f 50       		.byte	80
 671 0050 1F       		.byte	31
 672 0051 40       		.byte	64
 673 0052 20       		.byte	32
 674 0053 04       		.byte	4
 675 0054 6D       		.byte	109
 676 0055 50       		.byte	80
 677 0056 78       		.byte	120
 678 0057 02       		.byte	2
 679 0058 80       		.byte	-128
 680 0059 01       		.byte	1
 681 005a 83       		.byte	-125
 682 005b 40       		.byte	64
 683 005c 87       		.byte	-121
 684 005d 40       		.byte	64
 685 005e 89       		.byte	-119
 686 005f 08       		.byte	8
 687 0060 8B       		.byte	-117
 688 0061 01       		.byte	1
 689 0062 8C       		.byte	-116
 690 0063 06       		.byte	6
 691 0064 C0       		.byte	-64
 692 0065 10       		.byte	16
 693 0066 C2       		.byte	-62
 694 0067 B0       		.byte	-80
 695 0068 C4       		.byte	-60
 696 0069 C0       		.byte	-64
 697 006a DE       		.byte	-34
 698 006b 01       		.byte	1
 699 006c E0       		.byte	-32
 700 006d 80       		.byte	-128
 701 006e E4       		.byte	-28
 702 006f 20       		.byte	32
 703 0070 EC       		.byte	-20
 704 0071 10       		.byte	16
 705 0072 10       		.byte	16
 706 0073 08       		.byte	8
 707 0074 C4       		.byte	-60
 708 0075 40       		.byte	64
 709 0076 03       		.byte	3
 710 0077 11       		.byte	17
 711 0078 05       		.byte	5
 712 0079 42       		.byte	66
 713 007a 4B       		.byte	75
 714 007b 10       		.byte	16
 715 007c 81       		.byte	-127
 716 007d 02       		.byte	2
 717 007e 83       		.byte	-125
 718 007f 10       		.byte	16
ARM GAS  C:\Users\Tim\AppData\Local\Temp\cc0D5x6q.s 			page 23


 719 0080 87       		.byte	-121
 720 0081 10       		.byte	16
 721 0082 89       		.byte	-119
 722 0083 40       		.byte	64
 723 0084 8B       		.byte	-117
 724 0085 01       		.byte	1
 725 0086 B4       		.byte	-76
 726 0087 08       		.byte	8
 727 0088 C0       		.byte	-64
 728 0089 F0       		.byte	-16
 729 008a D2       		.byte	-46
 730 008b 10       		.byte	16
 731 008c E0       		.byte	-32
 732 008d 20       		.byte	32
 733 008e E2       		.byte	-30
 734 008f 10       		.byte	16
 735 0090 E4       		.byte	-28
 736 0091 20       		.byte	32
 737 0092 61       		.byte	97
 738 0093 02       		.byte	2
 739 0094 D8       		.byte	-40
 740 0095 02       		.byte	2
 741 0096 09       		.byte	9
 742 0097 01       		.byte	1
 743 0098 1C       		.byte	28
 744 0099 10       		.byte	16
 745 009a 30       		.byte	48
 746 009b 02       		.byte	2
 747 009c 60       		.byte	96
 748 009d 10       		.byte	16
 749 009e 8C       		.byte	-116
 750 009f 02       		.byte	2
 751 00a0 8D       		.byte	-115
 752 00a1 01       		.byte	1
 753 00a2 B5       		.byte	-75
 754 00a3 02       		.byte	2
 755 00a4 C2       		.byte	-62
 756 00a5 08       		.byte	8
 757 00a6 C6       		.byte	-58
 758 00a7 04       		.byte	4
 759 00a8 CC       		.byte	-52
 760 00a9 02       		.byte	2
 761 00aa D8       		.byte	-40
 762 00ab 02       		.byte	2
 763 00ac E2       		.byte	-30
 764 00ad 08       		.byte	8
 765 00ae E4       		.byte	-28
 766 00af 02       		.byte	2
 767 00b0 EC       		.byte	-20
 768 00b1 08       		.byte	8
 769 00b2 02       		.byte	2
 770 00b3 01       		.byte	1
 771 00b4 11       		.byte	17
 772 00b5 01       		.byte	1
 773 00b6 0000     		.text
 774              	.Letext0:
 775              		.file 2 "c:\\program files (x86)\\cypress\\psoc creator\\3.3\\psoc creator\\import\\gnu\\arm\\4.9.
ARM GAS  C:\Users\Tim\AppData\Local\Temp\cc0D5x6q.s 			page 24


 776              		.file 3 ".\\Generated_Source\\PSoC4\\cytypes.h"
 777              		.file 4 ".\\Generated_Source\\PSoC4\\CyLib.h"