ARM GAS  C:\Users\Tim\AppData\Local\Temp\ccaYskBP.s 			page 1


   1              		.cpu cortex-m0
   2              		.fpu softvfp
   3              		.eabi_attribute 20, 1
   4              		.eabi_attribute 21, 1
   5              		.eabi_attribute 23, 3
   6              		.eabi_attribute 24, 1
   7              		.eabi_attribute 25, 1
   8              		.eabi_attribute 26, 1
   9              		.eabi_attribute 30, 1
  10              		.eabi_attribute 34, 0
  11              		.eabi_attribute 18, 4
  12              		.code	16
  13              		.file	"encoder.c"
  14              		.text
  15              	.Ltext0:
  16              		.cfi_sections	.debug_frame
  17              		.section	.text.CalcCount,"ax",%progbits
  18              		.align	2
  19              		.code	16
  20              		.thumb_func
  21              		.type	CalcCount, %function
  22              	CalcCount:
  23              	.LFB34:
  24              		.file 1 "..\\source\\encoder.c"
   1:..\source/encoder.c **** /* ========================================
   2:..\source/encoder.c ****  *
   3:..\source/encoder.c ****  * Copyright YOUR COMPANY, THE YEAR
   4:..\source/encoder.c ****  * All Rights Reserved
   5:..\source/encoder.c ****  * UNPUBLISHED, LICENSED SOFTWARE.
   6:..\source/encoder.c ****  *
   7:..\source/encoder.c ****  * CONFIDENTIAL AND PROPRIETARY INFORMATION
   8:..\source/encoder.c ****  * WHICH IS THE PROPERTY OF your company.
   9:..\source/encoder.c ****  *
  10:..\source/encoder.c ****  * ========================================
  11:..\source/encoder.c **** */
  12:..\source/encoder.c **** 
  13:..\source/encoder.c **** #include <stdlib.h>
  14:..\source/encoder.c **** #include "encoder.h"
  15:..\source/encoder.c **** #include "utils.h"
  16:..\source/encoder.c **** #include "i2c.h"
  17:..\source/encoder.c **** #include "time.h"
  18:..\source/encoder.c **** #include "debug.h"
  19:..\source/encoder.c **** 
  20:..\source/encoder.c **** #define SAMPLE_RATE (10) /* Hz */
  21:..\source/encoder.c **** #define SAMPLE_PERIOD (1000/SAMPLE_RATE) /* milliseconds */
  22:..\source/encoder.c **** #define MILLIS_PER_SECOND (1000)
  23:..\source/encoder.c **** 
  24:..\source/encoder.c **** #define MILLIMETERS_PER_REVOLUTION (479.0) /* millimeters */
  25:..\source/encoder.c **** #define COUNTS_PER_REVOLUTION (36.0 * 4)  /* 36 teeth per revolution (4x encoder) */
  26:..\source/encoder.c **** #define MILLIMETERS_PER_COUNT (MILLIMETERS_PER_REVOLUTION/COUNTS_PER_REVOLUTION) /* millimeters */
  27:..\source/encoder.c **** 
  28:..\source/encoder.c **** /* Aliases for the encoder pins */
  29:..\source/encoder.c **** #define Pins_Encoder_A_Read() (Encoder_Pins_Read() & 0x01)
  30:..\source/encoder.c **** #define Pins_Encoder_B_Read() ((Encoder_Pins_Read() & 0x02) >> 1)
  31:..\source/encoder.c **** 
  32:..\source/encoder.c **** #define ENCODER_A (0x01)
  33:..\source/encoder.c **** #define ENCODER_B (0x02)
ARM GAS  C:\Users\Tim\AppData\Local\Temp\ccaYskBP.s 			page 2


  34:..\source/encoder.c **** 
  35:..\source/encoder.c **** static volatile int32_t enc_count;
  36:..\source/encoder.c **** static volatile int32 last_enc_count;
  37:..\source/encoder.c **** static volatile int16 enc_velocity;
  38:..\source/encoder.c **** static volatile uint32 last_velocity_time;
  39:..\source/encoder.c **** 
  40:..\source/encoder.c **** 
  41:..\source/encoder.c **** // Encoder Lookup Table
  42:..\source/encoder.c **** //      sequence: 00 <-> 01 <-> 11 <-> 10 <-> 00 <-> 01 <-> 10 <-> 11 <-> ...
  43:..\source/encoder.c **** static const int8_t enc_states [] = { 0, /* 00 -> 00 : No Change    */
  44:..\source/encoder.c ****                                      -1, /* 00 -> 01 : CCW          */
  45:..\source/encoder.c ****                                       1, /* 00 -> 10 : CW           */
  46:..\source/encoder.c ****                                       0, /* 00 -> 11 : Can't Happen */
  47:..\source/encoder.c ****                                       1, /* 01 -> 00 : CW           */
  48:..\source/encoder.c ****                                       0, /* 01 -> 01 : No Change    */
  49:..\source/encoder.c ****                                       0, /* 01 -> 10 : Can't Happen */
  50:..\source/encoder.c ****                                      -1, /* 01 -> 11 : CCW          */
  51:..\source/encoder.c ****                                      -1, /* 10 -> 00 : CCW          */
  52:..\source/encoder.c ****                                       0, /* 10 -> 01 : Can't Happen */
  53:..\source/encoder.c ****                                       0, /* 10 -> 10 : No Change    */
  54:..\source/encoder.c ****                                       1, /* 10 -> 11 : CW           */
  55:..\source/encoder.c ****                                       0, /* 11 -> 00 : Can't Happen */
  56:..\source/encoder.c ****                                       1, /* 11 -> 01 : CW           */
  57:..\source/encoder.c ****                                      -1, /* 11 -> 10 : CCW          */
  58:..\source/encoder.c ****                                       0  /* 11 -> 11 : No Change    */
  59:..\source/encoder.c ****                                     };
  60:..\source/encoder.c **** static uint8 old_ab = 0;
  61:..\source/encoder.c **** 
  62:..\source/encoder.c **** static int32 CalcCount(uint8 a, uint8 b)
  63:..\source/encoder.c **** {
  25              		.loc 1 63 0
  26              		.cfi_startproc
  27              	.LVL0:
  64:..\source/encoder.c **** 
  65:..\source/encoder.c ****     /* Combine old state and new state into a 4 bit number, 0 .. 15, and use as an index
  66:..\source/encoder.c ****        into the encoder state transistion table
  67:..\source/encoder.c ****      */
  68:..\source/encoder.c ****     
  69:..\source/encoder.c ****     old_ab <<= 2;
  28              		.loc 1 69 0
  29 0000 074A     		ldr	r2, .L2
  30 0002 1378     		ldrb	r3, [r2]
  31 0004 9B00     		lsl	r3, r3, #2
  32 0006 DBB2     		uxtb	r3, r3
  70:..\source/encoder.c ****     old_ab |= ( (a << 1) + b ) & 0x03;
  33              		.loc 1 70 0
  34 0008 4000     		lsl	r0, r0, #1
  35              	.LVL1:
  36 000a 0818     		add	r0, r1, r0
  37 000c 0321     		mov	r1, #3
  38              	.LVL2:
  39 000e 0140     		and	r1, r0
  40 0010 1943     		orr	r1, r3
  41 0012 1170     		strb	r1, [r2]
  71:..\source/encoder.c ****     
  72:..\source/encoder.c ****     return DIRECTION * enc_states[( old_ab & 0x0f )];
  42              		.loc 1 72 0
ARM GAS  C:\Users\Tim\AppData\Local\Temp\ccaYskBP.s 			page 3


  43 0014 0F20     		mov	r0, #15
  44 0016 0140     		and	r1, r0
  45 0018 024B     		ldr	r3, .L2+4
  46 001a 5856     		ldrsb	r0, [r3, r1]
  73:..\source/encoder.c **** }
  47              		.loc 1 73 0
  48              		@ sp needed
  49 001c 7047     		bx	lr
  50              	.L3:
  51 001e C046     		.align	2
  52              	.L2:
  53 0020 00000000 		.word	.LANCHOR0
  54 0024 00000000 		.word	.LANCHOR1
  55              		.cfi_endproc
  56              	.LFE34:
  57              		.size	CalcCount, .-CalcCount
  58              		.section	.text.Encoder_Interrupt_Handler,"ax",%progbits
  59              		.align	2
  60              		.global	Encoder_Interrupt_Handler
  61              		.code	16
  62              		.thumb_func
  63              		.type	Encoder_Interrupt_Handler, %function
  64              	Encoder_Interrupt_Handler:
  65              	.LFB35:
  74:..\source/encoder.c **** 
  75:..\source/encoder.c **** CY_ISR( Encoder_Interrupt_Handler )
  76:..\source/encoder.c **** /* An interrupt can occur on either pin A or B
  77:..\source/encoder.c ****    When an interrupt occurs, 
  78:..\source/encoder.c ****     - clear the interrupt
  79:..\source/encoder.c ****     - capture the state of both A and B
  80:..\source/encoder.c ****     - pass A/B state to calculate the count
  81:..\source/encoder.c ****  */
  82:..\source/encoder.c **** {       
  66              		.loc 1 82 0
  67              		.cfi_startproc
  68 0000 10B5     		push	{r4, lr}
  69              		.cfi_def_cfa_offset 8
  70              		.cfi_offset 4, -8
  71              		.cfi_offset 14, -4
  72              	.LVL3:
  83:..\source/encoder.c ****     uint8 pins = 0;
  84:..\source/encoder.c ****     uint8 a_pin = 0;
  85:..\source/encoder.c ****     uint8 b_pin = 0;
  86:..\source/encoder.c ****     
  87:..\source/encoder.c ****     pins = Encoder_Pins_ClearInterrupt();
  73              		.loc 1 87 0
  74 0002 FFF7FEFF 		bl	Encoder_Pins_ClearInterrupt
  75              	.LVL4:
  88:..\source/encoder.c ****     
  89:..\source/encoder.c ****     if (pins & (ENCODER_A | ENCODER_B) )
  76              		.loc 1 89 0
  77 0006 8307     		lsl	r3, r0, #30
  78 0008 0ED0     		beq	.L4
  90:..\source/encoder.c ****     {
  91:..\source/encoder.c ****         a_pin = Pins_Encoder_A_Read();
  79              		.loc 1 91 0
  80 000a FFF7FEFF 		bl	Encoder_Pins_Read
ARM GAS  C:\Users\Tim\AppData\Local\Temp\ccaYskBP.s 			page 4


  81              	.LVL5:
  82 000e 0124     		mov	r4, #1
  83 0010 0440     		and	r4, r0
  84              	.LVL6:
  92:..\source/encoder.c ****         b_pin = Pins_Encoder_B_Read();
  85              		.loc 1 92 0
  86 0012 FFF7FEFF 		bl	Encoder_Pins_Read
  87              	.LVL7:
  88 0016 8107     		lsl	r1, r0, #30
  89 0018 C90F     		lsr	r1, r1, #31
  90              	.LVL8:
  93:..\source/encoder.c ****         
  94:..\source/encoder.c ****         enc_count += CalcCount(a_pin, b_pin);
  91              		.loc 1 94 0
  92 001a 201C     		mov	r0, r4
  93 001c FFF7FEFF 		bl	CalcCount
  94              	.LVL9:
  95 0020 024A     		ldr	r2, .L6
  96 0022 5368     		ldr	r3, [r2, #4]
  97 0024 C018     		add	r0, r0, r3
  98 0026 5060     		str	r0, [r2, #4]
  99              	.LVL10:
 100              	.L4:
  95:..\source/encoder.c ****     }
  96:..\source/encoder.c **** }
 101              		.loc 1 96 0
 102              		@ sp needed
 103 0028 10BD     		pop	{r4, pc}
 104              	.L7:
 105 002a C046     		.align	2
 106              	.L6:
 107 002c 00000000 		.word	.LANCHOR0
 108              		.cfi_endproc
 109              	.LFE35:
 110              		.size	Encoder_Interrupt_Handler, .-Encoder_Interrupt_Handler
 111              		.section	.text.Encoder_Init,"ax",%progbits
 112              		.align	2
 113              		.global	Encoder_Init
 114              		.code	16
 115              		.thumb_func
 116              		.type	Encoder_Init, %function
 117              	Encoder_Init:
 118              	.LFB36:
  97:..\source/encoder.c **** 
  98:..\source/encoder.c **** void Encoder_Init()
  99:..\source/encoder.c **** {
 119              		.loc 1 99 0
 120              		.cfi_startproc
 100:..\source/encoder.c ****     enc_count = 0;
 121              		.loc 1 100 0
 122 0000 034B     		ldr	r3, .L9
 123 0002 0022     		mov	r2, #0
 124 0004 5A60     		str	r2, [r3, #4]
 101:..\source/encoder.c ****     enc_velocity = 0;    
 125              		.loc 1 101 0
 126 0006 1A81     		strh	r2, [r3, #8]
 102:..\source/encoder.c ****     last_velocity_time = 0;
ARM GAS  C:\Users\Tim\AppData\Local\Temp\ccaYskBP.s 			page 5


 127              		.loc 1 102 0
 128 0008 DA60     		str	r2, [r3, #12]
 103:..\source/encoder.c ****     last_enc_count = 0;
 129              		.loc 1 103 0
 130 000a 1A61     		str	r2, [r3, #16]
 104:..\source/encoder.c **** }
 131              		.loc 1 104 0
 132              		@ sp needed
 133 000c 7047     		bx	lr
 134              	.L10:
 135 000e C046     		.align	2
 136              	.L9:
 137 0010 00000000 		.word	.LANCHOR0
 138              		.cfi_endproc
 139              	.LFE36:
 140              		.size	Encoder_Init, .-Encoder_Init
 141              		.section	.text.Encoder_Start,"ax",%progbits
 142              		.align	2
 143              		.global	Encoder_Start
 144              		.code	16
 145              		.thumb_func
 146              		.type	Encoder_Start, %function
 147              	Encoder_Start:
 148              	.LFB37:
 105:..\source/encoder.c **** 
 106:..\source/encoder.c **** void Encoder_Start()
 107:..\source/encoder.c **** {
 149              		.loc 1 107 0
 150              		.cfi_startproc
 151 0000 08B5     		push	{r3, lr}
 152              		.cfi_def_cfa_offset 8
 153              		.cfi_offset 3, -8
 154              		.cfi_offset 14, -4
 108:..\source/encoder.c ****     Encoder_Intr_StartEx( Encoder_Interrupt_Handler );    
 155              		.loc 1 108 0
 156 0002 0248     		ldr	r0, .L12
 157 0004 FFF7FEFF 		bl	Encoder_Intr_StartEx
 158              	.LVL11:
 109:..\source/encoder.c **** }
 159              		.loc 1 109 0
 160              		@ sp needed
 161 0008 08BD     		pop	{r3, pc}
 162              	.L13:
 163 000a C046     		.align	2
 164              	.L12:
 165 000c 00000000 		.word	Encoder_Interrupt_Handler
 166              		.cfi_endproc
 167              	.LFE37:
 168              		.size	Encoder_Start, .-Encoder_Start
 169              		.section	.text.Encoder_GetVelocity,"ax",%progbits
 170              		.align	2
 171              		.global	Encoder_GetVelocity
 172              		.code	16
 173              		.thumb_func
 174              		.type	Encoder_GetVelocity, %function
 175              	Encoder_GetVelocity:
 176              	.LFB38:
ARM GAS  C:\Users\Tim\AppData\Local\Temp\ccaYskBP.s 			page 6


 110:..\source/encoder.c **** 
 111:..\source/encoder.c **** int16 Encoder_GetVelocity()
 112:..\source/encoder.c **** {
 177              		.loc 1 112 0
 178              		.cfi_startproc
 113:..\source/encoder.c ****     return enc_velocity;
 179              		.loc 1 113 0
 180 0000 014B     		ldr	r3, .L15
 181 0002 1889     		ldrh	r0, [r3, #8]
 182 0004 00B2     		sxth	r0, r0
 114:..\source/encoder.c **** }
 183              		.loc 1 114 0
 184              		@ sp needed
 185 0006 7047     		bx	lr
 186              	.L16:
 187              		.align	2
 188              	.L15:
 189 0008 00000000 		.word	.LANCHOR0
 190              		.cfi_endproc
 191              	.LFE38:
 192              		.size	Encoder_GetVelocity, .-Encoder_GetVelocity
 193              		.section	.text.Encoder_GetCount,"ax",%progbits
 194              		.align	2
 195              		.global	Encoder_GetCount
 196              		.code	16
 197              		.thumb_func
 198              		.type	Encoder_GetCount, %function
 199              	Encoder_GetCount:
 200              	.LFB39:
 115:..\source/encoder.c **** 
 116:..\source/encoder.c **** int32 Encoder_GetCount()
 117:..\source/encoder.c **** {
 201              		.loc 1 117 0
 202              		.cfi_startproc
 203 0000 10B5     		push	{r4, lr}
 204              		.cfi_def_cfa_offset 8
 205              		.cfi_offset 4, -8
 206              		.cfi_offset 14, -4
 118:..\source/encoder.c ****     int32 value;
 119:..\source/encoder.c ****     Encoder_Intr_Disable();
 207              		.loc 1 119 0
 208 0002 FFF7FEFF 		bl	Encoder_Intr_Disable
 209              	.LVL12:
 120:..\source/encoder.c ****     value = enc_count;
 210              		.loc 1 120 0
 211 0006 034B     		ldr	r3, .L18
 212 0008 5C68     		ldr	r4, [r3, #4]
 213              	.LVL13:
 121:..\source/encoder.c ****     Encoder_Intr_Enable();
 214              		.loc 1 121 0
 215 000a FFF7FEFF 		bl	Encoder_Intr_Enable
 216              	.LVL14:
 122:..\source/encoder.c ****     return value;
 123:..\source/encoder.c **** }
 217              		.loc 1 123 0
 218 000e 201C     		mov	r0, r4
 219              		@ sp needed
ARM GAS  C:\Users\Tim\AppData\Local\Temp\ccaYskBP.s 			page 7


 220              	.LVL15:
 221 0010 10BD     		pop	{r4, pc}
 222              	.L19:
 223 0012 C046     		.align	2
 224              	.L18:
 225 0014 00000000 		.word	.LANCHOR0
 226              		.cfi_endproc
 227              	.LFE39:
 228              		.size	Encoder_GetCount, .-Encoder_GetCount
 229              		.section	.text.Encoder_Reset,"ax",%progbits
 230              		.align	2
 231              		.global	Encoder_Reset
 232              		.code	16
 233              		.thumb_func
 234              		.type	Encoder_Reset, %function
 235              	Encoder_Reset:
 236              	.LFB40:
 124:..\source/encoder.c **** 
 125:..\source/encoder.c **** void Encoder_Reset()
 126:..\source/encoder.c **** {
 237              		.loc 1 126 0
 238              		.cfi_startproc
 239 0000 08B5     		push	{r3, lr}
 240              		.cfi_def_cfa_offset 8
 241              		.cfi_offset 3, -8
 242              		.cfi_offset 14, -4
 127:..\source/encoder.c ****     Encoder_Intr_Disable();
 243              		.loc 1 127 0
 244 0002 FFF7FEFF 		bl	Encoder_Intr_Disable
 245              	.LVL16:
 128:..\source/encoder.c ****     enc_count = 0;
 246              		.loc 1 128 0
 247 0006 0022     		mov	r2, #0
 248 0008 024B     		ldr	r3, .L21
 249 000a 5A60     		str	r2, [r3, #4]
 129:..\source/encoder.c ****     Encoder_Intr_Enable();
 250              		.loc 1 129 0
 251 000c FFF7FEFF 		bl	Encoder_Intr_Enable
 252              	.LVL17:
 130:..\source/encoder.c **** }
 253              		.loc 1 130 0
 254              		@ sp needed
 255 0010 08BD     		pop	{r3, pc}
 256              	.L22:
 257 0012 C046     		.align	2
 258              	.L21:
 259 0014 00000000 		.word	.LANCHOR0
 260              		.cfi_endproc
 261              	.LFE40:
 262              		.size	Encoder_Reset, .-Encoder_Reset
 263              		.global	__aeabi_i2f
 264              		.global	__aeabi_f2d
 265              		.global	__aeabi_dmul
 266              		.global	__aeabi_d2iz
 267              		.section	.text.Encoder_Update,"ax",%progbits
 268              		.align	2
 269              		.global	Encoder_Update
ARM GAS  C:\Users\Tim\AppData\Local\Temp\ccaYskBP.s 			page 8


 270              		.code	16
 271              		.thumb_func
 272              		.type	Encoder_Update, %function
 273              	Encoder_Update:
 274              	.LFB41:
 131:..\source/encoder.c **** 
 132:..\source/encoder.c **** void Encoder_Update()
 133:..\source/encoder.c **** /* This routine is called as fast as the main loop can run, but we will only 
 134:..\source/encoder.c ****    update the velocity at a specific sample rate
 135:..\source/encoder.c ****  */
 136:..\source/encoder.c **** {
 275              		.loc 1 136 0
 276              		.cfi_startproc
 277 0000 10B5     		push	{r4, lr}
 278              		.cfi_def_cfa_offset 8
 279              		.cfi_offset 4, -8
 280              		.cfi_offset 14, -4
 137:..\source/encoder.c ****     int16 counts_per_second;
 138:..\source/encoder.c ****     
 139:..\source/encoder.c ****     uint32 delta_time = millis() - last_velocity_time;
 281              		.loc 1 139 0
 282 0002 FFF7FEFF 		bl	millis
 283              	.LVL18:
 284 0006 134B     		ldr	r3, .L25
 285 0008 DB68     		ldr	r3, [r3, #12]
 286 000a C01A     		sub	r0, r0, r3
 287              	.LVL19:
 140:..\source/encoder.c ****     
 141:..\source/encoder.c ****     //if (DELTA_TIME(millis(), last_velocity_time, SAMPLE_PERIOD))
 142:..\source/encoder.c ****     if (delta_time > SAMPLE_PERIOD)
 288              		.loc 1 142 0
 289 000c 6428     		cmp	r0, #100
 290 000e 20D9     		bls	.L23
 291              	.LBB2:
 143:..\source/encoder.c ****     {           
 144:..\source/encoder.c ****         last_velocity_time = millis();
 292              		.loc 1 144 0
 293 0010 FFF7FEFF 		bl	millis
 294              	.LVL20:
 295 0014 0F4C     		ldr	r4, .L25
 296 0016 E060     		str	r0, [r4, #12]
 145:..\source/encoder.c ****         
 146:..\source/encoder.c ****         int32 delta_count = Encoder_GetCount() - last_enc_count;
 297              		.loc 1 146 0
 298 0018 FFF7FEFF 		bl	Encoder_GetCount
 299              	.LVL21:
 300 001c 2369     		ldr	r3, [r4, #16]
 301 001e C01A     		sub	r0, r0, r3
 302              	.LVL22:
 147:..\source/encoder.c ****         //counts_per_second = delta_count * MILLIS_PER_SECOND / SAMPLE_PERIOD;        
 148:..\source/encoder.c ****         counts_per_second = delta_count * SAMPLE_RATE;        
 303              		.loc 1 148 0
 304 0020 8300     		lsl	r3, r0, #2
 305 0022 C318     		add	r3, r0, r3
 306 0024 5800     		lsl	r0, r3, #1
 307              	.LVL23:
 149:..\source/encoder.c ****         enc_velocity = MILLIMETERS_PER_COUNT * (float) counts_per_second;
ARM GAS  C:\Users\Tim\AppData\Local\Temp\ccaYskBP.s 			page 9


 308              		.loc 1 149 0
 309 0026 00B2     		sxth	r0, r0
 310 0028 FFF7FEFF 		bl	__aeabi_i2f
 311              	.LVL24:
 312 002c FFF7FEFF 		bl	__aeabi_f2d
 313              	.LVL25:
 314 0030 094A     		ldr	r2, .L25+4
 315 0032 0A4B     		ldr	r3, .L25+8
 316 0034 FFF7FEFF 		bl	__aeabi_dmul
 317              	.LVL26:
 318 0038 FFF7FEFF 		bl	__aeabi_d2iz
 319              	.LVL27:
 320 003c 80B2     		uxth	r0, r0
 321 003e 2081     		strh	r0, [r4, #8]
 150:..\source/encoder.c ****         last_enc_count = enc_count;           
 322              		.loc 1 150 0
 323 0040 6368     		ldr	r3, [r4, #4]
 324 0042 2361     		str	r3, [r4, #16]
 151:..\source/encoder.c ****         I2c_WriteCount(enc_count);
 325              		.loc 1 151 0
 326 0044 6068     		ldr	r0, [r4, #4]
 327 0046 FFF7FEFF 		bl	I2c_WriteCount
 328              	.LVL28:
 152:..\source/encoder.c ****         I2c_WriteVelocity(enc_velocity);
 329              		.loc 1 152 0
 330 004a 2089     		ldrh	r0, [r4, #8]
 331 004c 00B2     		sxth	r0, r0
 332 004e FFF7FEFF 		bl	I2c_WriteVelocity
 333              	.LVL29:
 334              	.L23:
 335              	.LBE2:
 153:..\source/encoder.c ****     }
 154:..\source/encoder.c **** }
 336              		.loc 1 154 0
 337              		@ sp needed
 338 0052 10BD     		pop	{r4, pc}
 339              	.L26:
 340              		.align	2
 341              	.L25:
 342 0054 00000000 		.word	.LANCHOR0
 343 0058 C7711CC7 		.word	-954437177
 344 005c 719C0A40 		.word	1074437233
 345              		.cfi_endproc
 346              	.LFE41:
 347              		.size	Encoder_Update, .-Encoder_Update
 348              		.comm	formatted_string,256,4
 349              		.section	.rodata
 350              		.align	2
 351              		.set	.LANCHOR1,. + 0
 352              		.type	enc_states, %object
 353              		.size	enc_states, 16
 354              	enc_states:
 355 0000 00       		.byte	0
 356 0001 FF       		.byte	-1
 357 0002 01       		.byte	1
 358 0003 00       		.byte	0
 359 0004 01       		.byte	1
ARM GAS  C:\Users\Tim\AppData\Local\Temp\ccaYskBP.s 			page 10


 360 0005 00       		.byte	0
 361 0006 00       		.byte	0
 362 0007 FF       		.byte	-1
 363 0008 FF       		.byte	-1
 364 0009 00       		.byte	0
 365 000a 00       		.byte	0
 366 000b 01       		.byte	1
 367 000c 00       		.byte	0
 368 000d 01       		.byte	1
 369 000e FF       		.byte	-1
 370 000f 00       		.byte	0
 371              		.bss
 372              		.align	2
 373              		.set	.LANCHOR0,. + 0
 374              		.type	old_ab, %object
 375              		.size	old_ab, 1
 376              	old_ab:
 377 0000 00       		.space	1
 378 0001 000000   		.space	3
 379              		.type	enc_count, %object
 380              		.size	enc_count, 4
 381              	enc_count:
 382 0004 00000000 		.space	4
 383              		.type	enc_velocity, %object
 384              		.size	enc_velocity, 2
 385              	enc_velocity:
 386 0008 0000     		.space	2
 387 000a 0000     		.space	2
 388              		.type	last_velocity_time, %object
 389              		.size	last_velocity_time, 4
 390              	last_velocity_time:
 391 000c 00000000 		.space	4
 392              		.type	last_enc_count, %object
 393              		.size	last_enc_count, 4
 394              	last_enc_count:
 395 0010 00000000 		.space	4
 396              		.text
 397              	.Letext0:
 398              		.file 2 "c:\\program files (x86)\\cypress\\psoc creator\\3.3\\psoc creator\\import\\gnu\\arm\\4.9.
 399              		.file 3 "c:\\program files (x86)\\cypress\\psoc creator\\3.3\\psoc creator\\import\\gnu\\arm\\4.9.
 400              		.file 4 "Generated_Source\\PSoC4/cytypes.h"
 401              		.file 5 "Generated_Source\\PSoC4/Encoder_Pins.h"
 402              		.file 6 "Generated_Source\\PSoC4/Encoder_Intr.h"
 403              		.file 7 "..\\source\\time.h"
 404              		.file 8 "..\\source\\i2c.h"
 405              		.file 9 "..\\source\\debug.h"