ARM GAS  C:\Users\Tim\AppData\Local\Temp\ccBtKqs7.s 			page 1


   1              		.cpu cortex-m0
   2              		.fpu softvfp
   3              		.eabi_attribute 20, 1
   4              		.eabi_attribute 21, 1
   5              		.eabi_attribute 23, 3
   6              		.eabi_attribute 24, 1
   7              		.eabi_attribute 25, 1
   8              		.eabi_attribute 26, 1
   9              		.eabi_attribute 30, 1
  10              		.eabi_attribute 34, 0
  11              		.eabi_attribute 18, 4
  12              		.code	16
  13              		.file	"infrared.c"
  14              		.text
  15              	.Ltext0:
  16              		.cfi_sections	.debug_frame
  17              		.section	.text.Infrared_Init,"ax",%progbits
  18              		.align	2
  19              		.global	Infrared_Init
  20              		.code	16
  21              		.thumb_func
  22              		.type	Infrared_Init, %function
  23              	Infrared_Init:
  24              	.LFB34:
  25              		.file 1 "..\\source\\infrared.c"
   1:..\source/infrared.c **** /* ========================================
   2:..\source/infrared.c ****  *
   3:..\source/infrared.c ****  * Copyright YOUR COMPANY, THE YEAR
   4:..\source/infrared.c ****  * All Rights Reserved
   5:..\source/infrared.c ****  * UNPUBLISHED, LICENSED SOFTWARE.
   6:..\source/infrared.c ****  *
   7:..\source/infrared.c ****  * CONFIDENTIAL AND PROPRIETARY INFORMATION
   8:..\source/infrared.c ****  * WHICH IS THE PROPERTY OF your company.
   9:..\source/infrared.c ****  *
  10:..\source/infrared.c ****  * ========================================
  11:..\source/infrared.c **** */
  12:..\source/infrared.c **** 
  13:..\source/infrared.c **** #include <math.h>
  14:..\source/infrared.c **** #include <stdio.h>
  15:..\source/infrared.c **** #include "infrared.h"
  16:..\source/infrared.c **** #include "debug.h"
  17:..\source/infrared.c **** #include "time.h"
  18:..\source/infrared.c **** #include "i2c.h"
  19:..\source/infrared.c **** #include "utils.h"
  20:..\source/infrared.c **** #include "hwconfig.h"
  21:..\source/infrared.c **** 
  22:..\source/infrared.c **** /* The Sharp IR sensors have a range of 10 to 80 cm.  Working backward, this limits the ADC values 
  23:..\source/infrared.c **** 
  24:..\source/infrared.c **** ADC    Voltage        Pow          cm           mm
  25:..\source/infrared.c **** 327  0.399169922  2.875203044  80.10315682  801.0315682
  26:..\source/infrared.c **** 350  0.427246094  2.659011307  74.08005503  740.8005503
  27:..\source/infrared.c **** 375  0.457763672  2.456192932  68.42953508  684.2953508
  28:..\source/infrared.c **** ...
  29:..\source/infrared.c **** 1950 2.380371094  0.368857512  10.27637027  102.7637027
  30:..\source/infrared.c **** 1995 2.435302734  0.359305694  10.01025665  100.1025665
  31:..\source/infrared.c ****  */
  32:..\source/infrared.c **** #define ADC_MIN_VALUE (327)
ARM GAS  C:\Users\Tim\AppData\Local\Temp\ccBtKqs7.s 			page 2


  33:..\source/infrared.c **** #define ADC_MAX_VALUE (1995)
  34:..\source/infrared.c **** 
  35:..\source/infrared.c **** /* External voltage reference */
  36:..\source/infrared.c **** #define ADC_REFERENCE (2.5)
  37:..\source/infrared.c **** /* ADC range is 2 * Vref */
  38:..\source/infrared.c **** #define ADC_FULL_RANGE (ADC_REFERENCE * 2)
  39:..\source/infrared.c **** /* ADC 16-bit resolution */
  40:..\source/infrared.c **** #define ADC_RESOLUTION (4096.0)
  41:..\source/infrared.c **** /* Interpolation equation and constants taken from here: 
  42:..\source/infrared.c ****        https://www.tindie.com/products/upgradeindustries/sharp-10-80cm-infrared-distance-sensor-gp2
  43:..\source/infrared.c ****  */
  44:..\source/infrared.c **** #define SHARP_IR_SENSOR_INTERPOLATION_CONST_1 (27.86)
  45:..\source/infrared.c **** #define SHARP_IR_SENSOR_INTERPOLATION_CONST_2 (-1.15)
  46:..\source/infrared.c **** 
  47:..\source/infrared.c **** /* ADC measurements are taken continuously.  Sampling (or reporting) is done every 100ms */
  48:..\source/infrared.c **** #define SAMPLE_PERIOD (100) /* ms */
  49:..\source/infrared.c **** 
  50:..\source/infrared.c **** static uint32 last_time;
  51:..\source/infrared.c **** 
  52:..\source/infrared.c **** void Infrared_Init()
  53:..\source/infrared.c **** {
  26              		.loc 1 53 0
  27              		.cfi_startproc
  54:..\source/infrared.c ****     last_time = 0;
  28              		.loc 1 54 0
  29 0000 0022     		mov	r2, #0
  30 0002 014B     		ldr	r3, .L2
  31 0004 1A60     		str	r2, [r3]
  55:..\source/infrared.c **** }
  32              		.loc 1 55 0
  33              		@ sp needed
  34 0006 7047     		bx	lr
  35              	.L3:
  36              		.align	2
  37              	.L2:
  38 0008 00000000 		.word	.LANCHOR0
  39              		.cfi_endproc
  40              	.LFE34:
  41              		.size	Infrared_Init, .-Infrared_Init
  42              		.section	.text.Infrared_Start,"ax",%progbits
  43              		.align	2
  44              		.global	Infrared_Start
  45              		.code	16
  46              		.thumb_func
  47              		.type	Infrared_Start, %function
  48              	Infrared_Start:
  49              	.LFB35:
  56:..\source/infrared.c **** 
  57:..\source/infrared.c **** void Infrared_Start()
  58:..\source/infrared.c **** {
  50              		.loc 1 58 0
  51              		.cfi_startproc
  52 0000 08B5     		push	{r3, lr}
  53              		.cfi_def_cfa_offset 8
  54              		.cfi_offset 3, -8
  55              		.cfi_offset 14, -4
  59:..\source/infrared.c ****     ADC_Infrared_Start();
ARM GAS  C:\Users\Tim\AppData\Local\Temp\ccBtKqs7.s 			page 3


  56              		.loc 1 59 0
  57 0002 FFF7FEFF 		bl	ADC_Infrared_Start
  58              	.LVL0:
  60:..\source/infrared.c **** }
  59              		.loc 1 60 0
  60              		@ sp needed
  61 0006 08BD     		pop	{r3, pc}
  62              		.cfi_endproc
  63              	.LFE35:
  64              		.size	Infrared_Start, .-Infrared_Start
  65              		.global	__aeabi_i2d
  66              		.global	__aeabi_dmul
  67              		.global	__aeabi_d2f
  68              		.global	__aeabi_f2d
  69              		.section	.rodata.cst2,"aM",%progbits,2
  70              		.align	1
  71              	.LC2:
  72 0000 4701     		.short	327
  73              		.section	.text.Infrared_Measure,"ax",%progbits
  74              		.align	2
  75              		.global	Infrared_Measure
  76              		.code	16
  77              		.thumb_func
  78              		.type	Infrared_Measure, %function
  79              	Infrared_Measure:
  80              	.LFB36:
  61:..\source/infrared.c **** 
  62:..\source/infrared.c **** void Infrared_Measure()
  63:..\source/infrared.c **** {
  81              		.loc 1 63 0
  82              		.cfi_startproc
  83 0000 10B5     		push	{r4, lr}
  84              		.cfi_def_cfa_offset 8
  85              		.cfi_offset 4, -8
  86              		.cfi_offset 14, -4
  64:..\source/infrared.c ****     int8 ii;
  65:..\source/infrared.c ****     uint16 result;
  66:..\source/infrared.c ****     float voltage;
  67:..\source/infrared.c ****     float distance;
  68:..\source/infrared.c ****     uint32 adc_result;
  69:..\source/infrared.c ****     
  70:..\source/infrared.c ****     ADC_Infrared_StartConvert();
  87              		.loc 1 70 0
  88 0002 FFF7FEFF 		bl	ADC_Infrared_StartConvert
  89              	.LVL1:
  71:..\source/infrared.c ****     /* The way this should work is that the call will block until all channels are read which shoul
  72:..\source/infrared.c ****        Running without any connected hardware causes this routine to hang forever, so maybe its bec
  73:..\source/infrared.c ****        hardware or there may be something else.  For now, using RETURN_STATUS -- revisit when hardw
  74:..\source/infrared.c ****      */
  75:..\source/infrared.c ****     //ADC_Infrared_IsEndConversion(ADC_Infrared_WAIT_FOR_RESULT);
  76:..\source/infrared.c ****     adc_result = ADC_Infrared_IsEndConversion(ADC_Infrared_RETURN_STATUS);
  90              		.loc 1 76 0
  91 0006 0120     		mov	r0, #1
  92 0008 FFF7FEFF 		bl	ADC_Infrared_IsEndConversion
  93              	.LVL2:
  77:..\source/infrared.c ****     if (!adc_result)
  94              		.loc 1 77 0
ARM GAS  C:\Users\Tim\AppData\Local\Temp\ccBtKqs7.s 			page 4


  95 000c 0028     		cmp	r0, #0
  96 000e 37D0     		beq	.L5
  78:..\source/infrared.c ****     {
  79:..\source/infrared.c ****         return;
  80:..\source/infrared.c ****     }
  81:..\source/infrared.c ****     
  82:..\source/infrared.c ****     if (millis() - last_time > SAMPLE_PERIOD)
  97              		.loc 1 82 0
  98 0010 FFF7FEFF 		bl	millis
  99              	.LVL3:
 100 0014 1B4B     		ldr	r3, .L12
 101 0016 1B68     		ldr	r3, [r3]
 102 0018 C01A     		sub	r0, r0, r3
 103 001a 6428     		cmp	r0, #100
 104 001c 30D9     		bls	.L5
  83:..\source/infrared.c ****     {
  84:..\source/infrared.c ****         last_time = millis();
 105              		.loc 1 84 0
 106 001e FFF7FEFF 		bl	millis
 107              	.LVL4:
 108 0022 184B     		ldr	r3, .L12
 109 0024 1860     		str	r0, [r3]
 110              	.LVL5:
  85:..\source/infrared.c ****         for (ii = 0; ii < NUM_INFRARED_SENSORS; ++ii)
 111              		.loc 1 85 0
 112 0026 0024     		mov	r4, #0
 113 0028 27E0     		b	.L7
 114              	.LVL6:
 115              	.L10:
  86:..\source/infrared.c ****         {
  87:..\source/infrared.c ****             result = ADC_Infrared_GetResult16(ii);
 116              		.loc 1 87 0
 117 002a 60B2     		sxtb	r0, r4
 118 002c FFF7FEFF 		bl	ADC_Infrared_GetResult16
 119              	.LVL7:
 120 0030 80B2     		uxth	r0, r0
 121              	.LVL8:
  88:..\source/infrared.c ****             result = constrain(result, ADC_MIN_VALUE, ADC_MAX_VALUE);
 122              		.loc 1 88 0
 123 0032 154B     		ldr	r3, .L12+4
 124 0034 C318     		add	r3, r0, r3
 125 0036 9BB2     		uxth	r3, r3
 126 0038 144A     		ldr	r2, .L12+8
 127 003a 9342     		cmp	r3, r2
 128 003c 08D9     		bls	.L11
 129              		.loc 1 88 0 is_stmt 0 discriminator 1
 130 003e 031C     		add	r3, r0, #0
 131 0040 4822     		mov	r2, #72
 132 0042 FF32     		add	r2, r2, #255
 133 0044 9042     		cmp	r0, r2
 134 0046 01D2     		bcs	.L9
 135 0048 114B     		ldr	r3, .L12+12
 136 004a 1B88     		ldrh	r3, [r3]
 137              	.L9:
 138 004c 98B2     		uxth	r0, r3
 139              	.LVL9:
 140 004e 00E0     		b	.L8
ARM GAS  C:\Users\Tim\AppData\Local\Temp\ccBtKqs7.s 			page 5


 141              	.LVL10:
 142              	.L11:
 143              		.loc 1 88 0
 144 0050 1048     		ldr	r0, .L12+16
 145              	.LVL11:
 146              	.L8:
  89:..\source/infrared.c ****             voltage = (result * ADC_FULL_RANGE) / ADC_RESOLUTION;
 147              		.loc 1 89 0 is_stmt 1 discriminator 4
 148 0052 FFF7FEFF 		bl	__aeabi_i2d
 149              	.LVL12:
 150 0056 0022     		mov	r2, #0
 151 0058 0F4B     		ldr	r3, .L12+20
 152 005a FFF7FEFF 		bl	__aeabi_dmul
 153              	.LVL13:
 154 005e 0022     		mov	r2, #0
 155 0060 0E4B     		ldr	r3, .L12+24
 156 0062 FFF7FEFF 		bl	__aeabi_dmul
 157              	.LVL14:
 158 0066 FFF7FEFF 		bl	__aeabi_d2f
 159              	.LVL15:
  90:..\source/infrared.c ****             distance = SHARP_IR_SENSOR_INTERPOLATION_CONST_1 * pow(voltage, SHARP_IR_SENSOR_INTERPO
 160              		.loc 1 90 0 discriminator 4
 161 006a FFF7FEFF 		bl	__aeabi_f2d
 162              	.LVL16:
 163 006e 0C4A     		ldr	r2, .L12+28
 164 0070 0C4B     		ldr	r3, .L12+32
 165 0072 FFF7FEFF 		bl	pow
 166              	.LVL17:
  85:..\source/infrared.c ****         {
 167              		.loc 1 85 0 discriminator 4
 168 0076 0134     		add	r4, r4, #1
 169              	.LVL18:
 170 0078 E4B2     		uxtb	r4, r4
 171              	.LVL19:
 172              	.L7:
  85:..\source/infrared.c ****         {
 173              		.loc 1 85 0 is_stmt 0 discriminator 2
 174 007a 63B2     		sxtb	r3, r4
 175 007c 032B     		cmp	r3, #3
 176 007e D4DD     		ble	.L10
 177              	.LVL20:
 178              	.L5:
  91:..\source/infrared.c ****             //COMMS_DEBUG_PRINT(0, "ir distance %f\n\r", distance);
  92:..\source/infrared.c ****             //I2c_WriteInfraredDistance(ii, distance);
  93:..\source/infrared.c ****         }
  94:..\source/infrared.c ****     }
  95:..\source/infrared.c **** }
 179              		.loc 1 95 0 is_stmt 1
 180              		@ sp needed
 181 0080 10BD     		pop	{r4, pc}
 182              	.L13:
 183 0082 C046     		.align	2
 184              	.L12:
 185 0084 00000000 		.word	.LANCHOR0
 186 0088 35F8FFFF 		.word	-1995
 187 008c 34F80000 		.word	63540
 188 0090 00000000 		.word	.LC2
ARM GAS  C:\Users\Tim\AppData\Local\Temp\ccBtKqs7.s 			page 6


 189 0094 CB070000 		.word	1995
 190 0098 00001440 		.word	1075052544
 191 009c 0000303F 		.word	1060110336
 192 00a0 66666666 		.word	1717986918
 193 00a4 6666F2BF 		.word	-1074633114
 194              		.cfi_endproc
 195              	.LFE36:
 196              		.size	Infrared_Measure, .-Infrared_Measure
 197              		.global	__aeabi_f2uiz
 198              		.section	.rodata.cst2
 199              		.align	1
 200              	.LC10:
 201 0002 4701     		.short	327
 202              		.section	.text.Infrared_Test,"ax",%progbits
 203              		.align	2
 204              		.global	Infrared_Test
 205              		.code	16
 206              		.thumb_func
 207              		.type	Infrared_Test, %function
 208              	Infrared_Test:
 209              	.LFB37:
  96:..\source/infrared.c **** 
  97:..\source/infrared.c **** void Infrared_Test()
  98:..\source/infrared.c **** {
 210              		.loc 1 98 0
 211              		.cfi_startproc
 212 0000 F0B5     		push	{r4, r5, r6, r7, lr}
 213              		.cfi_def_cfa_offset 20
 214              		.cfi_offset 4, -20
 215              		.cfi_offset 5, -16
 216              		.cfi_offset 6, -12
 217              		.cfi_offset 7, -8
 218              		.cfi_offset 14, -4
 219 0002 87B0     		sub	sp, sp, #28
 220              		.cfi_def_cfa_offset 48
  99:..\source/infrared.c ****     int8 ii;
 100:..\source/infrared.c ****     uint16 result;
 101:..\source/infrared.c ****     float voltage;
 102:..\source/infrared.c ****     float distance;
 103:..\source/infrared.c ****     static uint32 last_time;
 104:..\source/infrared.c ****     
 105:..\source/infrared.c ****     
 106:..\source/infrared.c ****     ADC_Infrared_StartConvert();
 221              		.loc 1 106 0
 222 0004 FFF7FEFF 		bl	ADC_Infrared_StartConvert
 223              	.LVL21:
 107:..\source/infrared.c ****     ADC_Infrared_IsEndConversion(ADC_Infrared_WAIT_FOR_RESULT);
 224              		.loc 1 107 0
 225 0008 0220     		mov	r0, #2
 226 000a FFF7FEFF 		bl	ADC_Infrared_IsEndConversion
 227              	.LVL22:
 108:..\source/infrared.c **** 
 109:..\source/infrared.c ****     if (millis() - last_time > 500)
 228              		.loc 1 109 0
 229 000e FFF7FEFF 		bl	millis
 230              	.LVL23:
 231 0012 324B     		ldr	r3, .L21
ARM GAS  C:\Users\Tim\AppData\Local\Temp\ccBtKqs7.s 			page 7


 232 0014 5B68     		ldr	r3, [r3, #4]
 233 0016 C01A     		sub	r0, r0, r3
 234 0018 FA23     		mov	r3, #250
 235 001a 5B00     		lsl	r3, r3, #1
 236 001c 9842     		cmp	r0, r3
 237 001e 5AD9     		bls	.L14
 110:..\source/infrared.c ****     {
 111:..\source/infrared.c ****         last_time = millis();
 238              		.loc 1 111 0
 239 0020 FFF7FEFF 		bl	millis
 240              	.LVL24:
 241 0024 2D4B     		ldr	r3, .L21
 242 0026 5860     		str	r0, [r3, #4]
 243              	.LVL25:
 112:..\source/infrared.c ****         for (ii = 0; ii < 1; ++ii)
 244              		.loc 1 112 0
 245 0028 0024     		mov	r4, #0
 246 002a 51E0     		b	.L16
 247              	.LVL26:
 248              	.L19:
 113:..\source/infrared.c ****         {
 114:..\source/infrared.c ****             result = ADC_Infrared_GetResult16(ii);
 249              		.loc 1 114 0
 250 002c 60B2     		sxtb	r0, r4
 251 002e FFF7FEFF 		bl	ADC_Infrared_GetResult16
 252              	.LVL27:
 253 0032 80B2     		uxth	r0, r0
 254              	.LVL28:
 115:..\source/infrared.c ****             result = constrain(result, 327, 1995);
 255              		.loc 1 115 0
 256 0034 2A4B     		ldr	r3, .L21+4
 257 0036 C318     		add	r3, r0, r3
 258 0038 9BB2     		uxth	r3, r3
 259 003a 2A4A     		ldr	r2, .L21+8
 260 003c 9342     		cmp	r3, r2
 261 003e 08D9     		bls	.L20
 262              		.loc 1 115 0 is_stmt 0 discriminator 1
 263 0040 061C     		add	r6, r0, #0
 264 0042 4823     		mov	r3, #72
 265 0044 FF33     		add	r3, r3, #255
 266 0046 9842     		cmp	r0, r3
 267 0048 01D2     		bcs	.L18
 268 004a 274B     		ldr	r3, .L21+12
 269 004c 1E88     		ldrh	r6, [r3]
 270              	.L18:
 271 004e B6B2     		uxth	r6, r6
 272 0050 00E0     		b	.L17
 273              	.L20:
 274              		.loc 1 115 0
 275 0052 264E     		ldr	r6, .L21+16
 276              	.L17:
 277              	.LVL29:
 116:..\source/infrared.c ****             
 117:..\source/infrared.c ****             voltage = (result * 5.0) / 4096.0;
 278              		.loc 1 117 0 is_stmt 1 discriminator 4
 279 0054 301C     		mov	r0, r6
 280 0056 FFF7FEFF 		bl	__aeabi_i2d
ARM GAS  C:\Users\Tim\AppData\Local\Temp\ccBtKqs7.s 			page 8


 281              	.LVL30:
 282 005a 0022     		mov	r2, #0
 283 005c 244B     		ldr	r3, .L21+20
 284 005e FFF7FEFF 		bl	__aeabi_dmul
 285              	.LVL31:
 286 0062 0022     		mov	r2, #0
 287 0064 234B     		ldr	r3, .L21+24
 288 0066 FFF7FEFF 		bl	__aeabi_dmul
 289              	.LVL32:
 290 006a FFF7FEFF 		bl	__aeabi_d2f
 291              	.LVL33:
 292 006e 071C     		add	r7, r0, #0
 293              	.LVL34:
 118:..\source/infrared.c ****             distance = 27.86 * pow(voltage, -1.15);
 294              		.loc 1 118 0 discriminator 4
 295 0070 FFF7FEFF 		bl	__aeabi_f2d
 296              	.LVL35:
 297 0074 204A     		ldr	r2, .L21+28
 298 0076 214B     		ldr	r3, .L21+32
 299 0078 FFF7FEFF 		bl	pow
 300              	.LVL36:
 301 007c 204A     		ldr	r2, .L21+36
 302 007e 214B     		ldr	r3, .L21+40
 303 0080 FFF7FEFF 		bl	__aeabi_dmul
 304              	.LVL37:
 305 0084 FFF7FEFF 		bl	__aeabi_d2f
 306              	.LVL38:
 307 0088 051C     		add	r5, r0, #0
 308              	.LVL39:
 119:..\source/infrared.c ****             COMMS_DEBUG_PRINT(0, "%d:%d,%d,%d\n\r", ii, result, (uint16)voltage*100, (uint16)distan
 309              		.loc 1 119 0 discriminator 4
 310 008a 381C     		add	r0, r7, #0
 311              	.LVL40:
 312 008c FFF7FEFF 		bl	__aeabi_f2uiz
 313              	.LVL41:
 314 0090 87B2     		uxth	r7, r0
 315              	.LVL42:
 316 0092 281C     		add	r0, r5, #0
 317 0094 FFF7FEFF 		bl	__aeabi_f2uiz
 318              	.LVL43:
 319 0098 83B2     		uxth	r3, r0
 320 009a 1B4D     		ldr	r5, .L21+44
 321              	.LVL44:
 322 009c 1B4A     		ldr	r2, .L21+48
 323 009e 0092     		str	r2, [sp]
 324 00a0 7722     		mov	r2, #119
 325 00a2 0192     		str	r2, [sp, #4]
 326 00a4 62B2     		sxtb	r2, r4
 327 00a6 0292     		str	r2, [sp, #8]
 328 00a8 0396     		str	r6, [sp, #12]
 329 00aa 6420     		mov	r0, #100
 330 00ac 7843     		mul	r0, r7
 331 00ae 0490     		str	r0, [sp, #16]
 332 00b0 9800     		lsl	r0, r3, #2
 333 00b2 C018     		add	r0, r0, r3
 334 00b4 4000     		lsl	r0, r0, #1
 335 00b6 0590     		str	r0, [sp, #20]
ARM GAS  C:\Users\Tim\AppData\Local\Temp\ccBtKqs7.s 			page 9


 336 00b8 281C     		mov	r0, r5
 337 00ba 8021     		mov	r1, #128
 338 00bc 4900     		lsl	r1, r1, #1
 339 00be 144A     		ldr	r2, .L21+52
 340 00c0 144B     		ldr	r3, .L21+56
 341 00c2 FFF7FEFF 		bl	snprintf
 342              	.LVL45:
 343 00c6 281C     		mov	r0, r5
 344 00c8 FFF7FEFF 		bl	UARTCOMMS_UartPutString
 345              	.LVL46:
 112:..\source/infrared.c ****         {
 346              		.loc 1 112 0 discriminator 4
 347 00cc 0134     		add	r4, r4, #1
 348              	.LVL47:
 349 00ce E4B2     		uxtb	r4, r4
 350              	.LVL48:
 351              	.L16:
 112:..\source/infrared.c ****         {
 352              		.loc 1 112 0 is_stmt 0 discriminator 1
 353 00d0 63B2     		sxtb	r3, r4
 354 00d2 002B     		cmp	r3, #0
 355 00d4 AADD     		ble	.L19
 356              	.LVL49:
 357              	.L14:
 120:..\source/infrared.c ****         }
 121:..\source/infrared.c ****     }
 122:..\source/infrared.c ****     
 123:..\source/infrared.c **** }
 358              		.loc 1 123 0 is_stmt 1
 359 00d6 07B0     		add	sp, sp, #28
 360              		@ sp needed
 361 00d8 F0BD     		pop	{r4, r5, r6, r7, pc}
 362              	.L22:
 363 00da C046     		.align	2
 364              	.L21:
 365 00dc 00000000 		.word	.LANCHOR0
 366 00e0 35F8FFFF 		.word	-1995
 367 00e4 34F80000 		.word	63540
 368 00e8 02000000 		.word	.LC10
 369 00ec CB070000 		.word	1995
 370 00f0 00001440 		.word	1075052544
 371 00f4 0000303F 		.word	1060110336
 372 00f8 66666666 		.word	1717986918
 373 00fc 6666F2BF 		.word	-1074633114
 374 0100 5C8FC2F5 		.word	-171798692
 375 0104 28DC3B40 		.word	1077664808
 376 0108 00000000 		.word	formatted_string
 377 010c 00000000 		.word	.LANCHOR1
 378 0110 00000000 		.word	.LC5
 379 0114 34000000 		.word	.LC7
 380              		.cfi_endproc
 381              	.LFE37:
 382              		.size	Infrared_Test, .-Infrared_Test
 383              		.comm	formatted_string,256,4
 384              		.section	.rodata
 385              		.align	2
 386              		.set	.LANCHOR1,. + 0
ARM GAS  C:\Users\Tim\AppData\Local\Temp\ccBtKqs7.s 			page 10


 387              		.type	__func__.7376, %object
 388              		.size	__func__.7376, 14
 389              	__func__.7376:
 390 0000 496E6672 		.ascii	"Infrared_Test\000"
 390      61726564 
 390      5F546573 
 390      7400
 391 000e 0000     		.section	.rodata.str1.4,"aMS",%progbits,1
 392              		.align	2
 393              	.LC5:
 394 0000 5B46494C 		.ascii	"[FILE : %s, FUNC : %s, LINE : %d]: %d:%d,%d,%d\012\015"
 394      45203A20 
 394      25732C20 
 394      46554E43 
 394      203A2025 
 395 0030 00       		.ascii	"\000"
 396 0031 000000   		.space	3
 397              	.LC7:
 398 0034 2E2E5C73 		.ascii	"..\\source\\infrared.c\000"
 398      6F757263 
 398      655C696E 
 398      66726172 
 398      65642E63 
 399 0049 000000   		.bss
 400              		.align	2
 401              		.set	.LANCHOR0,. + 0
 402              		.type	last_time, %object
 403              		.size	last_time, 4
 404              	last_time:
 405 0000 00000000 		.space	4
 406              		.type	last_time.7375, %object
 407              		.size	last_time.7375, 4
 408              	last_time.7375:
 409 0004 00000000 		.space	4
 410              		.text
 411              	.Letext0:
 412              		.file 2 "c:\\program files (x86)\\cypress\\psoc creator\\3.3\\psoc creator\\import\\gnu\\arm\\4.9.
 413              		.file 3 "Generated_Source\\PSoC4/cytypes.h"
 414              		.file 4 "Generated_Source\\PSoC4/ADC_Infrared.h"
 415              		.file 5 "c:\\program files (x86)\\cypress\\psoc creator\\3.3\\psoc creator\\import\\gnu\\arm\\4.9.
 416              		.file 6 "..\\source\\time.h"
 417              		.file 7 "Generated_Source\\PSoC4/UARTCOMMS_SPI_UART.h"
 418              		.file 8 "..\\source\\debug.h"
 419              		.file 9 "c:\\program files (x86)\\cypress\\psoc creator\\3.3\\psoc creator\\import\\gnu\\arm\\4.9.