ARM GAS  C:\Users\Tim\AppData\Local\Temp\cct1Hglg.s 			page 1


   1              		.cpu cortex-m0
   2              		.fpu softvfp
   3              		.eabi_attribute 20, 1
   4              		.eabi_attribute 21, 1
   5              		.eabi_attribute 23, 3
   6              		.eabi_attribute 24, 1
   7              		.eabi_attribute 25, 1
   8              		.eabi_attribute 26, 1
   9              		.eabi_attribute 30, 1
  10              		.eabi_attribute 34, 0
  11              		.eabi_attribute 18, 4
  12              		.code	16
  13              		.file	"pid.c"
  14              		.text
  15              	.Ltext0:
  16              		.cfi_sections	.debug_frame
  17              		.section	.text.PrintPid,"ax",%progbits
  18              		.align	2
  19              		.code	16
  20              		.thumb_func
  21              		.type	PrintPid, %function
  22              	PrintPid:
  23              	.LFB38:
  24              		.file 1 "..\\source\\pid.c"
   1:..\source/pid.c **** /* ========================================
   2:..\source/pid.c ****  *
   3:..\source/pid.c ****  * Copyright YOUR COMPANY, THE YEAR
   4:..\source/pid.c ****  * All Rights Reserved
   5:..\source/pid.c ****  * UNPUBLISHED, LICENSED SOFTWARE.
   6:..\source/pid.c ****  *
   7:..\source/pid.c ****  * CONFIDENTIAL AND PROPRIETARY INFORMATION
   8:..\source/pid.c ****  * WHICH IS THE PROPERTY OF your company.
   9:..\source/pid.c ****  *
  10:..\source/pid.c ****  * ========================================
  11:..\source/pid.c **** */
  12:..\source/pid.c **** 
  13:..\source/pid.c **** #include <math.h>
  14:..\source/pid.c **** #include "pid.h"
  15:..\source/pid.c **** #include "encoder.h"
  16:..\source/pid.c **** #include "motor.h"
  17:..\source/pid.c **** #include "i2c.h"
  18:..\source/pid.c **** #include "utils.h"
  19:..\source/pid.c **** #include "debug.h"
  20:..\source/pid.c **** #include "time.h"
  21:..\source/pid.c **** 
  22:..\source/pid.c **** #define SAMPLE_RATE (20) // Hz
  23:..\source/pid.c **** #define SAMPLE_PERIOD (1000/SAMPLE_RATE) /* milliseconds */
  24:..\source/pid.c **** 
  25:..\source/pid.c **** #define MIN_KP (0)
  26:..\source/pid.c **** #define MAX_KP (1)
  27:..\source/pid.c **** #define MIN_KI (0)
  28:..\source/pid.c **** #define MAX_KI (1)
  29:..\source/pid.c **** #define MIN_KD (0)
  30:..\source/pid.c **** #define MAX_KD (1)
  31:..\source/pid.c **** #define MIN_SAMPLE_RATE (0)
  32:..\source/pid.c **** #define MAX_SAMPLE_RATE (1)
  33:..\source/pid.c **** 
ARM GAS  C:\Users\Tim\AppData\Local\Temp\cct1Hglg.s 			page 2


  34:..\source/pid.c **** #define DEFAULT_KP (1.0)
  35:..\source/pid.c **** #define DEFAULT_KI (0.5)
  36:..\source/pid.c **** #define DEFAULT_KD (0.0)
  37:..\source/pid.c **** 
  38:..\source/pid.c **** static float Kp;
  39:..\source/pid.c **** static float Ki;
  40:..\source/pid.c **** static float Kd;
  41:..\source/pid.c **** 
  42:..\source/pid.c **** /*---------------------------------*/
  43:..\source/pid.c **** 
  44:..\source/pid.c **** 
  45:..\source/pid.c **** typedef struct {
  46:..\source/pid.c ****     double windup_guard;
  47:..\source/pid.c ****     double proportional_gain;
  48:..\source/pid.c ****     double integral_gain;
  49:..\source/pid.c ****     double derivative_gain;
  50:..\source/pid.c ****     double prev_error;
  51:..\source/pid.c ****     double int_error;
  52:..\source/pid.c ****     double control;
  53:..\source/pid.c **** } PID;
  54:..\source/pid.c **** 
  55:..\source/pid.c **** static PID pid = {0.1, DEFAULT_KP, DEFAULT_KI, DEFAULT_KD, 0.0, 0.01, 0.0};
  56:..\source/pid.c **** 
  57:..\source/pid.c **** void pid_zeroize(PID* pid) {
  58:..\source/pid.c ****     // set prev and integrated error to zero
  59:..\source/pid.c ****     pid->prev_error = 0;
  60:..\source/pid.c ****     pid->int_error = 0;
  61:..\source/pid.c **** }
  62:..\source/pid.c ****  
  63:..\source/pid.c **** void pid_update(PID* pid, double curr_error)
  64:..\source/pid.c **** {
  65:..\source/pid.c ****     double diff;
  66:..\source/pid.c ****     double p_term;
  67:..\source/pid.c ****     double i_term;
  68:..\source/pid.c ****     double d_term;
  69:..\source/pid.c ****  
  70:..\source/pid.c ****     // integration with windup guarding
  71:..\source/pid.c ****     pid->int_error += curr_error;
  72:..\source/pid.c ****     if (pid->int_error < -(pid->windup_guard))
  73:..\source/pid.c ****         pid->int_error = -(pid->windup_guard);
  74:..\source/pid.c ****     else if (pid->int_error > pid->windup_guard)
  75:..\source/pid.c ****         pid->int_error = pid->windup_guard;
  76:..\source/pid.c ****  
  77:..\source/pid.c ****     // differentiation
  78:..\source/pid.c ****     diff = curr_error - pid->prev_error;
  79:..\source/pid.c ****  
  80:..\source/pid.c ****     // scaling
  81:..\source/pid.c ****     p_term = (pid->proportional_gain * curr_error);
  82:..\source/pid.c ****     i_term = (pid->integral_gain     * pid->int_error);
  83:..\source/pid.c ****     d_term = (pid->derivative_gain   * diff);
  84:..\source/pid.c ****  
  85:..\source/pid.c ****     // summation of terms
  86:..\source/pid.c ****     pid->control = p_term + i_term + d_term;
  87:..\source/pid.c ****  
  88:..\source/pid.c ****     // save current error as previous error for next iteration
  89:..\source/pid.c ****     pid->prev_error = curr_error;
  90:..\source/pid.c **** }
ARM GAS  C:\Users\Tim\AppData\Local\Temp\cct1Hglg.s 			page 3


  91:..\source/pid.c **** 
  92:..\source/pid.c **** void PID_Init(float p, float i, float d, uint8 sample_rate)
  93:..\source/pid.c **** {
  94:..\source/pid.c ****     Kp = p;
  95:..\source/pid.c ****     Ki = i;
  96:..\source/pid.c ****     Kd = d;
  97:..\source/pid.c ****     sample_rate = constrain(sample_rate, MIN_SAMPLE_RATE, MAX_SAMPLE_RATE);
  98:..\source/pid.c **** }
  99:..\source/pid.c **** 
 100:..\source/pid.c **** void PID_Start()
 101:..\source/pid.c **** {
 102:..\source/pid.c ****     Kp = DEFAULT_KP;
 103:..\source/pid.c ****     Ki = DEFAULT_KI;
 104:..\source/pid.c ****     Kd = DEFAULT_KD;
 105:..\source/pid.c **** }
 106:..\source/pid.c **** 
 107:..\source/pid.c **** static void PrintPid(PID *pid, int16 velocity)
 108:..\source/pid.c **** {
  25              		.loc 1 108 0
  26              		.cfi_startproc
  27              	.LVL0:
  28 0000 70B5     		push	{r4, r5, r6, lr}
  29              		.cfi_def_cfa_offset 16
  30              		.cfi_offset 4, -16
  31              		.cfi_offset 5, -12
  32              		.cfi_offset 6, -8
  33              		.cfi_offset 14, -4
  34 0002 D0B0     		sub	sp, sp, #320
  35              		.cfi_def_cfa_offset 336
  36 0004 041C     		mov	r4, r0
  37 0006 0E1C     		mov	r6, r1
  38              	.LBB2:
 109:..\source/pid.c ****     //COMMS_DEBUG_PRINT(0, "v: %d, i: %d, o: %2.1f, a: %d\n\r", velocity, input, output, adjust);
 110:..\source/pid.c ****     {
 111:..\source/pid.c ****     char buffer[256];
 112:..\source/pid.c ****     memset(buffer, 0, sizeof(buffer));
  39              		.loc 1 112 0
  40 0008 8025     		mov	r5, #128
  41 000a 6D00     		lsl	r5, r5, #1
  42 000c 10A8     		add	r0, sp, #64
  43              	.LVL1:
  44 000e 0021     		mov	r1, #0
  45              	.LVL2:
  46 0010 2A1C     		mov	r2, r5
  47 0012 FFF7FEFF 		bl	memset
  48              	.LVL3:
 113:..\source/pid.c ****     snprintf(buffer, sizeof(buffer), "\r\nc: %2.1f, dg: %2.1f, ie: %2.1f, ig: %2.1f, pe: %2.1f, pg:
  49              		.loc 1 113 0
  50 0016 226B     		ldr	r2, [r4, #48]
  51 0018 636B     		ldr	r3, [r4, #52]
  52 001a 0092     		str	r2, [sp]
  53 001c 0193     		str	r3, [sp, #4]
  54 001e A269     		ldr	r2, [r4, #24]
  55 0020 E369     		ldr	r3, [r4, #28]
  56 0022 0292     		str	r2, [sp, #8]
  57 0024 0393     		str	r3, [sp, #12]
  58 0026 A26A     		ldr	r2, [r4, #40]
ARM GAS  C:\Users\Tim\AppData\Local\Temp\cct1Hglg.s 			page 4


  59 0028 E36A     		ldr	r3, [r4, #44]
  60 002a 0492     		str	r2, [sp, #16]
  61 002c 0593     		str	r3, [sp, #20]
  62 002e 2269     		ldr	r2, [r4, #16]
  63 0030 6369     		ldr	r3, [r4, #20]
  64 0032 0692     		str	r2, [sp, #24]
  65 0034 0793     		str	r3, [sp, #28]
  66 0036 226A     		ldr	r2, [r4, #32]
  67 0038 636A     		ldr	r3, [r4, #36]
  68 003a 0892     		str	r2, [sp, #32]
  69 003c 0993     		str	r3, [sp, #36]
  70 003e A268     		ldr	r2, [r4, #8]
  71 0040 E368     		ldr	r3, [r4, #12]
  72 0042 0A92     		str	r2, [sp, #40]
  73 0044 0B93     		str	r3, [sp, #44]
  74 0046 2368     		ldr	r3, [r4]
  75 0048 6468     		ldr	r4, [r4, #4]
  76 004a 0C93     		str	r3, [sp, #48]
  77 004c 0D94     		str	r4, [sp, #52]
  78 004e 0E96     		str	r6, [sp, #56]
  79 0050 10A8     		add	r0, sp, #64
  80 0052 291C     		mov	r1, r5
  81 0054 034A     		ldr	r2, .L2
  82 0056 FFF7FEFF 		bl	snprintf
  83              	.LVL4:
 114:..\source/pid.c ****              pid->control, pid->derivative_gain, pid->int_error, pid->integral_gain,
 115:..\source/pid.c ****              pid->prev_error, pid->proportional_gain, pid->windup_guard, velocity);
 116:..\source/pid.c ****     UARTCOMMS_UartPutString(buffer);
  84              		.loc 1 116 0
  85 005a 10A8     		add	r0, sp, #64
  86 005c FFF7FEFF 		bl	UARTCOMMS_UartPutString
  87              	.LVL5:
  88              	.LBE2:
 117:..\source/pid.c ****     }
 118:..\source/pid.c **** }
  89              		.loc 1 118 0
  90 0060 50B0     		add	sp, sp, #320
  91              		@ sp needed
  92              	.LVL6:
  93 0062 70BD     		pop	{r4, r5, r6, pc}
  94              	.L3:
  95              		.align	2
  96              	.L2:
  97 0064 00000000 		.word	.LC0
  98              		.cfi_endproc
  99              	.LFE38:
 100              		.size	PrintPid, .-PrintPid
 101              		.section	.text.pid_zeroize,"ax",%progbits
 102              		.align	2
 103              		.global	pid_zeroize
 104              		.code	16
 105              		.thumb_func
 106              		.type	pid_zeroize, %function
 107              	pid_zeroize:
 108              	.LFB34:
  57:..\source/pid.c ****     // set prev and integrated error to zero
 109              		.loc 1 57 0
ARM GAS  C:\Users\Tim\AppData\Local\Temp\cct1Hglg.s 			page 5


 110              		.cfi_startproc
 111              	.LVL7:
  59:..\source/pid.c ****     pid->int_error = 0;
 112              		.loc 1 59 0
 113 0000 0022     		mov	r2, #0
 114 0002 0023     		mov	r3, #0
 115 0004 0262     		str	r2, [r0, #32]
 116 0006 4362     		str	r3, [r0, #36]
  60:..\source/pid.c **** }
 117              		.loc 1 60 0
 118 0008 8262     		str	r2, [r0, #40]
 119 000a C362     		str	r3, [r0, #44]
  61:..\source/pid.c ****  
 120              		.loc 1 61 0
 121              		@ sp needed
 122 000c 7047     		bx	lr
 123              		.cfi_endproc
 124              	.LFE34:
 125              		.size	pid_zeroize, .-pid_zeroize
 126              		.global	__aeabi_dadd
 127              		.global	__aeabi_dcmplt
 128              		.global	__aeabi_dcmpgt
 129              		.global	__aeabi_dsub
 130              		.global	__aeabi_dmul
 131 000e C046     		.section	.text.pid_update,"ax",%progbits
 132              		.align	2
 133              		.global	pid_update
 134              		.code	16
 135              		.thumb_func
 136              		.type	pid_update, %function
 137              	pid_update:
 138              	.LFB35:
  64:..\source/pid.c ****     double diff;
 139              		.loc 1 64 0
 140              		.cfi_startproc
 141              	.LVL8:
 142 0000 F0B5     		push	{r4, r5, r6, r7, lr}
 143              		.cfi_def_cfa_offset 20
 144              		.cfi_offset 4, -20
 145              		.cfi_offset 5, -16
 146              		.cfi_offset 6, -12
 147              		.cfi_offset 7, -8
 148              		.cfi_offset 14, -4
 149 0002 87B0     		sub	sp, sp, #28
 150              		.cfi_def_cfa_offset 48
 151 0004 061C     		mov	r6, r0
 152 0006 0092     		str	r2, [sp]
 153 0008 0193     		str	r3, [sp, #4]
  71:..\source/pid.c ****     if (pid->int_error < -(pid->windup_guard))
 154              		.loc 1 71 0
 155 000a 101C     		mov	r0, r2
 156              	.LVL9:
 157 000c 191C     		mov	r1, r3
 158 000e B26A     		ldr	r2, [r6, #40]
 159 0010 F36A     		ldr	r3, [r6, #44]
 160              	.LVL10:
 161 0012 FFF7FEFF 		bl	__aeabi_dadd
ARM GAS  C:\Users\Tim\AppData\Local\Temp\cct1Hglg.s 			page 6


 162              	.LVL11:
 163 0016 041C     		mov	r4, r0
 164 0018 0D1C     		mov	r5, r1
 165 001a B462     		str	r4, [r6, #40]
 166 001c F562     		str	r5, [r6, #44]
  72:..\source/pid.c ****         pid->int_error = -(pid->windup_guard);
 167              		.loc 1 72 0
 168 001e 3368     		ldr	r3, [r6]
 169 0020 0293     		str	r3, [sp, #8]
 170 0022 7768     		ldr	r7, [r6, #4]
 171 0024 8022     		mov	r2, #128
 172 0026 1206     		lsl	r2, r2, #24
 173 0028 9446     		mov	ip, r2
 174 002a BC44     		add	ip, ip, r7
 175 002c 6246     		mov	r2, ip
 176 002e 0492     		str	r2, [sp, #16]
 177 0030 029A     		ldr	r2, [sp, #8]
 178 0032 6346     		mov	r3, ip
 179 0034 FFF7FEFF 		bl	__aeabi_dcmplt
 180              	.LVL12:
 181 0038 0028     		cmp	r0, #0
 182 003a 04D0     		beq	.L12
  73:..\source/pid.c ****     else if (pid->int_error > pid->windup_guard)
 183              		.loc 1 73 0
 184 003c 029A     		ldr	r2, [sp, #8]
 185 003e 049B     		ldr	r3, [sp, #16]
 186 0040 B262     		str	r2, [r6, #40]
 187 0042 F362     		str	r3, [r6, #44]
 188 0044 0CE0     		b	.L8
 189              	.L12:
  74:..\source/pid.c ****         pid->int_error = pid->windup_guard;
 190              		.loc 1 74 0
 191 0046 201C     		mov	r0, r4
 192 0048 291C     		mov	r1, r5
 193 004a 029C     		ldr	r4, [sp, #8]
 194 004c 221C     		mov	r2, r4
 195 004e 3B1C     		mov	r3, r7
 196 0050 FFF7FEFF 		bl	__aeabi_dcmpgt
 197              	.LVL13:
 198 0054 0028     		cmp	r0, #0
 199 0056 03D0     		beq	.L8
  75:..\source/pid.c ****  
 200              		.loc 1 75 0
 201 0058 221C     		mov	r2, r4
 202 005a 3B1C     		mov	r3, r7
 203 005c B262     		str	r2, [r6, #40]
 204 005e F362     		str	r3, [r6, #44]
 205              	.L8:
  78:..\source/pid.c ****  
 206              		.loc 1 78 0
 207 0060 009C     		ldr	r4, [sp]
 208 0062 019D     		ldr	r5, [sp, #4]
 209 0064 201C     		mov	r0, r4
 210 0066 291C     		mov	r1, r5
 211 0068 326A     		ldr	r2, [r6, #32]
 212 006a 736A     		ldr	r3, [r6, #36]
 213 006c FFF7FEFF 		bl	__aeabi_dsub
ARM GAS  C:\Users\Tim\AppData\Local\Temp\cct1Hglg.s 			page 7


 214              	.LVL14:
 215 0070 0290     		str	r0, [sp, #8]
 216 0072 0391     		str	r1, [sp, #12]
 217              	.LVL15:
  81:..\source/pid.c ****     i_term = (pid->integral_gain     * pid->int_error);
 218              		.loc 1 81 0
 219 0074 B068     		ldr	r0, [r6, #8]
 220 0076 F168     		ldr	r1, [r6, #12]
 221              	.LVL16:
 222 0078 0094     		str	r4, [sp]
 223 007a 0195     		str	r5, [sp, #4]
 224              	.LVL17:
 225 007c 221C     		mov	r2, r4
 226 007e 2B1C     		mov	r3, r5
 227 0080 FFF7FEFF 		bl	__aeabi_dmul
 228              	.LVL18:
 229 0084 041C     		mov	r4, r0
 230 0086 0D1C     		mov	r5, r1
 231              	.LVL19:
  82:..\source/pid.c ****     d_term = (pid->derivative_gain   * diff);
 232              		.loc 1 82 0
 233 0088 3069     		ldr	r0, [r6, #16]
 234 008a 7169     		ldr	r1, [r6, #20]
 235 008c B26A     		ldr	r2, [r6, #40]
 236 008e F36A     		ldr	r3, [r6, #44]
 237 0090 FFF7FEFF 		bl	__aeabi_dmul
 238              	.LVL20:
 239 0094 0490     		str	r0, [sp, #16]
 240 0096 0591     		str	r1, [sp, #20]
 241              	.LVL21:
  83:..\source/pid.c ****  
 242              		.loc 1 83 0
 243 0098 B069     		ldr	r0, [r6, #24]
 244 009a F169     		ldr	r1, [r6, #28]
 245              	.LVL22:
 246 009c 029A     		ldr	r2, [sp, #8]
 247 009e 039B     		ldr	r3, [sp, #12]
 248 00a0 FFF7FEFF 		bl	__aeabi_dmul
 249              	.LVL23:
 250 00a4 0290     		str	r0, [sp, #8]
 251 00a6 0391     		str	r1, [sp, #12]
 252              	.LVL24:
  86:..\source/pid.c ****  
 253              		.loc 1 86 0
 254 00a8 201C     		mov	r0, r4
 255              	.LVL25:
 256 00aa 291C     		mov	r1, r5
 257 00ac 049A     		ldr	r2, [sp, #16]
 258 00ae 059B     		ldr	r3, [sp, #20]
 259 00b0 FFF7FEFF 		bl	__aeabi_dadd
 260              	.LVL26:
 261 00b4 029A     		ldr	r2, [sp, #8]
 262 00b6 039B     		ldr	r3, [sp, #12]
 263 00b8 FFF7FEFF 		bl	__aeabi_dadd
 264              	.LVL27:
 265 00bc 3063     		str	r0, [r6, #48]
 266 00be 7163     		str	r1, [r6, #52]
ARM GAS  C:\Users\Tim\AppData\Local\Temp\cct1Hglg.s 			page 8


  89:..\source/pid.c **** }
 267              		.loc 1 89 0
 268 00c0 009B     		ldr	r3, [sp]
 269 00c2 019C     		ldr	r4, [sp, #4]
 270 00c4 3362     		str	r3, [r6, #32]
 271 00c6 7462     		str	r4, [r6, #36]
  90:..\source/pid.c **** 
 272              		.loc 1 90 0
 273 00c8 07B0     		add	sp, sp, #28
 274              		@ sp needed
 275              	.LVL28:
 276              	.LVL29:
 277 00ca F0BD     		pop	{r4, r5, r6, r7, pc}
 278              		.cfi_endproc
 279              	.LFE35:
 280              		.size	pid_update, .-pid_update
 281              		.section	.text.PID_Init,"ax",%progbits
 282              		.align	2
 283              		.global	PID_Init
 284              		.code	16
 285              		.thumb_func
 286              		.type	PID_Init, %function
 287              	PID_Init:
 288              	.LFB36:
  93:..\source/pid.c ****     Kp = p;
 289              		.loc 1 93 0
 290              		.cfi_startproc
 291              	.LVL30:
  94:..\source/pid.c ****     Ki = i;
 292              		.loc 1 94 0
 293 0000 024B     		ldr	r3, .L14
 294              	.LVL31:
 295 0002 1860     		str	r0, [r3]
  95:..\source/pid.c ****     Kd = d;
 296              		.loc 1 95 0
 297 0004 5960     		str	r1, [r3, #4]
  96:..\source/pid.c ****     sample_rate = constrain(sample_rate, MIN_SAMPLE_RATE, MAX_SAMPLE_RATE);
 298              		.loc 1 96 0
 299 0006 9A60     		str	r2, [r3, #8]
 300              	.LVL32:
  98:..\source/pid.c **** 
 301              		.loc 1 98 0
 302              		@ sp needed
 303 0008 7047     		bx	lr
 304              	.L15:
 305 000a C046     		.align	2
 306              	.L14:
 307 000c 00000000 		.word	.LANCHOR0
 308              		.cfi_endproc
 309              	.LFE36:
 310              		.size	PID_Init, .-PID_Init
 311              		.section	.text.PID_Start,"ax",%progbits
 312              		.align	2
 313              		.global	PID_Start
 314              		.code	16
 315              		.thumb_func
 316              		.type	PID_Start, %function
ARM GAS  C:\Users\Tim\AppData\Local\Temp\cct1Hglg.s 			page 9


 317              	PID_Start:
 318              	.LFB37:
 101:..\source/pid.c ****     Kp = DEFAULT_KP;
 319              		.loc 1 101 0
 320              		.cfi_startproc
 102:..\source/pid.c ****     Ki = DEFAULT_KI;
 321              		.loc 1 102 0
 322 0000 044B     		ldr	r3, .L17
 323 0002 FE22     		mov	r2, #254
 324 0004 9205     		lsl	r2, r2, #22
 325 0006 1A60     		str	r2, [r3]
 103:..\source/pid.c ****     Kd = DEFAULT_KD;
 326              		.loc 1 103 0
 327 0008 FC22     		mov	r2, #252
 328 000a 9205     		lsl	r2, r2, #22
 329 000c 5A60     		str	r2, [r3, #4]
 104:..\source/pid.c **** }
 330              		.loc 1 104 0
 331 000e 0022     		mov	r2, #0
 332 0010 9A60     		str	r2, [r3, #8]
 105:..\source/pid.c **** 
 333              		.loc 1 105 0
 334              		@ sp needed
 335 0012 7047     		bx	lr
 336              	.L18:
 337              		.align	2
 338              	.L17:
 339 0014 00000000 		.word	.LANCHOR0
 340              		.cfi_endproc
 341              	.LFE37:
 342              		.size	PID_Start, .-PID_Start
 343              		.global	__aeabi_i2d
 344              		.global	__aeabi_d2iz
 345              		.section	.text.PID_Update,"ax",%progbits
 346              		.align	2
 347              		.global	PID_Update
 348              		.code	16
 349              		.thumb_func
 350              		.type	PID_Update, %function
 351              	PID_Update:
 352              	.LFB39:
 119:..\source/pid.c **** 
 120:..\source/pid.c **** void PID_Update()
 121:..\source/pid.c **** {
 353              		.loc 1 121 0
 354              		.cfi_startproc
 355 0000 F0B5     		push	{r4, r5, r6, r7, lr}
 356              		.cfi_def_cfa_offset 20
 357              		.cfi_offset 4, -20
 358              		.cfi_offset 5, -16
 359              		.cfi_offset 6, -12
 360              		.cfi_offset 7, -8
 361              		.cfi_offset 14, -4
 362 0002 85B0     		sub	sp, sp, #20
 363              		.cfi_def_cfa_offset 40
 364              	.LVL33:
 122:..\source/pid.c **** #ifndef PID_BYPASS
ARM GAS  C:\Users\Tim\AppData\Local\Temp\cct1Hglg.s 			page 10


 123:..\source/pid.c ****     static uint32 last_time = 0;
 124:..\source/pid.c ****     static int16 new_velocity = 0;
 125:..\source/pid.c ****     int16 velocity;
 126:..\source/pid.c ****     int16 input = 0;
 127:..\source/pid.c ****     uint32 delta_time;
 128:..\source/pid.c ****     
 129:..\source/pid.c ****     /* Read the velocity command */
 130:..\source/pid.c ****     I2c_ReadVelocity(&velocity);
 365              		.loc 1 130 0
 366 0004 02AB     		add	r3, sp, #8
 367 0006 981D     		add	r0, r3, #6
 368 0008 FFF7FEFF 		bl	I2c_ReadVelocity
 369              	.LVL34:
 131:..\source/pid.c ****         
 132:..\source/pid.c ****     delta_time = millis() - last_time;
 370              		.loc 1 132 0
 371 000c FFF7FEFF 		bl	millis
 372              	.LVL35:
 373 0010 184B     		ldr	r3, .L21
 374 0012 DB68     		ldr	r3, [r3, #12]
 375 0014 C01A     		sub	r0, r0, r3
 376              	.LVL36:
 133:..\source/pid.c ****     //if (DELTA_TIME(millis(), last_time, SAMPLE_PERIOD))
 134:..\source/pid.c ****     if (delta_time > SAMPLE_PERIOD)
 377              		.loc 1 134 0
 378 0016 3228     		cmp	r0, #50
 379 0018 29D9     		bls	.L19
 135:..\source/pid.c ****     {    
 136:..\source/pid.c ****         last_time = millis();
 380              		.loc 1 136 0
 381 001a FFF7FEFF 		bl	millis
 382              	.LVL37:
 383 001e 154C     		ldr	r4, .L21
 384 0020 E060     		str	r0, [r4, #12]
 137:..\source/pid.c ****         
 138:..\source/pid.c ****         input = Encoder_GetVelocity();       
 385              		.loc 1 138 0
 386 0022 FFF7FEFF 		bl	Encoder_GetVelocity
 387              	.LVL38:
 388 0026 021C     		mov	r2, r0
 389              	.LVL39:
 139:..\source/pid.c ****         pid_update(&pid, velocity - input); 
 390              		.loc 1 139 0
 391 0028 02AB     		add	r3, sp, #8
 392 002a 0633     		add	r3, r3, #6
 393 002c 0020     		mov	r0, #0
 394 002e 185E     		ldrsh	r0, [r3, r0]
 395 0030 0192     		str	r2, [sp, #4]
 396 0032 801A     		sub	r0, r0, r2
 397 0034 104D     		ldr	r5, .L21+4
 398 0036 FFF7FEFF 		bl	__aeabi_i2d
 399              	.LVL40:
 400 003a 021C     		mov	r2, r0
 401 003c 0B1C     		mov	r3, r1
 402 003e 281C     		mov	r0, r5
 403 0040 FFF7FEFF 		bl	pid_update
 404              	.LVL41:
ARM GAS  C:\Users\Tim\AppData\Local\Temp\cct1Hglg.s 			page 11


 140:..\source/pid.c ****         new_velocity = input + pid.control;        
 405              		.loc 1 140 0
 406 0044 2E6B     		ldr	r6, [r5, #48]
 407 0046 6F6B     		ldr	r7, [r5, #52]
 408 0048 0198     		ldr	r0, [sp, #4]
 409 004a FFF7FEFF 		bl	__aeabi_i2d
 410              	.LVL42:
 411 004e 321C     		mov	r2, r6
 412 0050 3B1C     		mov	r3, r7
 413 0052 FFF7FEFF 		bl	__aeabi_dadd
 414              	.LVL43:
 415 0056 FFF7FEFF 		bl	__aeabi_d2iz
 416              	.LVL44:
 417 005a 81B2     		uxth	r1, r0
 418 005c 2182     		strh	r1, [r4, #16]
 141:..\source/pid.c ****         PrintPid(&pid, new_velocity);
 419              		.loc 1 141 0
 420 005e 09B2     		sxth	r1, r1
 421 0060 281C     		mov	r0, r5
 422 0062 FFF7FEFF 		bl	PrintPid
 423              	.LVL45:
 142:..\source/pid.c ****         Motor_SetOutput(new_velocity);
 424              		.loc 1 142 0
 425 0066 1023     		mov	r3, #16
 426 0068 E05E     		ldrsh	r0, [r4, r3]
 427 006a FFF7FEFF 		bl	Motor_SetOutput
 428              	.LVL46:
 429              	.L19:
 143:..\source/pid.c ****     }
 144:..\source/pid.c ****     
 145:..\source/pid.c **** #else
 146:..\source/pid.c ****     Motor_SetOutput(velocity);
 147:..\source/pid.c **** #endif
 148:..\source/pid.c **** }
 430              		.loc 1 148 0
 431 006e 05B0     		add	sp, sp, #20
 432              		@ sp needed
 433 0070 F0BD     		pop	{r4, r5, r6, r7, pc}
 434              	.L22:
 435 0072 C046     		.align	2
 436              	.L21:
 437 0074 00000000 		.word	.LANCHOR0
 438 0078 00000000 		.word	.LANCHOR1
 439              		.cfi_endproc
 440              	.LFE39:
 441              		.size	PID_Update, .-PID_Update
 442              		.comm	formatted_string,256,4
 443              		.data
 444              		.align	3
 445              		.set	.LANCHOR1,. + 0
 446              		.type	pid, %object
 447              		.size	pid, 56
 448              	pid:
 449 0000 9A999999 		.word	-1717986918
 450 0004 9999B93F 		.word	1069128089
 451 0008 00000000 		.word	0
 452 000c 0000F03F 		.word	1072693248
ARM GAS  C:\Users\Tim\AppData\Local\Temp\cct1Hglg.s 			page 12


 453 0010 00000000 		.word	0
 454 0014 0000E03F 		.word	1071644672
 455 0018 00000000 		.word	0
 456 001c 00000000 		.word	0
 457 0020 00000000 		.word	0
 458 0024 00000000 		.word	0
 459 0028 7B14AE47 		.word	1202590843
 460 002c E17A843F 		.word	1065646817
 461 0030 00000000 		.word	0
 462 0034 00000000 		.word	0
 463              		.section	.rodata.str1.4,"aMS",%progbits,1
 464              		.align	2
 465              	.LC0:
 466 0000 0D0A633A 		.ascii	"\015\012c: %2.1f, dg: %2.1f, ie: %2.1f, ig: %2.1f, "
 466      2025322E 
 466      31662C20 
 466      64673A20 
 466      25322E31 
 467 002d 70653A20 		.ascii	"pe: %2.1f, pg: %2.1f, wg: %2.1f, v: %d\000"
 467      25322E31 
 467      662C2070 
 467      673A2025 
 467      322E3166 
 468              		.bss
 469              		.align	2
 470              		.set	.LANCHOR0,. + 0
 471              		.type	Kp, %object
 472              		.size	Kp, 4
 473              	Kp:
 474 0000 00000000 		.space	4
 475              		.type	Ki, %object
 476              		.size	Ki, 4
 477              	Ki:
 478 0004 00000000 		.space	4
 479              		.type	Kd, %object
 480              		.size	Kd, 4
 481              	Kd:
 482 0008 00000000 		.space	4
 483              		.type	last_time.7408, %object
 484              		.size	last_time.7408, 4
 485              	last_time.7408:
 486 000c 00000000 		.space	4
 487              		.type	new_velocity.7409, %object
 488              		.size	new_velocity.7409, 2
 489              	new_velocity.7409:
 490 0010 0000     		.space	2
 491 0012 0000     		.text
 492              	.Letext0:
 493              		.file 2 "c:\\program files (x86)\\cypress\\psoc creator\\3.3\\psoc creator\\import\\gnu\\arm\\4.9.
 494              		.file 3 "Generated_Source\\PSoC4/cytypes.h"
 495              		.file 4 "Generated_Source\\PSoC4/UARTCOMMS_SPI_UART.h"
 496              		.file 5 "..\\source\\i2c.h"
 497              		.file 6 "..\\source\\time.h"
 498              		.file 7 "..\\source\\encoder.h"
 499              		.file 8 "..\\source\\debug.h"
 500              		.file 9 "c:\\program files (x86)\\cypress\\psoc creator\\3.3\\psoc creator\\import\\gnu\\arm\\4.9.
 501              		.file 10 "..\\source\\motor.h"
ARM GAS  C:\Users\Tim\AppData\Local\Temp\cct1Hglg.s 			page 13

