ARM GAS  C:\Users\Tim\AppData\Local\Temp\ccndZjOy.s 			page 1


   1              		.cpu cortex-m0
   2              		.fpu softvfp
   3              		.eabi_attribute 20, 1
   4              		.eabi_attribute 21, 1
   5              		.eabi_attribute 23, 3
   6              		.eabi_attribute 24, 1
   7              		.eabi_attribute 25, 1
   8              		.eabi_attribute 26, 1
   9              		.eabi_attribute 30, 1
  10              		.eabi_attribute 34, 0
  11              		.eabi_attribute 18, 4
  12              		.code	16
  13              		.file	"main.c"
  14              		.text
  15              	.Ltext0:
  16              		.cfi_sections	.debug_frame
  17              		.section	.text.MasterWriteSlave,"ax",%progbits
  18              		.align	2
  19              		.code	16
  20              		.thumb_func
  21              		.type	MasterWriteSlave, %function
  22              	MasterWriteSlave:
  23              	.LFB36:
  24              		.file 1 ".\\main.c"
   1:.\main.c      **** /* ========================================
   2:.\main.c      ****  *
   3:.\main.c      ****  * Copyright YOUR COMPANY, THE YEAR
   4:.\main.c      ****  * All Rights Reserved
   5:.\main.c      ****  * UNPUBLISHED, LICENSED SOFTWARE.
   6:.\main.c      ****  *
   7:.\main.c      ****  * CONFIDENTIAL AND PROPRIETARY INFORMATION
   8:.\main.c      ****  * WHICH IS THE PROPERTY OF your company.
   9:.\main.c      ****  *
  10:.\main.c      ****  * ========================================
  11:.\main.c      **** */
  12:.\main.c      **** #include <project.h>
  13:.\main.c      **** 
  14:.\main.c      **** static uint32 counter;
  15:.\main.c      **** static uint32 *buffer;
  16:.\main.c      **** 
  17:.\main.c      **** #define EZI2C_SLAVE_ADDR (0x08)
  18:.\main.c      **** 
  19:.\main.c      **** static uint8 MasterWriteSlave(uint8 addr, uint8 *buf, uint8 len)
  20:.\main.c      **** {
  25              		.loc 1 20 0
  26              		.cfi_startproc
  27              	.LVL0:
  28 0000 70B5     		push	{r4, r5, r6, lr}
  29              		.cfi_def_cfa_offset 16
  30              		.cfi_offset 4, -16
  31              		.cfi_offset 5, -12
  32              		.cfi_offset 6, -8
  33              		.cfi_offset 14, -4
  34 0002 82B0     		sub	sp, sp, #8
  35              		.cfi_def_cfa_offset 24
  36 0004 061C     		mov	r6, r0
  37 0006 0D1C     		mov	r5, r1
ARM GAS  C:\Users\Tim\AppData\Local\Temp\ccndZjOy.s 			page 2


  38 0008 141C     		mov	r4, r2
  21:.\main.c      ****     uint8 volatile status;
  22:.\main.c      ****     
  23:.\main.c      ****     status = I2CM_I2CMasterClearStatus();
  39              		.loc 1 23 0
  40 000a FFF7FEFF 		bl	I2CM_I2CMasterClearStatus
  41              	.LVL1:
  42 000e C0B2     		uxtb	r0, r0
  43 0010 6B46     		mov	r3, sp
  44 0012 D871     		strb	r0, [r3, #7]
  45 0014 0733     		add	r3, r3, #7
  24:.\main.c      ****     if(!(status & I2CM_I2C_MSTAT_ERR_XFER))
  46              		.loc 1 24 0
  47 0016 1B78     		ldrb	r3, [r3]
  25:.\main.c      ****     {
  26:.\main.c      ****         status = I2CM_I2CMasterWriteBuf(addr, buf, len,
  48              		.loc 1 26 0
  49 0018 301C     		mov	r0, r6
  50 001a 291C     		mov	r1, r5
  51 001c 221C     		mov	r2, r4
  52 001e 0023     		mov	r3, #0
  53 0020 FFF7FEFF 		bl	I2CM_I2CMasterWriteBuf
  54              	.LVL2:
  55 0024 C0B2     		uxtb	r0, r0
  56 0026 6B46     		mov	r3, sp
  57 0028 D871     		strb	r0, [r3, #7]
  58 002a 0733     		add	r3, r3, #7
  27:.\main.c      ****                                         I2CM_I2C_MODE_COMPLETE_XFER);
  28:.\main.c      ****         if(status == I2CM_I2C_MSTR_NO_ERROR)
  59              		.loc 1 28 0
  60 002c 1B78     		ldrb	r3, [r3]
  61 002e 002B     		cmp	r3, #0
  62 0030 09D1     		bne	.L3
  63              	.L4:
  29:.\main.c      ****         {
  30:.\main.c      ****             /* wait for write complete and no error */
  31:.\main.c      ****             do
  32:.\main.c      ****             {
  33:.\main.c      ****                 status = I2CM_I2CMasterStatus();
  64              		.loc 1 33 0 discriminator 1
  65 0032 FFF7FEFF 		bl	I2CM_I2CMasterStatus
  66              	.LVL3:
  67 0036 C0B2     		uxtb	r0, r0
  68 0038 6B46     		mov	r3, sp
  69 003a D871     		strb	r0, [r3, #7]
  70 003c 0733     		add	r3, r3, #7
  34:.\main.c      ****             } while((status & (I2CM_I2C_MSTAT_WR_CMPLT | I2CM_I2C_MSTAT_ERR_XFER)) == 0u);
  71              		.loc 1 34 0 discriminator 1
  72 003e 1B78     		ldrb	r3, [r3]
  73 0040 9B07     		lsl	r3, r3, #30
  74 0042 F6D5     		bpl	.L4
  75 0044 02E0     		b	.L2
  76              	.L3:
  35:.\main.c      ****         }
  36:.\main.c      ****         else
  37:.\main.c      ****         {
  38:.\main.c      ****             /* translate from I2CM_I2CMasterWriteBuf() error output to
ARM GAS  C:\Users\Tim\AppData\Local\Temp\ccndZjOy.s 			page 3


  39:.\main.c      ****             *  I2CM_I2CMasterStatus() error output */
  40:.\main.c      ****             status = (uint8)I2CM_I2C_MSTAT_ERR_XFER;
  77              		.loc 1 40 0
  78 0046 0022     		mov	r2, #0
  79 0048 6B46     		mov	r3, sp
  80 004a DA71     		strb	r2, [r3, #7]
  81              	.L2:
  41:.\main.c      ****         }
  42:.\main.c      ****     }
  43:.\main.c      ****     
  44:.\main.c      ****     return status;
  82              		.loc 1 44 0
  83 004c 6B46     		mov	r3, sp
  84 004e D879     		ldrb	r0, [r3, #7]
  85 0050 C0B2     		uxtb	r0, r0
  45:.\main.c      **** }
  86              		.loc 1 45 0
  87 0052 02B0     		add	sp, sp, #8
  88              		@ sp needed
  89              	.LVL4:
  90 0054 70BD     		pop	{r4, r5, r6, pc}
  91              		.cfi_endproc
  92              	.LFE36:
  93              		.size	MasterWriteSlave, .-MasterWriteSlave
  94 0056 C046     		.section	.text.MasterReadSlave,"ax",%progbits
  95              		.align	2
  96              		.code	16
  97              		.thumb_func
  98              		.type	MasterReadSlave, %function
  99              	MasterReadSlave:
 100              	.LFB37:
  46:.\main.c      **** 
  47:.\main.c      **** static uint8 MasterReadSlave()
  48:.\main.c      **** {
 101              		.loc 1 48 0
 102              		.cfi_startproc
 103 0000 00B5     		push	{lr}
 104              		.cfi_def_cfa_offset 4
 105              		.cfi_offset 14, -4
 106 0002 83B0     		sub	sp, sp, #12
 107              		.cfi_def_cfa_offset 16
  49:.\main.c      ****     uint8 volatile status; /* copy of EZI2C activity status */\
  50:.\main.c      ****     uint8 offset = 0;
 108              		.loc 1 50 0
 109 0004 6B46     		mov	r3, sp
 110 0006 991D     		add	r1, r3, #6
 111 0008 0023     		mov	r3, #0
 112 000a 0B70     		strb	r3, [r1]
  51:.\main.c      ****     uint32 value = 0;
 113              		.loc 1 51 0
 114 000c 0093     		str	r3, [sp]
  52:.\main.c      ****     
  53:.\main.c      ****     status = MasterWriteSlave(EZI2C_SLAVE_ADDR, &offset, 1);
 115              		.loc 1 53 0
 116 000e 0820     		mov	r0, #8
 117 0010 0122     		mov	r2, #1
 118 0012 FFF7FEFF 		bl	MasterWriteSlave
ARM GAS  C:\Users\Tim\AppData\Local\Temp\ccndZjOy.s 			page 4


 119              	.LVL5:
 120 0016 6B46     		mov	r3, sp
 121 0018 D871     		strb	r0, [r3, #7]
 122 001a 0733     		add	r3, r3, #7
  54:.\main.c      ****     if(!(status & I2CM_I2C_MSTAT_ERR_XFER))
 123              		.loc 1 54 0
 124 001c 1B78     		ldrb	r3, [r3]
  55:.\main.c      ****     {
  56:.\main.c      ****         status = I2CM_I2CMasterClearStatus();
 125              		.loc 1 56 0
 126 001e FFF7FEFF 		bl	I2CM_I2CMasterClearStatus
 127              	.LVL6:
 128 0022 C0B2     		uxtb	r0, r0
 129 0024 6B46     		mov	r3, sp
 130 0026 D871     		strb	r0, [r3, #7]
 131 0028 0733     		add	r3, r3, #7
  57:.\main.c      ****         if(!(status & I2CM_I2C_MSTAT_ERR_XFER))
 132              		.loc 1 57 0
 133 002a 1B78     		ldrb	r3, [r3]
  58:.\main.c      ****         {
  59:.\main.c      ****             status = I2CM_I2CMasterReadBuf(EZI2C_SLAVE_ADDR,
 134              		.loc 1 59 0
 135 002c 0820     		mov	r0, #8
 136 002e 6946     		mov	r1, sp
 137 0030 0422     		mov	r2, #4
 138 0032 0023     		mov	r3, #0
 139 0034 FFF7FEFF 		bl	I2CM_I2CMasterReadBuf
 140              	.LVL7:
 141 0038 C0B2     		uxtb	r0, r0
 142 003a 6B46     		mov	r3, sp
 143 003c D871     		strb	r0, [r3, #7]
 144 003e 0733     		add	r3, r3, #7
  60:.\main.c      ****                                            (uint8 *) &value,
  61:.\main.c      ****                                            4, 
  62:.\main.c      ****                                            I2CM_I2C_MODE_COMPLETE_XFER);
  63:.\main.c      ****             if(status == I2CM_I2C_MSTR_NO_ERROR)
 145              		.loc 1 63 0
 146 0040 1B78     		ldrb	r3, [r3]
 147 0042 002B     		cmp	r3, #0
 148 0044 0BD1     		bne	.L7
 149              	.L8:
  64:.\main.c      ****             {
  65:.\main.c      ****                 /* wait for read complete and no error */
  66:.\main.c      ****                 do
  67:.\main.c      ****                 {
  68:.\main.c      ****                     status = I2CM_I2CMasterStatus();
 150              		.loc 1 68 0 discriminator 1
 151 0046 FFF7FEFF 		bl	I2CM_I2CMasterStatus
 152              	.LVL8:
 153 004a C0B2     		uxtb	r0, r0
 154 004c 6B46     		mov	r3, sp
 155 004e D871     		strb	r0, [r3, #7]
 156 0050 0733     		add	r3, r3, #7
  69:.\main.c      ****                 } while((status & (I2CM_I2C_MSTAT_RD_CMPLT | I2CM_I2C_MSTAT_ERR_XFER)) == 0u);
 157              		.loc 1 69 0 discriminator 1
 158 0052 1B78     		ldrb	r3, [r3]
 159 0054 DB07     		lsl	r3, r3, #31
ARM GAS  C:\Users\Tim\AppData\Local\Temp\ccndZjOy.s 			page 5


 160 0056 F6D5     		bpl	.L8
  70:.\main.c      ****                 
  71:.\main.c      ****                 return value;
 161              		.loc 1 71 0
 162 0058 009B     		ldr	r3, [sp]
 163 005a D8B2     		uxtb	r0, r3
 164 005c 03E0     		b	.L6
 165              	.L7:
  72:.\main.c      ****             }
  73:.\main.c      ****             else
  74:.\main.c      ****             {
  75:.\main.c      ****                 /* translate from I2CM_MasterReadBuf() error output to
  76:.\main.c      ****                 *  I2CM_MasterStatus() error output */
  77:.\main.c      ****                 status = (uint8)I2CM_I2C_MSTAT_ERR_XFER;
 166              		.loc 1 77 0
 167 005e 0022     		mov	r2, #0
 168 0060 6B46     		mov	r3, sp
 169 0062 DA71     		strb	r2, [r3, #7]
  78:.\main.c      ****             }
  79:.\main.c      ****         }
  80:.\main.c      ****     }
  81:.\main.c      ****     
  82:.\main.c      ****     return 0xff;
 170              		.loc 1 82 0
 171 0064 FF20     		mov	r0, #255
 172              	.L6:
  83:.\main.c      **** }
 173              		.loc 1 83 0
 174 0066 03B0     		add	sp, sp, #12
 175              		@ sp needed
 176 0068 00BD     		pop	{pc}
 177              		.cfi_endproc
 178              	.LFE37:
 179              		.size	MasterReadSlave, .-MasterReadSlave
 180 006a C046     		.section	.text.main,"ax",%progbits
 181              		.align	2
 182              		.global	main
 183              		.code	16
 184              		.thumb_func
 185              		.type	main, %function
 186              	main:
 187              	.LFB38:
  84:.\main.c      **** 
  85:.\main.c      **** int main()
  86:.\main.c      **** {
 188              		.loc 1 86 0
 189              		.cfi_startproc
 190 0000 08B5     		push	{r3, lr}
 191              		.cfi_def_cfa_offset 8
 192              		.cfi_offset 3, -8
 193              		.cfi_offset 14, -4
  87:.\main.c      ****     uint8 result;
  88:.\main.c      ****     CyGlobalIntEnable; /* Enable global interrupts. */
 194              		.loc 1 88 0
 195              	@ 88 ".\main.c" 1
 196 0002 62B6     		CPSIE   i
 197              	@ 0 "" 2
ARM GAS  C:\Users\Tim\AppData\Local\Temp\ccndZjOy.s 			page 6


  89:.\main.c      **** 
  90:.\main.c      ****     counter = 0;
 198              		.loc 1 90 0
 199              		.code	16
 200 0004 0A4A     		ldr	r2, .L13
 201 0006 0023     		mov	r3, #0
 202 0008 1360     		str	r3, [r2]
  91:.\main.c      ****     buffer = &counter;
 203              		.loc 1 91 0
 204 000a 5260     		str	r2, [r2, #4]
  92:.\main.c      ****     EZI2C_EzI2CSetBuffer1(4, 4, (uint8 *) buffer);
 205              		.loc 1 92 0
 206 000c 0420     		mov	r0, #4
 207 000e 0421     		mov	r1, #4
 208 0010 FFF7FEFF 		bl	EZI2C_EzI2CSetBuffer1
 209              	.LVL9:
  93:.\main.c      ****     EZI2C_Start();
 210              		.loc 1 93 0
 211 0014 FFF7FEFF 		bl	EZI2C_Start
 212              	.LVL10:
  94:.\main.c      ****     
  95:.\main.c      ****     I2CM_Start();
 213              		.loc 1 95 0
 214 0018 FFF7FEFF 		bl	I2CM_Start
 215              	.LVL11:
 216              	.L12:
  96:.\main.c      **** 
  97:.\main.c      ****     for(;;)
  98:.\main.c      ****     {
  99:.\main.c      ****         counter++;
 217              		.loc 1 99 0 discriminator 1
 218 001c 044A     		ldr	r2, .L13
 219 001e 1368     		ldr	r3, [r2]
 220 0020 0133     		add	r3, r3, #1
 221 0022 1360     		str	r3, [r2]
 100:.\main.c      ****         CyDelay(100);
 222              		.loc 1 100 0 discriminator 1
 223 0024 6420     		mov	r0, #100
 224 0026 FFF7FEFF 		bl	CyDelay
 225              	.LVL12:
 101:.\main.c      ****         result = MasterReadSlave();
 226              		.loc 1 101 0 discriminator 1
 227 002a FFF7FEFF 		bl	MasterReadSlave
 228              	.LVL13:
 102:.\main.c      ****     }
 229              		.loc 1 102 0 discriminator 1
 230 002e F5E7     		b	.L12
 231              	.L14:
 232              		.align	2
 233              	.L13:
 234 0030 00000000 		.word	.LANCHOR0
 235              		.cfi_endproc
 236              	.LFE38:
 237              		.size	main, .-main
 238              		.bss
 239              		.align	2
 240              		.set	.LANCHOR0,. + 0
ARM GAS  C:\Users\Tim\AppData\Local\Temp\ccndZjOy.s 			page 7


 241              		.type	counter, %object
 242              		.size	counter, 4
 243              	counter:
 244 0000 00000000 		.space	4
 245              		.type	buffer, %object
 246              		.size	buffer, 4
 247              	buffer:
 248 0004 00000000 		.space	4
 249              		.text
 250              	.Letext0:
 251              		.file 2 "Generated_Source\\PSoC4/cytypes.h"
 252              		.file 3 "Generated_Source\\PSoC4/I2CM_I2C.h"
 253              		.file 4 "Generated_Source\\PSoC4/EZI2C.h"
 254              		.file 5 "Generated_Source\\PSoC4/I2CM.h"
 255              		.file 6 "Generated_Source\\PSoC4/EZI2C_EZI2C.h"
 256              		.file 7 "Generated_Source\\PSoC4/CyLib.h"